ARM GAS  /var/folders/v1/156fk8j97zv9pzndh61fy7zm0000gn/T//ccyHp6tG.s 			page 1


   1              		.cpu cortex-m7
   2              		.arch armv7e-m
   3              		.fpu fpv5-d16
   4              		.eabi_attribute 28, 1
   5              		.eabi_attribute 20, 1
   6              		.eabi_attribute 21, 1
   7              		.eabi_attribute 23, 3
   8              		.eabi_attribute 24, 1
   9              		.eabi_attribute 25, 1
  10              		.eabi_attribute 26, 1
  11              		.eabi_attribute 30, 2
  12              		.eabi_attribute 34, 1
  13              		.eabi_attribute 18, 4
  14              		.file	"main.cpp"
  15              		.text
  16              	.Ltext0:
  17              		.cfi_sections	.debug_frame
  18              		.file 1 "main.cpp"
  19              		.section	.text._ZN3oam12time_machine19TimeMachineHardwareD2Ev,"axG",%progbits,_ZN3oam12time_machin
  20              		.align	1
  21              		.p2align 2,,3
  22              		.weak	_ZN3oam12time_machine19TimeMachineHardwareD2Ev
  23              		.syntax unified
  24              		.thumb
  25              		.thumb_func
  27              	_ZN3oam12time_machine19TimeMachineHardwareD2Ev:
  28              	.LVL0:
  29              	.LFB4937:
  30              		.file 2 "time_machine_hardware.h"
   1:time_machine_hardware.h **** #pragma once
   2:time_machine_hardware.h **** 
   3:time_machine_hardware.h **** #include "daisy.h"
   4:time_machine_hardware.h **** #include "daisy_patch_sm.h"
   5:time_machine_hardware.h **** 
   6:time_machine_hardware.h **** using namespace daisy;
   7:time_machine_hardware.h **** using namespace patch_sm;
   8:time_machine_hardware.h **** 
   9:time_machine_hardware.h **** #define SKEW_CV CV_1
  10:time_machine_hardware.h **** #define TIME_CV CV_2
  11:time_machine_hardware.h **** #define FEEDBACK_CV CV_3
  12:time_machine_hardware.h **** 
  13:time_machine_hardware.h **** #define TIME_KNOB ADC_10
  14:time_machine_hardware.h **** #define FEEDBACK_KNOB CV_8
  15:time_machine_hardware.h **** #define SKEW_KNOB ADC_9
  16:time_machine_hardware.h **** 
  17:time_machine_hardware.h **** #define DRY_SLIDER ADC_11
  18:time_machine_hardware.h **** #define DELAY_SLIDERS ADC_12
  19:time_machine_hardware.h **** 
  20:time_machine_hardware.h **** #define DRY_VCA CV_4
  21:time_machine_hardware.h **** #define DELAY_VCA_GROUP1 CV_5
  22:time_machine_hardware.h **** #define DELAY_VCA_GROUP2 CV_6
  23:time_machine_hardware.h **** 
  24:time_machine_hardware.h **** namespace oam
  25:time_machine_hardware.h **** {
  26:time_machine_hardware.h **** namespace time_machine
  27:time_machine_hardware.h **** {
  28:time_machine_hardware.h ****     /** Accessors for the Analog Controls. 
ARM GAS  /var/folders/v1/156fk8j97zv9pzndh61fy7zm0000gn/T//ccyHp6tG.s 			page 2


  29:time_machine_hardware.h ****      *  These cover the 8x Bipolar CV inputs
  30:time_machine_hardware.h ****      *  as well as the 4x 0-3V3 ADC inputs on
  31:time_machine_hardware.h ****      *  the hardware 
  32:time_machine_hardware.h ****      * 
  33:time_machine_hardware.h ****      *  When reading a value with TimeMachineHardware::GetAdcValue()
  34:time_machine_hardware.h ****      * 
  35:time_machine_hardware.h ****      *  patch.GetAdcValue(patch_sm::CV_1);
  36:time_machine_hardware.h ****      */
  37:time_machine_hardware.h **** 
  38:time_machine_hardware.h ****     /*
  39:time_machine_hardware.h ****     enum
  40:time_machine_hardware.h ****     {
  41:time_machine_hardware.h ****         CV_1 = 0,
  42:time_machine_hardware.h ****         CV_2,
  43:time_machine_hardware.h ****         CV_3,
  44:time_machine_hardware.h ****         CV_4,
  45:time_machine_hardware.h ****         CV_5,
  46:time_machine_hardware.h ****         CV_6,
  47:time_machine_hardware.h ****         CV_7,
  48:time_machine_hardware.h ****         CV_8,
  49:time_machine_hardware.h ****         ADC_9,
  50:time_machine_hardware.h ****         ADC_10,
  51:time_machine_hardware.h ****         ADC_11,
  52:time_machine_hardware.h ****         ADC_12,
  53:time_machine_hardware.h ****         ADC_LAST,
  54:time_machine_hardware.h ****     };*/
  55:time_machine_hardware.h **** 
  56:time_machine_hardware.h ****     /** Enum for addressing the CV Outputs via the WriteCvOut function. */
  57:time_machine_hardware.h ****     /*
  58:time_machine_hardware.h ****     enum
  59:time_machine_hardware.h ****     {
  60:time_machine_hardware.h ****         CV_OUT_BOTH = 0,
  61:time_machine_hardware.h ****         CV_OUT_1,
  62:time_machine_hardware.h ****         CV_OUT_2,
  63:time_machine_hardware.h ****     };*/
  64:time_machine_hardware.h **** 
  65:time_machine_hardware.h **** 
  66:time_machine_hardware.h ****     /** @brief Board support file for TimeMachineHardware hardware
  67:time_machine_hardware.h ****      *  @author shensley
  68:time_machine_hardware.h ****      *  @ingroup boards
  69:time_machine_hardware.h ****      * 
  70:time_machine_hardware.h ****      *  Daisy Patch SM is a complete Eurorack module DSP engine.
  71:time_machine_hardware.h ****      *  Based on the Daisy Seed, with circuits added for 
  72:time_machine_hardware.h ****      *  interfacing directly with eurorack modular synthesizers.
  73:time_machine_hardware.h ****      */
  74:time_machine_hardware.h ****     class TimeMachineHardware
  75:time_machine_hardware.h ****     {
  76:time_machine_hardware.h ****       public:
  77:time_machine_hardware.h ****         /** Helper for mapping pins, and accessing them using the `GetPin` function */
  78:time_machine_hardware.h ****         enum class PinBank
  79:time_machine_hardware.h ****         {
  80:time_machine_hardware.h ****             A,
  81:time_machine_hardware.h ****             B,
  82:time_machine_hardware.h ****             C,
  83:time_machine_hardware.h ****             D
  84:time_machine_hardware.h ****         };
  85:time_machine_hardware.h **** 
ARM GAS  /var/folders/v1/156fk8j97zv9pzndh61fy7zm0000gn/T//ccyHp6tG.s 			page 3


  86:time_machine_hardware.h ****         TimeMachineHardware() {}
  87:time_machine_hardware.h ****         ~TimeMachineHardware() {}
  31              		.loc 2 87 9 view -0
  32              		.cfi_startproc
  33              		@ args = 0, pretend = 0, frame = 0
  34              		@ frame_needed = 0, uses_anonymous_args = 0
  35              		@ link register save eliminated.
  36              	.LBB535:
  37              	.LBB536:
  38              	.LBI536:
  39              		.file 3 "../temp_time_machine/DaisyExamples/libDaisy/src/hid/gatein.h"
   1:../temp_time_machine/DaisyExamples/libDaisy/src/hid/gatein.h **** #pragma once
   2:../temp_time_machine/DaisyExamples/libDaisy/src/hid/gatein.h **** #ifndef DSY_GATEIN_H
   3:../temp_time_machine/DaisyExamples/libDaisy/src/hid/gatein.h **** #define DSY_GATEIN_H
   4:../temp_time_machine/DaisyExamples/libDaisy/src/hid/gatein.h **** #include "per/gpio.h"
   5:../temp_time_machine/DaisyExamples/libDaisy/src/hid/gatein.h **** 
   6:../temp_time_machine/DaisyExamples/libDaisy/src/hid/gatein.h **** namespace daisy
   7:../temp_time_machine/DaisyExamples/libDaisy/src/hid/gatein.h **** {
   8:../temp_time_machine/DaisyExamples/libDaisy/src/hid/gatein.h **** /**
   9:../temp_time_machine/DaisyExamples/libDaisy/src/hid/gatein.h ****    @brief Generic Class for handling gate inputs through GPIO.
  10:../temp_time_machine/DaisyExamples/libDaisy/src/hid/gatein.h ****    @author Stephen Hensley
  11:../temp_time_machine/DaisyExamples/libDaisy/src/hid/gatein.h ****    @date    March 2020
  12:../temp_time_machine/DaisyExamples/libDaisy/src/hid/gatein.h ****    @ingroup controls
  13:../temp_time_machine/DaisyExamples/libDaisy/src/hid/gatein.h **** */
  14:../temp_time_machine/DaisyExamples/libDaisy/src/hid/gatein.h **** class GateIn
  15:../temp_time_machine/DaisyExamples/libDaisy/src/hid/gatein.h **** {
  16:../temp_time_machine/DaisyExamples/libDaisy/src/hid/gatein.h ****   public:
  17:../temp_time_machine/DaisyExamples/libDaisy/src/hid/gatein.h ****     /** GateIn Constructor */
  18:../temp_time_machine/DaisyExamples/libDaisy/src/hid/gatein.h ****     GateIn() {}
  19:../temp_time_machine/DaisyExamples/libDaisy/src/hid/gatein.h **** 
  20:../temp_time_machine/DaisyExamples/libDaisy/src/hid/gatein.h ****     /** GateIn Destructor */
  21:../temp_time_machine/DaisyExamples/libDaisy/src/hid/gatein.h ****     ~GateIn() {}
  40              		.loc 3 21 5 view .LVU1
  41              		.loc 3 21 5 is_stmt 0 view .LVU2
  42              	.LBE536:
  43              	.LBB537:
  44              	.LBI537:
  45              		.loc 3 21 5 is_stmt 1 view .LVU3
  46              		.loc 3 21 5 is_stmt 0 view .LVU4
  47              	.LBE537:
  48              	.LBB538:
  49              	.LBI538:
  50              		.file 4 "../temp_time_machine/DaisyExamples/libDaisy/src/dev/codec_pcm3060.h"
   1:../temp_time_machine/DaisyExamples/libDaisy/src/dev/codec_pcm3060.h **** #pragma once
   2:../temp_time_machine/DaisyExamples/libDaisy/src/dev/codec_pcm3060.h **** #ifndef DSY_CODEC_PCM3060_H
   3:../temp_time_machine/DaisyExamples/libDaisy/src/dev/codec_pcm3060.h **** #define DSY_CODEC_PCM3060_H
   4:../temp_time_machine/DaisyExamples/libDaisy/src/dev/codec_pcm3060.h **** #include "per/i2c.h"
   5:../temp_time_machine/DaisyExamples/libDaisy/src/dev/codec_pcm3060.h **** namespace daisy
   6:../temp_time_machine/DaisyExamples/libDaisy/src/dev/codec_pcm3060.h **** {
   7:../temp_time_machine/DaisyExamples/libDaisy/src/dev/codec_pcm3060.h **** /**
   8:../temp_time_machine/DaisyExamples/libDaisy/src/dev/codec_pcm3060.h ****  * @brief Driver for the TI PCM3060 Audio Codec.
   9:../temp_time_machine/DaisyExamples/libDaisy/src/dev/codec_pcm3060.h ****  * @addtogroup codec
  10:../temp_time_machine/DaisyExamples/libDaisy/src/dev/codec_pcm3060.h ****  * 
  11:../temp_time_machine/DaisyExamples/libDaisy/src/dev/codec_pcm3060.h ****  * For now this is a limited interface that uses I2C to communicate with the PCM3060
  12:../temp_time_machine/DaisyExamples/libDaisy/src/dev/codec_pcm3060.h ****  * The device can also be accessed with SPI, which is not yet supported.
  13:../temp_time_machine/DaisyExamples/libDaisy/src/dev/codec_pcm3060.h ****  * 
  14:../temp_time_machine/DaisyExamples/libDaisy/src/dev/codec_pcm3060.h ****  * For now all registers are set to their defaults, and the Init function will 
ARM GAS  /var/folders/v1/156fk8j97zv9pzndh61fy7zm0000gn/T//ccyHp6tG.s 			page 4


  15:../temp_time_machine/DaisyExamples/libDaisy/src/dev/codec_pcm3060.h ****  * perform a MRST and SRST before setting the format to 24bit LJ, and disabling 
  16:../temp_time_machine/DaisyExamples/libDaisy/src/dev/codec_pcm3060.h ****  * power save for both the ADC and DAC.
  17:../temp_time_machine/DaisyExamples/libDaisy/src/dev/codec_pcm3060.h ****  *
  18:../temp_time_machine/DaisyExamples/libDaisy/src/dev/codec_pcm3060.h ****  */
  19:../temp_time_machine/DaisyExamples/libDaisy/src/dev/codec_pcm3060.h **** class Pcm3060
  20:../temp_time_machine/DaisyExamples/libDaisy/src/dev/codec_pcm3060.h **** {
  21:../temp_time_machine/DaisyExamples/libDaisy/src/dev/codec_pcm3060.h ****   public:
  22:../temp_time_machine/DaisyExamples/libDaisy/src/dev/codec_pcm3060.h ****     enum class Result
  23:../temp_time_machine/DaisyExamples/libDaisy/src/dev/codec_pcm3060.h ****     {
  24:../temp_time_machine/DaisyExamples/libDaisy/src/dev/codec_pcm3060.h ****         OK,
  25:../temp_time_machine/DaisyExamples/libDaisy/src/dev/codec_pcm3060.h ****         ERR,
  26:../temp_time_machine/DaisyExamples/libDaisy/src/dev/codec_pcm3060.h ****     };
  27:../temp_time_machine/DaisyExamples/libDaisy/src/dev/codec_pcm3060.h **** 
  28:../temp_time_machine/DaisyExamples/libDaisy/src/dev/codec_pcm3060.h ****     Pcm3060() {}
  29:../temp_time_machine/DaisyExamples/libDaisy/src/dev/codec_pcm3060.h ****     ~Pcm3060() {}
  51              		.loc 4 29 5 is_stmt 1 view .LVU5
  52              		.loc 4 29 5 is_stmt 0 view .LVU6
  53              	.LBE538:
  54              	.LBB539:
  55              	.LBI539:
  56              		.file 5 "../temp_time_machine/DaisyExamples/libDaisy/src/hid/usb.h"
   1:../temp_time_machine/DaisyExamples/libDaisy/src/hid/usb.h **** #pragma once
   2:../temp_time_machine/DaisyExamples/libDaisy/src/hid/usb.h **** #ifndef DSY_HID_USB_H
   3:../temp_time_machine/DaisyExamples/libDaisy/src/hid/usb.h **** #define DSY_HID_USB_H
   4:../temp_time_machine/DaisyExamples/libDaisy/src/hid/usb.h **** #include <stdint.h>
   5:../temp_time_machine/DaisyExamples/libDaisy/src/hid/usb.h **** #include <stdlib.h>
   6:../temp_time_machine/DaisyExamples/libDaisy/src/hid/usb.h **** 
   7:../temp_time_machine/DaisyExamples/libDaisy/src/hid/usb.h **** namespace daisy
   8:../temp_time_machine/DaisyExamples/libDaisy/src/hid/usb.h **** /** @addtogroup human_interface
   9:../temp_time_machine/DaisyExamples/libDaisy/src/hid/usb.h ****     @{
  10:../temp_time_machine/DaisyExamples/libDaisy/src/hid/usb.h **** */
  11:../temp_time_machine/DaisyExamples/libDaisy/src/hid/usb.h **** 
  12:../temp_time_machine/DaisyExamples/libDaisy/src/hid/usb.h **** {
  13:../temp_time_machine/DaisyExamples/libDaisy/src/hid/usb.h **** /** 
  14:../temp_time_machine/DaisyExamples/libDaisy/src/hid/usb.h ****     @brief Interface for initializing and using the USB Peripherals on the daisy
  15:../temp_time_machine/DaisyExamples/libDaisy/src/hid/usb.h ****     @author Stephen Hensley
  16:../temp_time_machine/DaisyExamples/libDaisy/src/hid/usb.h ****     @date December 2019
  17:../temp_time_machine/DaisyExamples/libDaisy/src/hid/usb.h **** */
  18:../temp_time_machine/DaisyExamples/libDaisy/src/hid/usb.h **** class UsbHandle
  19:../temp_time_machine/DaisyExamples/libDaisy/src/hid/usb.h **** {
  20:../temp_time_machine/DaisyExamples/libDaisy/src/hid/usb.h ****   public:
  21:../temp_time_machine/DaisyExamples/libDaisy/src/hid/usb.h ****     /** Return values for USBHandle Functions */
  22:../temp_time_machine/DaisyExamples/libDaisy/src/hid/usb.h ****     enum class Result
  23:../temp_time_machine/DaisyExamples/libDaisy/src/hid/usb.h ****     {
  24:../temp_time_machine/DaisyExamples/libDaisy/src/hid/usb.h ****         OK,
  25:../temp_time_machine/DaisyExamples/libDaisy/src/hid/usb.h ****         ERR,
  26:../temp_time_machine/DaisyExamples/libDaisy/src/hid/usb.h ****     };
  27:../temp_time_machine/DaisyExamples/libDaisy/src/hid/usb.h **** 
  28:../temp_time_machine/DaisyExamples/libDaisy/src/hid/usb.h ****     /** Specified which of the two USB Peripherals to initialize. */
  29:../temp_time_machine/DaisyExamples/libDaisy/src/hid/usb.h ****     enum UsbPeriph
  30:../temp_time_machine/DaisyExamples/libDaisy/src/hid/usb.h ****     {
  31:../temp_time_machine/DaisyExamples/libDaisy/src/hid/usb.h ****         FS_INTERNAL, /**< Internal pin */
  32:../temp_time_machine/DaisyExamples/libDaisy/src/hid/usb.h ****         FS_EXTERNAL, /**< FS External D+ pin is Pin 38 (GPIO32). FS External D- pin is Pin 37 (GPIO
  33:../temp_time_machine/DaisyExamples/libDaisy/src/hid/usb.h ****         FS_BOTH,     /**< Both */
  34:../temp_time_machine/DaisyExamples/libDaisy/src/hid/usb.h ****     };
  35:../temp_time_machine/DaisyExamples/libDaisy/src/hid/usb.h **** 
  36:../temp_time_machine/DaisyExamples/libDaisy/src/hid/usb.h **** 
ARM GAS  /var/folders/v1/156fk8j97zv9pzndh61fy7zm0000gn/T//ccyHp6tG.s 			page 5


  37:../temp_time_machine/DaisyExamples/libDaisy/src/hid/usb.h ****     /** Function called upon reception of a buffer */
  38:../temp_time_machine/DaisyExamples/libDaisy/src/hid/usb.h ****     typedef void (*ReceiveCallback)(uint8_t* buff, uint32_t* len);
  39:../temp_time_machine/DaisyExamples/libDaisy/src/hid/usb.h **** 
  40:../temp_time_machine/DaisyExamples/libDaisy/src/hid/usb.h ****     UsbHandle() {}
  41:../temp_time_machine/DaisyExamples/libDaisy/src/hid/usb.h **** 
  42:../temp_time_machine/DaisyExamples/libDaisy/src/hid/usb.h ****     ~UsbHandle() {}
  57              		.loc 5 42 5 is_stmt 1 view .LVU7
  58              		.loc 5 42 5 is_stmt 0 view .LVU8
  59              	.LBE539:
  60              	.LBB540:
  61              	.LBI540:
  62              		.file 6 "../temp_time_machine/DaisyExamples/libDaisy/src/per/adc.h"
   1:../temp_time_machine/DaisyExamples/libDaisy/src/per/adc.h **** #pragma once
   2:../temp_time_machine/DaisyExamples/libDaisy/src/per/adc.h **** #ifndef DSY_ADC_H
   3:../temp_time_machine/DaisyExamples/libDaisy/src/per/adc.h **** #define DSY_ADC_H /**< Macro */
   4:../temp_time_machine/DaisyExamples/libDaisy/src/per/adc.h **** #include <stdint.h>
   5:../temp_time_machine/DaisyExamples/libDaisy/src/per/adc.h **** #include <stdlib.h>
   6:../temp_time_machine/DaisyExamples/libDaisy/src/per/adc.h **** #include "daisy_core.h"
   7:../temp_time_machine/DaisyExamples/libDaisy/src/per/adc.h **** #include "per/gpio.h"
   8:../temp_time_machine/DaisyExamples/libDaisy/src/per/adc.h **** 
   9:../temp_time_machine/DaisyExamples/libDaisy/src/per/adc.h **** #define DSY_ADC_MAX_CHANNELS 16 /**< Maximum number of ADC channels */
  10:../temp_time_machine/DaisyExamples/libDaisy/src/per/adc.h **** 
  11:../temp_time_machine/DaisyExamples/libDaisy/src/per/adc.h **** namespace daisy
  12:../temp_time_machine/DaisyExamples/libDaisy/src/per/adc.h **** {
  13:../temp_time_machine/DaisyExamples/libDaisy/src/per/adc.h **** /** @addtogroup per_analog
  14:../temp_time_machine/DaisyExamples/libDaisy/src/per/adc.h ****     @{
  15:../temp_time_machine/DaisyExamples/libDaisy/src/per/adc.h **** */
  16:../temp_time_machine/DaisyExamples/libDaisy/src/per/adc.h **** 
  17:../temp_time_machine/DaisyExamples/libDaisy/src/per/adc.h **** /* While there may not be many configuration options here,
  18:../temp_time_machine/DaisyExamples/libDaisy/src/per/adc.h **** using a struct like this allows us to add more configuration
  19:../temp_time_machine/DaisyExamples/libDaisy/src/per/adc.h **** later without breaking existing functionality.
  20:../temp_time_machine/DaisyExamples/libDaisy/src/per/adc.h **** */
  21:../temp_time_machine/DaisyExamples/libDaisy/src/per/adc.h **** 
  22:../temp_time_machine/DaisyExamples/libDaisy/src/per/adc.h **** /** @brief   Configuration Structure for an ADC Channel 
  23:../temp_time_machine/DaisyExamples/libDaisy/src/per/adc.h ****  *  @details This can be used to configure a a single input, 
  24:../temp_time_machine/DaisyExamples/libDaisy/src/per/adc.h ****  *           or a multiplexed input, allowing up to 8 inputs on 
  25:../temp_time_machine/DaisyExamples/libDaisy/src/per/adc.h ****  *           one channel.
  26:../temp_time_machine/DaisyExamples/libDaisy/src/per/adc.h ****  *  @note    Sharing data lines to multiple muxes _is_ possible, but
  27:../temp_time_machine/DaisyExamples/libDaisy/src/per/adc.h ****  *           each channel sharing data lines must be set to the maximum
  28:../temp_time_machine/DaisyExamples/libDaisy/src/per/adc.h ****  *           number of channels, even if some multiplexers have fewer
  29:../temp_time_machine/DaisyExamples/libDaisy/src/per/adc.h ****  *           inputs connected.
  30:../temp_time_machine/DaisyExamples/libDaisy/src/per/adc.h **** */
  31:../temp_time_machine/DaisyExamples/libDaisy/src/per/adc.h **** struct AdcChannelConfig
  32:../temp_time_machine/DaisyExamples/libDaisy/src/per/adc.h **** {
  33:../temp_time_machine/DaisyExamples/libDaisy/src/per/adc.h ****     /** Which pin to use for multiplexing */
  34:../temp_time_machine/DaisyExamples/libDaisy/src/per/adc.h ****     enum MuxPin
  35:../temp_time_machine/DaisyExamples/libDaisy/src/per/adc.h ****     {
  36:../temp_time_machine/DaisyExamples/libDaisy/src/per/adc.h ****         MUX_SEL_0,    /**< & */
  37:../temp_time_machine/DaisyExamples/libDaisy/src/per/adc.h ****         MUX_SEL_1,    /**< & */
  38:../temp_time_machine/DaisyExamples/libDaisy/src/per/adc.h ****         MUX_SEL_2,    /**< & */
  39:../temp_time_machine/DaisyExamples/libDaisy/src/per/adc.h ****         MUX_SEL_LAST, /**< & */
  40:../temp_time_machine/DaisyExamples/libDaisy/src/per/adc.h ****     };
  41:../temp_time_machine/DaisyExamples/libDaisy/src/per/adc.h **** 
  42:../temp_time_machine/DaisyExamples/libDaisy/src/per/adc.h ****     /** \brief per channel conversion speed added to fixed time based on bitdepth, etc. */
  43:../temp_time_machine/DaisyExamples/libDaisy/src/per/adc.h ****     enum ConversionSpeed
  44:../temp_time_machine/DaisyExamples/libDaisy/src/per/adc.h ****     {
  45:../temp_time_machine/DaisyExamples/libDaisy/src/per/adc.h ****         SPEED_1CYCLES_5,
ARM GAS  /var/folders/v1/156fk8j97zv9pzndh61fy7zm0000gn/T//ccyHp6tG.s 			page 6


  46:../temp_time_machine/DaisyExamples/libDaisy/src/per/adc.h ****         SPEED_2CYCLES_5,
  47:../temp_time_machine/DaisyExamples/libDaisy/src/per/adc.h ****         SPEED_8CYCLES_5,
  48:../temp_time_machine/DaisyExamples/libDaisy/src/per/adc.h ****         SPEED_16CYCLES_5,
  49:../temp_time_machine/DaisyExamples/libDaisy/src/per/adc.h ****         SPEED_32CYCLES_5,
  50:../temp_time_machine/DaisyExamples/libDaisy/src/per/adc.h ****         SPEED_64CYCLES_5,
  51:../temp_time_machine/DaisyExamples/libDaisy/src/per/adc.h ****         SPEED_387CYCLES_5,
  52:../temp_time_machine/DaisyExamples/libDaisy/src/per/adc.h ****         SPEED_810CYCLES_5,
  53:../temp_time_machine/DaisyExamples/libDaisy/src/per/adc.h ****     };
  54:../temp_time_machine/DaisyExamples/libDaisy/src/per/adc.h **** 
  55:../temp_time_machine/DaisyExamples/libDaisy/src/per/adc.h ****     /** Initializes a single ADC pin as an ADC. 
  56:../temp_time_machine/DaisyExamples/libDaisy/src/per/adc.h ****     \param pin Pin to init.
  57:../temp_time_machine/DaisyExamples/libDaisy/src/per/adc.h ****     \param speed conversion speed for this pin defaults to 8.5 cycles
  58:../temp_time_machine/DaisyExamples/libDaisy/src/per/adc.h ****      */
  59:../temp_time_machine/DaisyExamples/libDaisy/src/per/adc.h ****     void InitSingle(dsy_gpio_pin pin, ConversionSpeed speed = SPEED_8CYCLES_5);
  60:../temp_time_machine/DaisyExamples/libDaisy/src/per/adc.h **** 
  61:../temp_time_machine/DaisyExamples/libDaisy/src/per/adc.h ****     /** 
  62:../temp_time_machine/DaisyExamples/libDaisy/src/per/adc.h ****     Initializes a single ADC pin as a Multiplexed ADC.
  63:../temp_time_machine/DaisyExamples/libDaisy/src/per/adc.h ****     Requires a CD405X Multiplexer connected to the pin.
  64:../temp_time_machine/DaisyExamples/libDaisy/src/per/adc.h ****     You only need to supply the mux pins that are required,
  65:../temp_time_machine/DaisyExamples/libDaisy/src/per/adc.h ****     e.g. a 4052 mux would only require mux_0 and mux_1.
  66:../temp_time_machine/DaisyExamples/libDaisy/src/per/adc.h ****     Internal Callbacks handle the pin addressing.
  67:../temp_time_machine/DaisyExamples/libDaisy/src/per/adc.h ****     \param adc_pin &
  68:../temp_time_machine/DaisyExamples/libDaisy/src/per/adc.h ****     \param mux_channels must be 1-8
  69:../temp_time_machine/DaisyExamples/libDaisy/src/per/adc.h ****     \param mux_0 First mux pin
  70:../temp_time_machine/DaisyExamples/libDaisy/src/per/adc.h ****     \param mux_1 Second mux pin
  71:../temp_time_machine/DaisyExamples/libDaisy/src/per/adc.h ****     \param mux_2 Third mux pin
  72:../temp_time_machine/DaisyExamples/libDaisy/src/per/adc.h ****     \param speed conversion speed for this pin defaults to 8.5 cycles
  73:../temp_time_machine/DaisyExamples/libDaisy/src/per/adc.h ****     */
  74:../temp_time_machine/DaisyExamples/libDaisy/src/per/adc.h ****     void InitMux(dsy_gpio_pin    adc_pin,
  75:../temp_time_machine/DaisyExamples/libDaisy/src/per/adc.h ****                  size_t          mux_channels,
  76:../temp_time_machine/DaisyExamples/libDaisy/src/per/adc.h ****                  dsy_gpio_pin    mux_0,
  77:../temp_time_machine/DaisyExamples/libDaisy/src/per/adc.h ****                  dsy_gpio_pin    mux_1 = {DSY_GPIOX, 0},
  78:../temp_time_machine/DaisyExamples/libDaisy/src/per/adc.h ****                  dsy_gpio_pin    mux_2 = {DSY_GPIOX, 0},
  79:../temp_time_machine/DaisyExamples/libDaisy/src/per/adc.h ****                  ConversionSpeed speed = SPEED_8CYCLES_5);
  80:../temp_time_machine/DaisyExamples/libDaisy/src/per/adc.h **** 
  81:../temp_time_machine/DaisyExamples/libDaisy/src/per/adc.h ****     dsy_gpio        pin_;                   /**< & */
  82:../temp_time_machine/DaisyExamples/libDaisy/src/per/adc.h ****     dsy_gpio        mux_pin_[MUX_SEL_LAST]; /**< & */
  83:../temp_time_machine/DaisyExamples/libDaisy/src/per/adc.h ****     uint8_t         mux_channels_;          /**< & */
  84:../temp_time_machine/DaisyExamples/libDaisy/src/per/adc.h ****     ConversionSpeed speed_;
  85:../temp_time_machine/DaisyExamples/libDaisy/src/per/adc.h **** };
  86:../temp_time_machine/DaisyExamples/libDaisy/src/per/adc.h **** 
  87:../temp_time_machine/DaisyExamples/libDaisy/src/per/adc.h **** /**
  88:../temp_time_machine/DaisyExamples/libDaisy/src/per/adc.h ****    @brief Handler for analog to digital conversion
  89:../temp_time_machine/DaisyExamples/libDaisy/src/per/adc.h **** */
  90:../temp_time_machine/DaisyExamples/libDaisy/src/per/adc.h **** class AdcHandle
  91:../temp_time_machine/DaisyExamples/libDaisy/src/per/adc.h **** {
  92:../temp_time_machine/DaisyExamples/libDaisy/src/per/adc.h ****   public:
  93:../temp_time_machine/DaisyExamples/libDaisy/src/per/adc.h ****     /** Supported oversampling amounts */
  94:../temp_time_machine/DaisyExamples/libDaisy/src/per/adc.h ****     enum OverSampling
  95:../temp_time_machine/DaisyExamples/libDaisy/src/per/adc.h ****     {
  96:../temp_time_machine/DaisyExamples/libDaisy/src/per/adc.h ****         OVS_NONE, /**< & */
  97:../temp_time_machine/DaisyExamples/libDaisy/src/per/adc.h ****         OVS_4,    /**< & */
  98:../temp_time_machine/DaisyExamples/libDaisy/src/per/adc.h ****         OVS_8,    /**< & */
  99:../temp_time_machine/DaisyExamples/libDaisy/src/per/adc.h ****         OVS_16,   /**< & */
 100:../temp_time_machine/DaisyExamples/libDaisy/src/per/adc.h ****         OVS_32,   /**< & */
 101:../temp_time_machine/DaisyExamples/libDaisy/src/per/adc.h ****         OVS_64,   /**< & */
 102:../temp_time_machine/DaisyExamples/libDaisy/src/per/adc.h ****         OVS_128,  /**< & */
ARM GAS  /var/folders/v1/156fk8j97zv9pzndh61fy7zm0000gn/T//ccyHp6tG.s 			page 7


 103:../temp_time_machine/DaisyExamples/libDaisy/src/per/adc.h ****         OVS_256,  /**< & */
 104:../temp_time_machine/DaisyExamples/libDaisy/src/per/adc.h ****         OVS_512,  /**< & */
 105:../temp_time_machine/DaisyExamples/libDaisy/src/per/adc.h ****         OVS_1024, /**< & */
 106:../temp_time_machine/DaisyExamples/libDaisy/src/per/adc.h ****         OVS_LAST, /**< & */
 107:../temp_time_machine/DaisyExamples/libDaisy/src/per/adc.h ****     };
 108:../temp_time_machine/DaisyExamples/libDaisy/src/per/adc.h **** 
 109:../temp_time_machine/DaisyExamples/libDaisy/src/per/adc.h ****     AdcHandle() {}
 110:../temp_time_machine/DaisyExamples/libDaisy/src/per/adc.h ****     ~AdcHandle() {}
  63              		.loc 6 110 5 is_stmt 1 view .LVU9
  64              		.loc 6 110 5 is_stmt 0 view .LVU10
  65              	.LBE540:
  66              	.LBB541:
  67              	.LBI541:
  68              		.file 7 "../temp_time_machine/DaisyExamples/libDaisy/src/hid/audio.h"
   1:../temp_time_machine/DaisyExamples/libDaisy/src/hid/audio.h **** #ifndef DSY_AUDIO_H
   2:../temp_time_machine/DaisyExamples/libDaisy/src/hid/audio.h **** #define DSY_AUDIO_H /**< & */
   3:../temp_time_machine/DaisyExamples/libDaisy/src/hid/audio.h **** 
   4:../temp_time_machine/DaisyExamples/libDaisy/src/hid/audio.h **** #include "per/sai.h"
   5:../temp_time_machine/DaisyExamples/libDaisy/src/hid/audio.h **** 
   6:../temp_time_machine/DaisyExamples/libDaisy/src/hid/audio.h **** namespace daisy
   7:../temp_time_machine/DaisyExamples/libDaisy/src/hid/audio.h **** {
   8:../temp_time_machine/DaisyExamples/libDaisy/src/hid/audio.h **** /** @brief Audio Engine Handle
   9:../temp_time_machine/DaisyExamples/libDaisy/src/hid/audio.h ****  *  @ingroup audio 
  10:../temp_time_machine/DaisyExamples/libDaisy/src/hid/audio.h ****  *  @details This class allows for higher level access to an audio engine.
  11:../temp_time_machine/DaisyExamples/libDaisy/src/hid/audio.h ****  *           If you're using a SOM like the DaisySeed or DaisyPatchSM (or any 
  12:../temp_time_machine/DaisyExamples/libDaisy/src/hid/audio.h ****  *            board that includes one of those objects) then the intialization
  13:../temp_time_machine/DaisyExamples/libDaisy/src/hid/audio.h ****  *            is already taken  care of.
  14:../temp_time_machine/DaisyExamples/libDaisy/src/hid/audio.h ****  *           If you're setting up your own custom hardware, or need to make changes
  15:../temp_time_machine/DaisyExamples/libDaisy/src/hid/audio.h ****  *           you will have to take the following steps:
  16:../temp_time_machine/DaisyExamples/libDaisy/src/hid/audio.h ****  *             1. Create and Initialize an SaiHandle or two depending on your requirements
  17:../temp_time_machine/DaisyExamples/libDaisy/src/hid/audio.h ****  *             2. Initialize the Audio Handle with the desired settings and the Initialized SaiHand
  18:../temp_time_machine/DaisyExamples/libDaisy/src/hid/audio.h ****  *             3. If the connected codec requires special configuration or initialization, do so
  19:../temp_time_machine/DaisyExamples/libDaisy/src/hid/audio.h ****  *             4. Write a callback method using either the AudioCallback or the InterleavingAudioCa
  20:../temp_time_machine/DaisyExamples/libDaisy/src/hid/audio.h ****  *             5. Start the Audio using one of the StartAudio function
  21:../temp_time_machine/DaisyExamples/libDaisy/src/hid/audio.h ****  */
  22:../temp_time_machine/DaisyExamples/libDaisy/src/hid/audio.h **** class AudioHandle
  23:../temp_time_machine/DaisyExamples/libDaisy/src/hid/audio.h **** {
  24:../temp_time_machine/DaisyExamples/libDaisy/src/hid/audio.h ****   public:
  25:../temp_time_machine/DaisyExamples/libDaisy/src/hid/audio.h ****     /** Manually configurable details about the Audio Engine */
  26:../temp_time_machine/DaisyExamples/libDaisy/src/hid/audio.h ****     /** TODO: Figure out how to get samplerate in here. */
  27:../temp_time_machine/DaisyExamples/libDaisy/src/hid/audio.h ****     struct Config
  28:../temp_time_machine/DaisyExamples/libDaisy/src/hid/audio.h ****     {
  29:../temp_time_machine/DaisyExamples/libDaisy/src/hid/audio.h ****         /** number of samples to process per callback */
  30:../temp_time_machine/DaisyExamples/libDaisy/src/hid/audio.h ****         size_t blocksize;
  31:../temp_time_machine/DaisyExamples/libDaisy/src/hid/audio.h **** 
  32:../temp_time_machine/DaisyExamples/libDaisy/src/hid/audio.h ****         /**< Sample rate of audio */
  33:../temp_time_machine/DaisyExamples/libDaisy/src/hid/audio.h ****         SaiHandle::Config::SampleRate samplerate;
  34:../temp_time_machine/DaisyExamples/libDaisy/src/hid/audio.h **** 
  35:../temp_time_machine/DaisyExamples/libDaisy/src/hid/audio.h ****         /** factor for adjustment before and after callback for hardware that may have extra headro
  36:../temp_time_machine/DaisyExamples/libDaisy/src/hid/audio.h ****         float postgain;
  37:../temp_time_machine/DaisyExamples/libDaisy/src/hid/audio.h **** 
  38:../temp_time_machine/DaisyExamples/libDaisy/src/hid/audio.h ****         /** factor for additional one-sided compensation to audio path for hardware that may
  39:../temp_time_machine/DaisyExamples/libDaisy/src/hid/audio.h ****          *  have unequal input/output ranges
  40:../temp_time_machine/DaisyExamples/libDaisy/src/hid/audio.h ****          */
  41:../temp_time_machine/DaisyExamples/libDaisy/src/hid/audio.h ****         float output_compensation;
  42:../temp_time_machine/DaisyExamples/libDaisy/src/hid/audio.h **** 
  43:../temp_time_machine/DaisyExamples/libDaisy/src/hid/audio.h ****         /** Sets default values for config struct */
ARM GAS  /var/folders/v1/156fk8j97zv9pzndh61fy7zm0000gn/T//ccyHp6tG.s 			page 8


  44:../temp_time_machine/DaisyExamples/libDaisy/src/hid/audio.h ****         Config()
  45:../temp_time_machine/DaisyExamples/libDaisy/src/hid/audio.h ****         : blocksize(48),
  46:../temp_time_machine/DaisyExamples/libDaisy/src/hid/audio.h ****           samplerate(SaiHandle::Config::SampleRate::SAI_48KHZ),
  47:../temp_time_machine/DaisyExamples/libDaisy/src/hid/audio.h ****           postgain(1.f),
  48:../temp_time_machine/DaisyExamples/libDaisy/src/hid/audio.h ****           output_compensation(1.f)
  49:../temp_time_machine/DaisyExamples/libDaisy/src/hid/audio.h ****         {
  50:../temp_time_machine/DaisyExamples/libDaisy/src/hid/audio.h ****         }
  51:../temp_time_machine/DaisyExamples/libDaisy/src/hid/audio.h ****     };
  52:../temp_time_machine/DaisyExamples/libDaisy/src/hid/audio.h **** 
  53:../temp_time_machine/DaisyExamples/libDaisy/src/hid/audio.h ****     enum class Result
  54:../temp_time_machine/DaisyExamples/libDaisy/src/hid/audio.h ****     {
  55:../temp_time_machine/DaisyExamples/libDaisy/src/hid/audio.h ****         OK,
  56:../temp_time_machine/DaisyExamples/libDaisy/src/hid/audio.h ****         ERR,
  57:../temp_time_machine/DaisyExamples/libDaisy/src/hid/audio.h ****     };
  58:../temp_time_machine/DaisyExamples/libDaisy/src/hid/audio.h **** 
  59:../temp_time_machine/DaisyExamples/libDaisy/src/hid/audio.h ****     /** Non-Interleaving input buffer
  60:../temp_time_machine/DaisyExamples/libDaisy/src/hid/audio.h ****      * Buffer arranged by float[chn][sample] 
  61:../temp_time_machine/DaisyExamples/libDaisy/src/hid/audio.h ****      * const so that the user can't modify the input
  62:../temp_time_machine/DaisyExamples/libDaisy/src/hid/audio.h ****      */
  63:../temp_time_machine/DaisyExamples/libDaisy/src/hid/audio.h ****     typedef const float* const* InputBuffer;
  64:../temp_time_machine/DaisyExamples/libDaisy/src/hid/audio.h **** 
  65:../temp_time_machine/DaisyExamples/libDaisy/src/hid/audio.h ****     /** Non-Interleaving output buffer
  66:../temp_time_machine/DaisyExamples/libDaisy/src/hid/audio.h ****      * Arranged by float[chn][sample] 
  67:../temp_time_machine/DaisyExamples/libDaisy/src/hid/audio.h ****      */
  68:../temp_time_machine/DaisyExamples/libDaisy/src/hid/audio.h ****     typedef float** OutputBuffer;
  69:../temp_time_machine/DaisyExamples/libDaisy/src/hid/audio.h **** 
  70:../temp_time_machine/DaisyExamples/libDaisy/src/hid/audio.h ****     /** Type for a Non-Interleaving audio callback 
  71:../temp_time_machine/DaisyExamples/libDaisy/src/hid/audio.h ****      * Non-Interleaving audio callbacks in daisy will be of this type
  72:../temp_time_machine/DaisyExamples/libDaisy/src/hid/audio.h ****      */
  73:../temp_time_machine/DaisyExamples/libDaisy/src/hid/audio.h ****     typedef void (*AudioCallback)(InputBuffer  in,
  74:../temp_time_machine/DaisyExamples/libDaisy/src/hid/audio.h ****                                   OutputBuffer out,
  75:../temp_time_machine/DaisyExamples/libDaisy/src/hid/audio.h ****                                   size_t       size);
  76:../temp_time_machine/DaisyExamples/libDaisy/src/hid/audio.h **** 
  77:../temp_time_machine/DaisyExamples/libDaisy/src/hid/audio.h ****     /** Interleaving Input buffer
  78:../temp_time_machine/DaisyExamples/libDaisy/src/hid/audio.h ****      ** audio is prepared as { L0, R0, L1, R1, . . . LN, RN }]
  79:../temp_time_machine/DaisyExamples/libDaisy/src/hid/audio.h ****      ** this is const, as the user shouldn't modify it
  80:../temp_time_machine/DaisyExamples/libDaisy/src/hid/audio.h ****     */
  81:../temp_time_machine/DaisyExamples/libDaisy/src/hid/audio.h ****     typedef const float* InterleavingInputBuffer;
  82:../temp_time_machine/DaisyExamples/libDaisy/src/hid/audio.h **** 
  83:../temp_time_machine/DaisyExamples/libDaisy/src/hid/audio.h ****     /** Interleaving Output buffer 
  84:../temp_time_machine/DaisyExamples/libDaisy/src/hid/audio.h ****      ** audio is prepared as { L0, R0, L1, R1, . . . LN, RN }
  85:../temp_time_machine/DaisyExamples/libDaisy/src/hid/audio.h ****     */
  86:../temp_time_machine/DaisyExamples/libDaisy/src/hid/audio.h ****     typedef float* InterleavingOutputBuffer;
  87:../temp_time_machine/DaisyExamples/libDaisy/src/hid/audio.h **** 
  88:../temp_time_machine/DaisyExamples/libDaisy/src/hid/audio.h ****     /** Interleaving Audio Callback 
  89:../temp_time_machine/DaisyExamples/libDaisy/src/hid/audio.h ****      * Interleaving audio callbacks in daisy must be of this type
  90:../temp_time_machine/DaisyExamples/libDaisy/src/hid/audio.h ****      */
  91:../temp_time_machine/DaisyExamples/libDaisy/src/hid/audio.h ****     typedef void (*InterleavingAudioCallback)(InterleavingInputBuffer  in,
  92:../temp_time_machine/DaisyExamples/libDaisy/src/hid/audio.h ****                                               InterleavingOutputBuffer out,
  93:../temp_time_machine/DaisyExamples/libDaisy/src/hid/audio.h ****                                               size_t                   size);
  94:../temp_time_machine/DaisyExamples/libDaisy/src/hid/audio.h **** 
  95:../temp_time_machine/DaisyExamples/libDaisy/src/hid/audio.h ****     AudioHandle() : pimpl_(nullptr) {}
  96:../temp_time_machine/DaisyExamples/libDaisy/src/hid/audio.h ****     ~AudioHandle() {}
  69              		.loc 7 96 5 is_stmt 1 view .LVU11
  70              		.loc 7 96 5 is_stmt 0 view .LVU12
  71              	.LBE541:
  72              	.LBB542:
ARM GAS  /var/folders/v1/156fk8j97zv9pzndh61fy7zm0000gn/T//ccyHp6tG.s 			page 9


  73              	.LBI542:
  74              		.file 8 "../temp_time_machine/DaisyExamples/libDaisy/src/sys/system.h"
   1:../temp_time_machine/DaisyExamples/libDaisy/src/sys/system.h **** #ifndef DSY_SYSTEM_H
   2:../temp_time_machine/DaisyExamples/libDaisy/src/sys/system.h **** #define DSY_SYSTEM_H
   3:../temp_time_machine/DaisyExamples/libDaisy/src/sys/system.h **** 
   4:../temp_time_machine/DaisyExamples/libDaisy/src/sys/system.h **** #ifndef UNIT_TEST // for unit tests, a dummy implementation is provided below
   5:../temp_time_machine/DaisyExamples/libDaisy/src/sys/system.h **** 
   6:../temp_time_machine/DaisyExamples/libDaisy/src/sys/system.h **** #include <cstdint>
   7:../temp_time_machine/DaisyExamples/libDaisy/src/sys/system.h **** #include "per/tim.h"
   8:../temp_time_machine/DaisyExamples/libDaisy/src/sys/system.h **** 
   9:../temp_time_machine/DaisyExamples/libDaisy/src/sys/system.h **** namespace daisy
  10:../temp_time_machine/DaisyExamples/libDaisy/src/sys/system.h **** {
  11:../temp_time_machine/DaisyExamples/libDaisy/src/sys/system.h **** /** A handle for interacting with the Core System.
  12:../temp_time_machine/DaisyExamples/libDaisy/src/sys/system.h ****  ** This includes the Clock tree, MPU, global DMA initialization,
  13:../temp_time_machine/DaisyExamples/libDaisy/src/sys/system.h ****  ** cache handling, and any other necessary global initiailzation
  14:../temp_time_machine/DaisyExamples/libDaisy/src/sys/system.h ****  **
  15:../temp_time_machine/DaisyExamples/libDaisy/src/sys/system.h ****  ** @author shensley
  16:../temp_time_machine/DaisyExamples/libDaisy/src/sys/system.h ****  ** @ingroup system
  17:../temp_time_machine/DaisyExamples/libDaisy/src/sys/system.h ****  */
  18:../temp_time_machine/DaisyExamples/libDaisy/src/sys/system.h **** class System
  19:../temp_time_machine/DaisyExamples/libDaisy/src/sys/system.h **** {
  20:../temp_time_machine/DaisyExamples/libDaisy/src/sys/system.h ****   public:
  21:../temp_time_machine/DaisyExamples/libDaisy/src/sys/system.h ****     /** Contains settings for initializing the System */
  22:../temp_time_machine/DaisyExamples/libDaisy/src/sys/system.h ****     struct Config
  23:../temp_time_machine/DaisyExamples/libDaisy/src/sys/system.h ****     {
  24:../temp_time_machine/DaisyExamples/libDaisy/src/sys/system.h ****         /** Specifies the system clock frequency that feeds APB/AHB clocks, etc. */
  25:../temp_time_machine/DaisyExamples/libDaisy/src/sys/system.h ****         enum class SysClkFreq
  26:../temp_time_machine/DaisyExamples/libDaisy/src/sys/system.h ****         {
  27:../temp_time_machine/DaisyExamples/libDaisy/src/sys/system.h ****             FREQ_400MHZ,
  28:../temp_time_machine/DaisyExamples/libDaisy/src/sys/system.h ****             FREQ_480MHZ,
  29:../temp_time_machine/DaisyExamples/libDaisy/src/sys/system.h ****         };
  30:../temp_time_machine/DaisyExamples/libDaisy/src/sys/system.h **** 
  31:../temp_time_machine/DaisyExamples/libDaisy/src/sys/system.h ****         /** Method to call on the struct to set to defaults
  32:../temp_time_machine/DaisyExamples/libDaisy/src/sys/system.h ****          ** CPU Freq set to 400MHz
  33:../temp_time_machine/DaisyExamples/libDaisy/src/sys/system.h ****          ** Cache Enabled
  34:../temp_time_machine/DaisyExamples/libDaisy/src/sys/system.h ****          ** */
  35:../temp_time_machine/DaisyExamples/libDaisy/src/sys/system.h ****         void Defaults()
  36:../temp_time_machine/DaisyExamples/libDaisy/src/sys/system.h ****         {
  37:../temp_time_machine/DaisyExamples/libDaisy/src/sys/system.h ****             cpu_freq    = SysClkFreq::FREQ_400MHZ;
  38:../temp_time_machine/DaisyExamples/libDaisy/src/sys/system.h ****             use_dcache  = true;
  39:../temp_time_machine/DaisyExamples/libDaisy/src/sys/system.h ****             use_icache  = true;
  40:../temp_time_machine/DaisyExamples/libDaisy/src/sys/system.h ****             skip_clocks = false;
  41:../temp_time_machine/DaisyExamples/libDaisy/src/sys/system.h ****         }
  42:../temp_time_machine/DaisyExamples/libDaisy/src/sys/system.h **** 
  43:../temp_time_machine/DaisyExamples/libDaisy/src/sys/system.h ****         /** Method to call on the struct to set to boost mode:
  44:../temp_time_machine/DaisyExamples/libDaisy/src/sys/system.h ****          ** CPU Freq set to 480MHz
  45:../temp_time_machine/DaisyExamples/libDaisy/src/sys/system.h ****          ** Cache Enabled
  46:../temp_time_machine/DaisyExamples/libDaisy/src/sys/system.h ****          ** */
  47:../temp_time_machine/DaisyExamples/libDaisy/src/sys/system.h ****         void Boost()
  48:../temp_time_machine/DaisyExamples/libDaisy/src/sys/system.h ****         {
  49:../temp_time_machine/DaisyExamples/libDaisy/src/sys/system.h ****             cpu_freq    = SysClkFreq::FREQ_480MHZ;
  50:../temp_time_machine/DaisyExamples/libDaisy/src/sys/system.h ****             use_dcache  = true;
  51:../temp_time_machine/DaisyExamples/libDaisy/src/sys/system.h ****             use_icache  = true;
  52:../temp_time_machine/DaisyExamples/libDaisy/src/sys/system.h ****             skip_clocks = false;
  53:../temp_time_machine/DaisyExamples/libDaisy/src/sys/system.h ****         }
  54:../temp_time_machine/DaisyExamples/libDaisy/src/sys/system.h **** 
  55:../temp_time_machine/DaisyExamples/libDaisy/src/sys/system.h ****         SysClkFreq cpu_freq;
ARM GAS  /var/folders/v1/156fk8j97zv9pzndh61fy7zm0000gn/T//ccyHp6tG.s 			page 10


  56:../temp_time_machine/DaisyExamples/libDaisy/src/sys/system.h ****         bool       use_dcache;
  57:../temp_time_machine/DaisyExamples/libDaisy/src/sys/system.h ****         bool       use_icache;
  58:../temp_time_machine/DaisyExamples/libDaisy/src/sys/system.h ****         bool       skip_clocks;
  59:../temp_time_machine/DaisyExamples/libDaisy/src/sys/system.h ****     };
  60:../temp_time_machine/DaisyExamples/libDaisy/src/sys/system.h **** 
  61:../temp_time_machine/DaisyExamples/libDaisy/src/sys/system.h ****     /** Describes the different regions of memory available to the Daisy */
  62:../temp_time_machine/DaisyExamples/libDaisy/src/sys/system.h ****     enum MemoryRegion
  63:../temp_time_machine/DaisyExamples/libDaisy/src/sys/system.h ****     {
  64:../temp_time_machine/DaisyExamples/libDaisy/src/sys/system.h ****         INTERNAL_FLASH = 0,
  65:../temp_time_machine/DaisyExamples/libDaisy/src/sys/system.h ****         ITCMRAM,
  66:../temp_time_machine/DaisyExamples/libDaisy/src/sys/system.h ****         DTCMRAM,
  67:../temp_time_machine/DaisyExamples/libDaisy/src/sys/system.h ****         SRAM_D1,
  68:../temp_time_machine/DaisyExamples/libDaisy/src/sys/system.h ****         SRAM_D2,
  69:../temp_time_machine/DaisyExamples/libDaisy/src/sys/system.h ****         SRAM_D3,
  70:../temp_time_machine/DaisyExamples/libDaisy/src/sys/system.h ****         SDRAM,
  71:../temp_time_machine/DaisyExamples/libDaisy/src/sys/system.h ****         QSPI,
  72:../temp_time_machine/DaisyExamples/libDaisy/src/sys/system.h ****         INVALID_ADDRESS,
  73:../temp_time_machine/DaisyExamples/libDaisy/src/sys/system.h ****     };
  74:../temp_time_machine/DaisyExamples/libDaisy/src/sys/system.h **** 
  75:../temp_time_machine/DaisyExamples/libDaisy/src/sys/system.h ****     /** Bootloader struct for controlling bootloading parameters */
  76:../temp_time_machine/DaisyExamples/libDaisy/src/sys/system.h ****     struct BootInfo
  77:../temp_time_machine/DaisyExamples/libDaisy/src/sys/system.h ****     {
  78:../temp_time_machine/DaisyExamples/libDaisy/src/sys/system.h ****         enum class Type : uint32_t
  79:../temp_time_machine/DaisyExamples/libDaisy/src/sys/system.h ****         {
  80:../temp_time_machine/DaisyExamples/libDaisy/src/sys/system.h ****             INVALID      = 0x00000000,
  81:../temp_time_machine/DaisyExamples/libDaisy/src/sys/system.h ****             JUMP         = 0xDEADBEEF,
  82:../temp_time_machine/DaisyExamples/libDaisy/src/sys/system.h ****             SKIP_TIMEOUT = 0x5AFEB007,
  83:../temp_time_machine/DaisyExamples/libDaisy/src/sys/system.h ****             INF_TIMEOUT  = 0xB0074EFA,
  84:../temp_time_machine/DaisyExamples/libDaisy/src/sys/system.h ****         } status;
  85:../temp_time_machine/DaisyExamples/libDaisy/src/sys/system.h ****         uint32_t data;
  86:../temp_time_machine/DaisyExamples/libDaisy/src/sys/system.h ****         enum class Version : uint32_t
  87:../temp_time_machine/DaisyExamples/libDaisy/src/sys/system.h ****         {
  88:../temp_time_machine/DaisyExamples/libDaisy/src/sys/system.h ****             LT_v6_0 = 0, // Less than v6.0
  89:../temp_time_machine/DaisyExamples/libDaisy/src/sys/system.h ****             NONE,        // No bootloader present
  90:../temp_time_machine/DaisyExamples/libDaisy/src/sys/system.h ****             v6_0,        // v6.0
  91:../temp_time_machine/DaisyExamples/libDaisy/src/sys/system.h ****             v6_1,        // v6.1 or greater
  92:../temp_time_machine/DaisyExamples/libDaisy/src/sys/system.h ****             LAST
  93:../temp_time_machine/DaisyExamples/libDaisy/src/sys/system.h ****         } version;
  94:../temp_time_machine/DaisyExamples/libDaisy/src/sys/system.h ****     };
  95:../temp_time_machine/DaisyExamples/libDaisy/src/sys/system.h **** 
  96:../temp_time_machine/DaisyExamples/libDaisy/src/sys/system.h ****     System() {}
  97:../temp_time_machine/DaisyExamples/libDaisy/src/sys/system.h ****     ~System() {}
  75              		.loc 8 97 5 is_stmt 1 view .LVU13
  76              		.loc 8 97 5 is_stmt 0 view .LVU14
  77              	.LBE542:
  78              	.LBE535:
  79              		.loc 2 87 33 view .LVU15
  80 0000 7047     		bx	lr
  81              		.cfi_endproc
  82              	.LFE4937:
  84              		.weak	_ZN3oam12time_machine19TimeMachineHardwareD1Ev
  85              		.thumb_set _ZN3oam12time_machine19TimeMachineHardwareD1Ev,_ZN3oam12time_machine19TimeMachineHardwa
  86 0002 00BF     		.section	.text.__tcf_0,"ax",%progbits
  87              		.align	1
  88              		.p2align 2,,3
  89              		.syntax unified
  90              		.thumb
ARM GAS  /var/folders/v1/156fk8j97zv9pzndh61fy7zm0000gn/T//ccyHp6tG.s 			page 11


  91              		.thumb_func
  93              	__tcf_0:
  94              	.LFB5603:
   1:main.cpp      **** #include "daisysp.h"
   2:main.cpp      **** #include "legacy_engine.h"
   3:main.cpp      **** #include "omni_resonator.h"
   4:main.cpp      **** #include "time_machine_hardware.h"
   5:main.cpp      **** #include "uber_fdn.h"
   6:main.cpp      **** 
   7:main.cpp      **** using namespace daisy;
   8:main.cpp      **** using namespace daisysp;
   9:main.cpp      **** using namespace oam::time_machine;
  10:main.cpp      **** 
  11:main.cpp      **** // --- Hardware ---
  12:main.cpp      **** TimeMachineHardware hw;
  13:main.cpp      **** 
  14:main.cpp      **** // --- Memory ---
  15:main.cpp      **** // 60MB Buffer for Legacy Mode (or Shared use)
  16:main.cpp      **** // 150 seconds * 48000 * 2 channels = 14.4M samples = 57.6MB
  17:main.cpp      **** #define TOTAL_SDRAM_SAMPLES 15000000
  18:main.cpp      **** float DSY_SDRAM_BSS big_sdram_buffer[TOTAL_SDRAM_SAMPLES];
  19:main.cpp      **** 
  20:main.cpp      **** // Pointers for FDN (reusing the start of the big buffer)
  21:main.cpp      **** DelayLine<float, 240000> delay_lines[8];
  95              		.loc 1 21 26 is_stmt 1 view -0
  96              		.cfi_startproc
  97              		@ args = 0, pretend = 0, frame = 0
  98              		@ frame_needed = 0, uses_anonymous_args = 0
  99              		@ link register save eliminated.
 100              		.loc 1 21 26 is_stmt 0 view .LVU17
 101 0000 7047     		bx	lr
 102              		.cfi_endproc
 103              	.LFE5603:
 105 0002 00BF     		.section	.text._ZN7UberFDNILi8EED2Ev,"axG",%progbits,_ZN7UberFDNILi8EED5Ev,comdat
 106              		.align	1
 107              		.p2align 2,,3
 108              		.weak	_ZN7UberFDNILi8EED2Ev
 109              		.syntax unified
 110              		.thumb
 111              		.thumb_func
 113              	_ZN7UberFDNILi8EED2Ev:
 114              	.LVL1:
 115              	.LFB5605:
 116              		.file 9 "uber_fdn.h"
   1:uber_fdn.h    **** #pragma once
   2:uber_fdn.h    **** #include "daisysp.h"
   3:uber_fdn.h    **** #include <cmath>
   4:uber_fdn.h    **** 
   5:uber_fdn.h    **** using namespace daisysp;
   6:uber_fdn.h    **** 
   7:uber_fdn.h    **** // Helper Classes
   8:uber_fdn.h    **** class OmniDelay {
   9:uber_fdn.h    **** public:
  10:uber_fdn.h    ****   void Init(float *buf, int max) {
  11:uber_fdn.h    ****     buffer_ = buf;
  12:uber_fdn.h    ****     max_len_ = max;
  13:uber_fdn.h    ****     write_ptr_ = 0;
ARM GAS  /var/folders/v1/156fk8j97zv9pzndh61fy7zm0000gn/T//ccyHp6tG.s 			page 12


  14:uber_fdn.h    ****   }
  15:uber_fdn.h    ****   void Write(float sample) {
  16:uber_fdn.h    ****     buffer_[write_ptr_] = sample;
  17:uber_fdn.h    ****     write_ptr_++;
  18:uber_fdn.h    ****     if (write_ptr_ >= max_len_)
  19:uber_fdn.h    ****       write_ptr_ = 0;
  20:uber_fdn.h    ****   }
  21:uber_fdn.h    ****   float Read(float delay_samps) {
  22:uber_fdn.h    ****     // Linear Interpolation
  23:uber_fdn.h    ****     float read_pos = (float)write_ptr_ - delay_samps;
  24:uber_fdn.h    ****     while (read_pos < 0.0f)
  25:uber_fdn.h    ****       read_pos += (float)max_len_;
  26:uber_fdn.h    ****     while (read_pos >= (float)max_len_)
  27:uber_fdn.h    ****       read_pos -= (float)max_len_;
  28:uber_fdn.h    **** 
  29:uber_fdn.h    ****     int idx = (int)read_pos;
  30:uber_fdn.h    ****     float frac = read_pos - idx;
  31:uber_fdn.h    ****     int idx2 = idx + 1;
  32:uber_fdn.h    ****     if (idx2 >= max_len_)
  33:uber_fdn.h    ****       idx2 = 0;
  34:uber_fdn.h    **** 
  35:uber_fdn.h    ****     return buffer_[idx] + frac * (buffer_[idx2] - buffer_[idx]);
  36:uber_fdn.h    ****   }
  37:uber_fdn.h    **** 
  38:uber_fdn.h    **** private:
  39:uber_fdn.h    ****   float *buffer_;
  40:uber_fdn.h    ****   int max_len_;
  41:uber_fdn.h    ****   int write_ptr_;
  42:uber_fdn.h    **** };
  43:uber_fdn.h    **** 
  44:uber_fdn.h    **** class OmniAllpass {
  45:uber_fdn.h    **** public:
  46:uber_fdn.h    ****   void Init() {
  47:uber_fdn.h    ****     for (int i = 0; i < 600; i++)
  48:uber_fdn.h    ****       buffer_[i] = 0.0f;
  49:uber_fdn.h    ****     write_ptr_ = 0;
  50:uber_fdn.h    ****     delay_len_ = 100;
  51:uber_fdn.h    ****   }
  52:uber_fdn.h    ****   void SetDelay(int len) {
  53:uber_fdn.h    ****     delay_len_ = len;
  54:uber_fdn.h    ****     if (len > 599)
  55:uber_fdn.h    ****       delay_len_ = 599;
  56:uber_fdn.h    ****   }
  57:uber_fdn.h    ****   float Process(float in) {
  58:uber_fdn.h    ****     int read_ptr = write_ptr_ - delay_len_;
  59:uber_fdn.h    ****     if (read_ptr < 0)
  60:uber_fdn.h    ****       read_ptr += 600;
  61:uber_fdn.h    ****     float buf_out = buffer_[read_ptr];
  62:uber_fdn.h    ****     float out = -in + buf_out;
  63:uber_fdn.h    ****     buffer_[write_ptr_] = in + (0.5f * buf_out);
  64:uber_fdn.h    ****     write_ptr_++;
  65:uber_fdn.h    ****     if (write_ptr_ >= 600)
  66:uber_fdn.h    ****       write_ptr_ = 0;
  67:uber_fdn.h    ****     return out;
  68:uber_fdn.h    ****   }
  69:uber_fdn.h    **** 
  70:uber_fdn.h    **** private:
ARM GAS  /var/folders/v1/156fk8j97zv9pzndh61fy7zm0000gn/T//ccyHp6tG.s 			page 13


  71:uber_fdn.h    ****   float buffer_[600];
  72:uber_fdn.h    ****   int write_ptr_;
  73:uber_fdn.h    ****   int delay_len_;
  74:uber_fdn.h    **** };
  75:uber_fdn.h    **** 
  76:uber_fdn.h    **** class OmniOnePole {
  77:uber_fdn.h    **** public:
  78:uber_fdn.h    ****   void Init() {
  79:uber_fdn.h    ****     out_ = 0.0f;
  80:uber_fdn.h    ****     SetFreq(6000.0f);
  81:uber_fdn.h    ****   }
  82:uber_fdn.h    ****   void SetFreq(float freq) {
  83:uber_fdn.h    ****     float b1 = expf(-2.0f * 3.1415927f * freq / 48000.0f);
  84:uber_fdn.h    ****     b1_ = b1;
  85:uber_fdn.h    ****     a0_ = 1.0f - b1;
  86:uber_fdn.h    ****   }
  87:uber_fdn.h    ****   float Process(float in) {
  88:uber_fdn.h    ****     out_ = (in * a0_) + (out_ * b1_);
  89:uber_fdn.h    ****     return out_;
  90:uber_fdn.h    ****   }
  91:uber_fdn.h    **** 
  92:uber_fdn.h    **** private:
  93:uber_fdn.h    ****   float a0_, b1_, out_;
  94:uber_fdn.h    **** };
  95:uber_fdn.h    **** 
  96:uber_fdn.h    **** enum FdnMode { MODE_STUDIO, MODE_SHIMMER, MODE_MASSIVE };
  97:uber_fdn.h    **** 
  98:uber_fdn.h    **** template <int N_LINES = 8> class UberFDN {
 117              		.loc 9 98 34 is_stmt 1 view -0
 118              		.cfi_startproc
 119              		@ args = 0, pretend = 0, frame = 0
 120              		@ frame_needed = 0, uses_anonymous_args = 0
 121              		@ link register save eliminated.
 122              		.loc 9 98 34 is_stmt 0 view .LVU19
 123 0000 7047     		bx	lr
 124              		.cfi_endproc
 125              	.LFE5605:
 127              		.weak	_ZN7UberFDNILi8EED1Ev
 128              		.thumb_set _ZN7UberFDNILi8EED1Ev,_ZN7UberFDNILi8EED2Ev
 129 0002 00BF     		.section	.text._ZN19OmniResonatorEngineD2Ev,"axG",%progbits,_ZN19OmniResonatorEngineD5Ev,comdat
 130              		.align	1
 131              		.p2align 2,,3
 132              		.weak	_ZN19OmniResonatorEngineD2Ev
 133              		.syntax unified
 134              		.thumb
 135              		.thumb_func
 137              	_ZN19OmniResonatorEngineD2Ev:
 138              	.LVL2:
 139              	.LFB5608:
 140              		.file 10 "omni_resonator.h"
   1:omni_resonator.h **** #pragma once
   2:omni_resonator.h **** #include "daisysp.h"
   3:omni_resonator.h **** #include <cmath>
   4:omni_resonator.h **** 
   5:omni_resonator.h **** using namespace daisysp;
   6:omni_resonator.h **** 
   7:omni_resonator.h **** class OmniResonatorVoice {
ARM GAS  /var/folders/v1/156fk8j97zv9pzndh61fy7zm0000gn/T//ccyHp6tG.s 			page 14


   8:omni_resonator.h **** public:
   9:omni_resonator.h ****   void Init(float sr) {
  10:omni_resonator.h ****     sr_ = sr;
  11:omni_resonator.h ****     svf_.Init(sr);
  12:omni_resonator.h ****     freq_ = 440.0f;
  13:omni_resonator.h ****     res_ = 0.5f;
  14:omni_resonator.h ****   }
  15:omni_resonator.h **** 
  16:omni_resonator.h ****   float Process(float in) {
  17:omni_resonator.h ****     svf_.SetFreq(freq_);
  18:omni_resonator.h ****     svf_.SetRes(res_);
  19:omni_resonator.h ****     svf_.Process(in);
  20:omni_resonator.h ****     return svf_.Band();
  21:omni_resonator.h ****   }
  22:omni_resonator.h ****   void SetFreq(float f) { freq_ = f; }
  23:omni_resonator.h ****   void SetRes(float r) { res_ = r; }
  24:omni_resonator.h **** 
  25:omni_resonator.h **** private:
  26:omni_resonator.h ****   float sr_, freq_, res_;
  27:omni_resonator.h ****   Svf svf_;
  28:omni_resonator.h **** };
  29:omni_resonator.h **** 
  30:omni_resonator.h **** class OmniResonatorEngine {
 141              		.loc 10 30 7 is_stmt 1 view -0
 142              		.cfi_startproc
 143              		@ args = 0, pretend = 0, frame = 0
 144              		@ frame_needed = 0, uses_anonymous_args = 0
 145              		@ link register save eliminated.
 146              		.loc 10 30 7 is_stmt 0 view .LVU21
 147 0000 7047     		bx	lr
 148              		.cfi_endproc
 149              	.LFE5608:
 151              		.weak	_ZN19OmniResonatorEngineD1Ev
 152              		.thumb_set _ZN19OmniResonatorEngineD1Ev,_ZN19OmniResonatorEngineD2Ev
 153 0002 00BF     		.section	.text._ZN3oam6legacy18LegacyStereoEngineD2Ev,"axG",%progbits,_ZN3oam6legacy18LegacyStereo
 154              		.align	1
 155              		.p2align 2,,3
 156              		.weak	_ZN3oam6legacy18LegacyStereoEngineD2Ev
 157              		.syntax unified
 158              		.thumb
 159              		.thumb_func
 161              	_ZN3oam6legacy18LegacyStereoEngineD2Ev:
 162              	.LVL3:
 163              	.LFB5611:
 164              		.file 11 "legacy_engine.h"
   1:legacy_engine.h **** #pragma once
   2:legacy_engine.h **** #include "daisysp.h"
   3:legacy_engine.h **** #include <algorithm>
   4:legacy_engine.h **** #include <cmath>
   5:legacy_engine.h **** 
   6:legacy_engine.h **** namespace oam {
   7:legacy_engine.h **** namespace legacy {
   8:legacy_engine.h **** 
   9:legacy_engine.h **** inline float clamp(float x, float a, float b) {
  10:legacy_engine.h ****   return std::max(a, std::min(b, x));
  11:legacy_engine.h **** }
  12:legacy_engine.h **** 
ARM GAS  /var/folders/v1/156fk8j97zv9pzndh61fy7zm0000gn/T//ccyHp6tG.s 			page 15


  13:legacy_engine.h **** inline float s_mix(float x, float a, float b) { return x * (1 - x) + b * x; }
  14:legacy_engine.h **** 
  15:legacy_engine.h **** // --- Helpers from dsp.h ---
  16:legacy_engine.h **** // (Assuming standard math usage).
  17:legacy_engine.h **** 
  18:legacy_engine.h **** struct LegacyHelpers {
  19:legacy_engine.h ****   static float softClip(float x, float kneeStart = 0.9f,
  20:legacy_engine.h ****                         float kneeCurve = 5.0f) {
  21:legacy_engine.h ****     float linPart = clamp(x, -kneeStart, kneeStart);
  22:legacy_engine.h ****     float clipPart = x - linPart;
  23:legacy_engine.h ****     clipPart = atanf(clipPart * kneeCurve) / kneeCurve;
  24:legacy_engine.h ****     return linPart + clipPart;
  25:legacy_engine.h ****   }
  26:legacy_engine.h **** 
  27:legacy_engine.h ****   static float spread(float x, float s, float e = 2.5f) {
  28:legacy_engine.h ****     s = clamp(s, 0.0f, 1.0f);
  29:legacy_engine.h ****     if (s > 0.5f) {
  30:legacy_engine.h ****       s = (s - 0.5f) * 2.0f;
  31:legacy_engine.h ****       s = s * e + 1.0f;
  32:legacy_engine.h ****       return 1.0f - powf(1.0f - x, s);
  33:legacy_engine.h ****     } else if (s < 0.5f) {
  34:legacy_engine.h ****       s = 1.0f - (s * 2.0f);
  35:legacy_engine.h ****       s = s * e + 1.0f;
  36:legacy_engine.h ****       return powf(x, s);
  37:legacy_engine.h ****     } else {
  38:legacy_engine.h ****       return x;
  39:legacy_engine.h ****     }
  40:legacy_engine.h ****   }
  41:legacy_engine.h **** 
  42:legacy_engine.h ****   static float minMaxSlider(float in, float dz = 0.002f) {
  43:legacy_engine.h ****     in = in - dz * 0.5f;
  44:legacy_engine.h ****     in = in * (1.0f + dz);
  45:legacy_engine.h ****     return std::min(1.0f, std::max(0.0f, in));
  46:legacy_engine.h ****   }
  47:legacy_engine.h **** 
  48:legacy_engine.h ****   static int seconds_to_samples(float x, float sr) { return (int)(x * sr); }
  49:legacy_engine.h ****   static int wrap_buffer_index(int x, int size) {
  50:legacy_engine.h ****     while (x >= size)
  51:legacy_engine.h ****       x -= size;
  52:legacy_engine.h ****     while (x < 0)
  53:legacy_engine.h ****       x += size;
  54:legacy_engine.h ****     return x;
  55:legacy_engine.h ****   }
  56:legacy_engine.h **** };
  57:legacy_engine.h **** 
  58:legacy_engine.h **** class Slew {
  59:legacy_engine.h **** public:
  60:legacy_engine.h ****   float lastVal = 0.0f;
  61:legacy_engine.h ****   float coef = 0.001f;
  62:legacy_engine.h ****   void Init(float c = 0.001f) { coef = c; }
  63:legacy_engine.h ****   float Process(float x) {
  64:legacy_engine.h ****     lastVal = lastVal + (x - lastVal) * coef;
  65:legacy_engine.h ****     return lastVal;
  66:legacy_engine.h ****   }
  67:legacy_engine.h **** };
  68:legacy_engine.h **** 
  69:legacy_engine.h **** class Limiter {
ARM GAS  /var/folders/v1/156fk8j97zv9pzndh61fy7zm0000gn/T//ccyHp6tG.s 			page 16


  70:legacy_engine.h **** public:
  71:legacy_engine.h ****   float gainCoef;
  72:legacy_engine.h ****   float releaseCoef;
  73:legacy_engine.h ****   void Init(float sampleRate) {
  74:legacy_engine.h ****     gainCoef = 1.0f;
  75:legacy_engine.h ****     releaseCoef = 16.0f / sampleRate;
  76:legacy_engine.h ****   }
  77:legacy_engine.h ****   float Process(float in) {
  78:legacy_engine.h ****     float targetGainCoef = 1.0f / std::max(fabsf(in), 1.0f);
  79:legacy_engine.h ****     if (targetGainCoef < gainCoef) {
  80:legacy_engine.h ****       gainCoef = targetGainCoef;
  81:legacy_engine.h ****     } else {
  82:legacy_engine.h ****       gainCoef = gainCoef * (1.0f - releaseCoef) + targetGainCoef * releaseCoef;
  83:legacy_engine.h ****     }
  84:legacy_engine.h ****     return in * gainCoef;
  85:legacy_engine.h ****   }
  86:legacy_engine.h **** };
  87:legacy_engine.h **** 
  88:legacy_engine.h **** class LoudnessDetector {
  89:legacy_engine.h **** public:
  90:legacy_engine.h ****   Slew slew;
  91:legacy_engine.h ****   float lastVal = 0;
  92:legacy_engine.h ****   void Init() { slew.Init(); }
  93:legacy_engine.h ****   float Get() { return this->lastVal; }
  94:legacy_engine.h ****   float Process(float x) {
  95:legacy_engine.h ****     lastVal = slew.Process(fabsf(x));
  96:legacy_engine.h ****     return x;
  97:legacy_engine.h ****   }
  98:legacy_engine.h **** };
  99:legacy_engine.h **** 
 100:legacy_engine.h **** class ReadHead {
 101:legacy_engine.h **** public:
 102:legacy_engine.h ****   LoudnessDetector loudness;
 103:legacy_engine.h ****   float *buffer;
 104:legacy_engine.h ****   int bufferSize;
 105:legacy_engine.h ****   float delayA = 0.0f, delayB = 0.0f, targetDelay = -1.0f;
 106:legacy_engine.h ****   float ampA = 0.0f, ampB = 0.0f, targetAmp = -1.0f;
 107:legacy_engine.h ****   float sampleRate;
 108:legacy_engine.h ****   float phase = 1.0f;
 109:legacy_engine.h ****   float delta;
 110:legacy_engine.h ****   float blurAmount;
 111:legacy_engine.h **** 
 112:legacy_engine.h ****   void Init(float sr, float *buf, int size) {
 113:legacy_engine.h ****     sampleRate = sr;
 114:legacy_engine.h ****     delta = 5.0f / sr;
 115:legacy_engine.h ****     buffer = buf;
 116:legacy_engine.h ****     bufferSize = size;
 117:legacy_engine.h ****     blurAmount = 0.0f;
 118:legacy_engine.h ****     loudness.Init();
 119:legacy_engine.h ****   }
 120:legacy_engine.h **** 
 121:legacy_engine.h ****   void Set(float delay, float amp, float blur = 0) {
 122:legacy_engine.h ****     targetDelay = delay;
 123:legacy_engine.h ****     targetAmp = amp;
 124:legacy_engine.h ****     blurAmount = blur;
 125:legacy_engine.h ****   }
 126:legacy_engine.h **** 
ARM GAS  /var/folders/v1/156fk8j97zv9pzndh61fy7zm0000gn/T//ccyHp6tG.s 			page 17


 127:legacy_engine.h ****   float Process(float writeHeadPosition) {
 128:legacy_engine.h ****     if (phase >= 1.0f && (targetDelay >= 0.0f || targetAmp >= 0.0f)) {
 129:legacy_engine.h ****       if (targetDelay >= 0.0f) {
 130:legacy_engine.h ****         delayA = delayB;
 131:legacy_engine.h ****         delayB = targetDelay;
 132:legacy_engine.h ****         targetDelay = -1.0f;
 133:legacy_engine.h ****       }
 134:legacy_engine.h ****       if (targetAmp >= 0.0f) {
 135:legacy_engine.h ****         ampA = ampB;
 136:legacy_engine.h ****         ampB = targetAmp;
 137:legacy_engine.h ****         targetAmp = -1.0f;
 138:legacy_engine.h ****       }
 139:legacy_engine.h ****       phase = 0.0f;
 140:legacy_engine.h ****       // Simple random for blur
 141:legacy_engine.h ****       float r = ((float)rand() / (float)RAND_MAX) * 2.0f - 1.0f;
 142:legacy_engine.h ****       delta = (5.0f + (r * blurAmount)) / sampleRate;
 143:legacy_engine.h ****     }
 144:legacy_engine.h **** 
 145:legacy_engine.h ****     int idxA = LegacyHelpers::wrap_buffer_index(
 146:legacy_engine.h ****         writeHeadPosition -
 147:legacy_engine.h ****             LegacyHelpers::seconds_to_samples(delayA, sampleRate),
 148:legacy_engine.h ****         bufferSize);
 149:legacy_engine.h ****     int idxB = LegacyHelpers::wrap_buffer_index(
 150:legacy_engine.h ****         writeHeadPosition -
 151:legacy_engine.h ****             LegacyHelpers::seconds_to_samples(delayB, sampleRate),
 152:legacy_engine.h ****         bufferSize);
 153:legacy_engine.h **** 
 154:legacy_engine.h ****     float outA = buffer[idxA];
 155:legacy_engine.h ****     float outB = buffer[idxB];
 156:legacy_engine.h **** 
 157:legacy_engine.h ****     float output = ((1.0f - phase) * outA) + (phase * outB);
 158:legacy_engine.h ****     float outputAmp = ((1.0f - phase) * ampA) + (phase * ampB);
 159:legacy_engine.h **** 
 160:legacy_engine.h ****     phase = phase <= 1.0f ? phase + delta : 1.0f;
 161:legacy_engine.h ****     return loudness.Process(output) * outputAmp;
 162:legacy_engine.h ****   }
 163:legacy_engine.h **** };
 164:legacy_engine.h **** 
 165:legacy_engine.h **** class LegacyMonoEngine {
 166:legacy_engine.h **** public:
 167:legacy_engine.h ****   ReadHead readHeads[8];
 168:legacy_engine.h ****   LoudnessDetector loudness;
 169:legacy_engine.h ****   float sampleRate;
 170:legacy_engine.h ****   float *buffer;
 171:legacy_engine.h ****   int bufferSize;
 172:legacy_engine.h ****   int writeHeadPosition;
 173:legacy_engine.h ****   float dryAmp, feedback, blur;
 174:legacy_engine.h **** 
 175:legacy_engine.h ****   Slew dryAmpSlew, feedbackSlew, ampCoefSlew;
 176:legacy_engine.h ****   Limiter outputLimiter, feedbackLimiter;
 177:legacy_engine.h ****   daisysp::Compressor compressor;
 178:legacy_engine.h ****   // Skipping DC Blocker for simplicity/size, compressor handles dynamics
 179:legacy_engine.h **** 
 180:legacy_engine.h ****   void Init(float sr, float maxDelay, float *buf) {
 181:legacy_engine.h ****     sampleRate = sr;
 182:legacy_engine.h ****     bufferSize = LegacyHelpers::seconds_to_samples(maxDelay, sr);
 183:legacy_engine.h ****     buffer = buf;
ARM GAS  /var/folders/v1/156fk8j97zv9pzndh61fy7zm0000gn/T//ccyHp6tG.s 			page 18


 184:legacy_engine.h ****     for (int i = 0; i < bufferSize; i++)
 185:legacy_engine.h ****       buffer[i] = 0.0f;
 186:legacy_engine.h ****     for (int i = 0; i < 8; i++)
 187:legacy_engine.h ****       readHeads[i].Init(sr, buffer, bufferSize);
 188:legacy_engine.h ****     writeHeadPosition = 0;
 189:legacy_engine.h **** 
 190:legacy_engine.h ****     dryAmpSlew.Init();
 191:legacy_engine.h ****     feedbackSlew.Init(0.01f);
 192:legacy_engine.h ****     ampCoefSlew.Init(0.0001f);
 193:legacy_engine.h ****     outputLimiter.Init(sr);
 194:legacy_engine.h ****     feedbackLimiter.Init(sr);
 195:legacy_engine.h ****     loudness.Init();
 196:legacy_engine.h **** 
 197:legacy_engine.h ****     compressor.Init(sr);
 198:legacy_engine.h ****     compressor.SetAttack(0.02f);
 199:legacy_engine.h ****     compressor.SetRelease(0.2f);
 200:legacy_engine.h ****     compressor.SetRatio(5.0f);
 201:legacy_engine.h ****     compressor.SetThreshold(0.0f); // 0dB? Original was 0.0.
 202:legacy_engine.h ****   }
 203:legacy_engine.h **** 
 204:legacy_engine.h ****   void Set(float d, float f, float b) {
 205:legacy_engine.h ****     dryAmp = d;
 206:legacy_engine.h ****     feedback = f;
 207:legacy_engine.h ****     blur = b;
 208:legacy_engine.h ****   }
 209:legacy_engine.h **** 
 210:legacy_engine.h ****   float Process(float in) {
 211:legacy_engine.h ****     float out = 0.0f;
 212:legacy_engine.h ****     float ampCoef = 0.0f;
 213:legacy_engine.h ****     for (int i = 0; i < 8; i++) {
 214:legacy_engine.h ****       // Approximate targetAmp access
 215:legacy_engine.h ****       ampCoef += readHeads[i].ampB; // close enough
 216:legacy_engine.h ****     }
 217:legacy_engine.h ****     ampCoef = ampCoefSlew.Process(1.0f / std::max(1.0f, ampCoef));
 218:legacy_engine.h **** 
 219:legacy_engine.h ****     buffer[writeHeadPosition] = loudness.Process(in);
 220:legacy_engine.h **** 
 221:legacy_engine.h ****     for (int i = 0; i < 8; i++)
 222:legacy_engine.h ****       out += readHeads[i].Process((float)writeHeadPosition);
 223:legacy_engine.h **** 
 224:legacy_engine.h ****     // Compressor sidechaining to input?
 225:legacy_engine.h ****     out = compressor.Process(out, buffer[writeHeadPosition] + out);
 226:legacy_engine.h **** 
 227:legacy_engine.h ****     float fb_val = buffer[writeHeadPosition] +
 228:legacy_engine.h ****                    (out * feedbackSlew.Process(feedback) * ampCoef);
 229:legacy_engine.h ****     buffer[writeHeadPosition] = -feedbackLimiter.Process(fb_val);
 230:legacy_engine.h **** 
 231:legacy_engine.h ****     float final_out =
 232:legacy_engine.h ****         outputLimiter.Process(out + in * dryAmpSlew.Process(dryAmp));
 233:legacy_engine.h **** 
 234:legacy_engine.h ****     writeHeadPosition++;
 235:legacy_engine.h ****     if (writeHeadPosition >= bufferSize)
 236:legacy_engine.h ****       writeHeadPosition = 0;
 237:legacy_engine.h **** 
 238:legacy_engine.h ****     return final_out;
 239:legacy_engine.h ****   }
 240:legacy_engine.h **** };
ARM GAS  /var/folders/v1/156fk8j97zv9pzndh61fy7zm0000gn/T//ccyHp6tG.s 			page 19


 241:legacy_engine.h **** 
 242:legacy_engine.h **** class LegacyStereoEngine {
 165              		.loc 11 242 7 is_stmt 1 view -0
 166              		.cfi_startproc
 167              		@ args = 0, pretend = 0, frame = 0
 168              		@ frame_needed = 0, uses_anonymous_args = 0
 169              		@ link register save eliminated.
 170              	.LBB543:
 171              	.LBB544:
 172              	.LBI544:
 165:legacy_engine.h **** public:
 173              		.loc 11 165 7 view .LVU23
 174              	.LBB545:
 175              	.LBI545:
 176              		.file 12 "../temp_time_machine/DaisyExamples/DaisySP//DaisySP-LGPL/Source/Dynamics/compressor.h"
   1:../temp_time_machine/DaisyExamples/DaisySP//DaisySP-LGPL/Source/Dynamics/compressor.h **** /*
   2:../temp_time_machine/DaisyExamples/DaisySP//DaisySP-LGPL/Source/Dynamics/compressor.h **** Copyright (c) 2023 Electrosmith, Corp, GRAME, Centre National de Creation Musicale.
   3:../temp_time_machine/DaisyExamples/DaisySP//DaisySP-LGPL/Source/Dynamics/compressor.h **** 
   4:../temp_time_machine/DaisyExamples/DaisySP//DaisySP-LGPL/Source/Dynamics/compressor.h **** Use of this source code is governed by the LGPL V2.1
   5:../temp_time_machine/DaisyExamples/DaisySP//DaisySP-LGPL/Source/Dynamics/compressor.h **** license that can be found in the LICENSE file or at
   6:../temp_time_machine/DaisyExamples/DaisySP//DaisySP-LGPL/Source/Dynamics/compressor.h **** https://opensource.org/license/lgpl-2-1/
   7:../temp_time_machine/DaisyExamples/DaisySP//DaisySP-LGPL/Source/Dynamics/compressor.h **** */
   8:../temp_time_machine/DaisyExamples/DaisySP//DaisySP-LGPL/Source/Dynamics/compressor.h **** 
   9:../temp_time_machine/DaisyExamples/DaisySP//DaisySP-LGPL/Source/Dynamics/compressor.h **** #pragma once
  10:../temp_time_machine/DaisyExamples/DaisySP//DaisySP-LGPL/Source/Dynamics/compressor.h **** #ifndef DSY_COMPRESSOR_H
  11:../temp_time_machine/DaisyExamples/DaisySP//DaisySP-LGPL/Source/Dynamics/compressor.h **** #define DSY_COMPRESSOR_H
  12:../temp_time_machine/DaisyExamples/DaisySP//DaisySP-LGPL/Source/Dynamics/compressor.h **** 
  13:../temp_time_machine/DaisyExamples/DaisySP//DaisySP-LGPL/Source/Dynamics/compressor.h **** #include "Utility/dsp.h"
  14:../temp_time_machine/DaisyExamples/DaisySP//DaisySP-LGPL/Source/Dynamics/compressor.h **** 
  15:../temp_time_machine/DaisyExamples/DaisySP//DaisySP-LGPL/Source/Dynamics/compressor.h **** namespace daisysp
  16:../temp_time_machine/DaisyExamples/DaisySP//DaisySP-LGPL/Source/Dynamics/compressor.h **** {
  17:../temp_time_machine/DaisyExamples/DaisySP//DaisySP-LGPL/Source/Dynamics/compressor.h **** /** dynamics compressor
  18:../temp_time_machine/DaisyExamples/DaisySP//DaisySP-LGPL/Source/Dynamics/compressor.h **** 
  19:../temp_time_machine/DaisyExamples/DaisySP//DaisySP-LGPL/Source/Dynamics/compressor.h **** influenced by compressor in soundpipe (from faust).
  20:../temp_time_machine/DaisyExamples/DaisySP//DaisySP-LGPL/Source/Dynamics/compressor.h **** 
  21:../temp_time_machine/DaisyExamples/DaisySP//DaisySP-LGPL/Source/Dynamics/compressor.h **** Modifications made to do:
  22:../temp_time_machine/DaisyExamples/DaisySP//DaisySP-LGPL/Source/Dynamics/compressor.h **** - Less calculations during each process loop (coefficients recalculated on parameter change).
  23:../temp_time_machine/DaisyExamples/DaisySP//DaisySP-LGPL/Source/Dynamics/compressor.h **** - C++-ified
  24:../temp_time_machine/DaisyExamples/DaisySP//DaisySP-LGPL/Source/Dynamics/compressor.h **** - added sidechain support
  25:../temp_time_machine/DaisyExamples/DaisySP//DaisySP-LGPL/Source/Dynamics/compressor.h **** - pulled gain apart for monitoring and multichannel support
  26:../temp_time_machine/DaisyExamples/DaisySP//DaisySP-LGPL/Source/Dynamics/compressor.h **** - improved readability
  27:../temp_time_machine/DaisyExamples/DaisySP//DaisySP-LGPL/Source/Dynamics/compressor.h **** - improved makeup-gain calculations
  28:../temp_time_machine/DaisyExamples/DaisySP//DaisySP-LGPL/Source/Dynamics/compressor.h **** - changing controls now costs a lot less
  29:../temp_time_machine/DaisyExamples/DaisySP//DaisySP-LGPL/Source/Dynamics/compressor.h **** - a lot less expensive
  30:../temp_time_machine/DaisyExamples/DaisySP//DaisySP-LGPL/Source/Dynamics/compressor.h **** 
  31:../temp_time_machine/DaisyExamples/DaisySP//DaisySP-LGPL/Source/Dynamics/compressor.h **** by: shensley, improved upon by AvAars
  32:../temp_time_machine/DaisyExamples/DaisySP//DaisySP-LGPL/Source/Dynamics/compressor.h **** \todo Add soft/hard knee settings
  33:../temp_time_machine/DaisyExamples/DaisySP//DaisySP-LGPL/Source/Dynamics/compressor.h **** */
  34:../temp_time_machine/DaisyExamples/DaisySP//DaisySP-LGPL/Source/Dynamics/compressor.h **** class Compressor
  35:../temp_time_machine/DaisyExamples/DaisySP//DaisySP-LGPL/Source/Dynamics/compressor.h **** {
  36:../temp_time_machine/DaisyExamples/DaisySP//DaisySP-LGPL/Source/Dynamics/compressor.h ****   public:
  37:../temp_time_machine/DaisyExamples/DaisySP//DaisySP-LGPL/Source/Dynamics/compressor.h ****     Compressor() {}
  38:../temp_time_machine/DaisyExamples/DaisySP//DaisySP-LGPL/Source/Dynamics/compressor.h ****     ~Compressor() {}
 177              		.loc 12 38 5 view .LVU24
 178              		.loc 12 38 5 is_stmt 0 view .LVU25
 179              	.LBE545:
 180              	.LBE544:
ARM GAS  /var/folders/v1/156fk8j97zv9pzndh61fy7zm0000gn/T//ccyHp6tG.s 			page 20


 181              	.LBB546:
 182              	.LBI546:
 165:legacy_engine.h **** public:
 183              		.loc 11 165 7 is_stmt 1 view .LVU26
 184              	.LBB547:
 185              	.LBI547:
 186              		.loc 12 38 5 view .LVU27
 187              		.loc 12 38 5 is_stmt 0 view .LVU28
 188              	.LBE547:
 189              	.LBE546:
 190              	.LBE543:
 191              		.loc 11 242 7 view .LVU29
 192 0000 7047     		bx	lr
 193              		.cfi_endproc
 194              	.LFE5611:
 196              		.weak	_ZN3oam6legacy18LegacyStereoEngineD1Ev
 197              		.thumb_set _ZN3oam6legacy18LegacyStereoEngineD1Ev,_ZN3oam6legacy18LegacyStereoEngineD2Ev
 198 0002 00BF     		.section	.text._ZN7daisysp12PitchShifter7ProcessERf,"axG",%progbits,_ZN7daisysp12PitchShifter7Proc
 199              		.align	1
 200              		.p2align 2,,3
 201              		.weak	_ZN7daisysp12PitchShifter7ProcessERf
 202              		.syntax unified
 203              		.thumb
 204              		.thumb_func
 206              	_ZN7daisysp12PitchShifter7ProcessERf:
 207              	.LVL4:
 208              	.LFB3061:
 209              		.file 13 "../temp_time_machine/DaisyExamples/DaisySP//Source/Effects/pitchshifter.h"
   1:../temp_time_machine/DaisyExamples/DaisySP//Source/Effects/pitchshifter.h **** /*
   2:../temp_time_machine/DaisyExamples/DaisySP//Source/Effects/pitchshifter.h **** Copyright (c) 2020 Electrosmith, Corp
   3:../temp_time_machine/DaisyExamples/DaisySP//Source/Effects/pitchshifter.h **** 
   4:../temp_time_machine/DaisyExamples/DaisySP//Source/Effects/pitchshifter.h **** Use of this source code is governed by an MIT-style
   5:../temp_time_machine/DaisyExamples/DaisySP//Source/Effects/pitchshifter.h **** license that can be found in the LICENSE file or at
   6:../temp_time_machine/DaisyExamples/DaisySP//Source/Effects/pitchshifter.h **** https://opensource.org/licenses/MIT.
   7:../temp_time_machine/DaisyExamples/DaisySP//Source/Effects/pitchshifter.h **** */
   8:../temp_time_machine/DaisyExamples/DaisySP//Source/Effects/pitchshifter.h **** 
   9:../temp_time_machine/DaisyExamples/DaisySP//Source/Effects/pitchshifter.h **** #pragma once
  10:../temp_time_machine/DaisyExamples/DaisySP//Source/Effects/pitchshifter.h **** #ifndef DSY_PITCHSHIFTER_H
  11:../temp_time_machine/DaisyExamples/DaisySP//Source/Effects/pitchshifter.h **** #define DSY_PITCHSHIFTER_H
  12:../temp_time_machine/DaisyExamples/DaisySP//Source/Effects/pitchshifter.h **** #include <stdint.h>
  13:../temp_time_machine/DaisyExamples/DaisySP//Source/Effects/pitchshifter.h **** #include <cmath>
  14:../temp_time_machine/DaisyExamples/DaisySP//Source/Effects/pitchshifter.h **** #ifdef USE_ARM_DSP
  15:../temp_time_machine/DaisyExamples/DaisySP//Source/Effects/pitchshifter.h **** #include "arm_math.h"
  16:../temp_time_machine/DaisyExamples/DaisySP//Source/Effects/pitchshifter.h **** #endif
  17:../temp_time_machine/DaisyExamples/DaisySP//Source/Effects/pitchshifter.h **** #include "Utility/dsp.h"
  18:../temp_time_machine/DaisyExamples/DaisySP//Source/Effects/pitchshifter.h **** #include "Utility/delayline.h"
  19:../temp_time_machine/DaisyExamples/DaisySP//Source/Effects/pitchshifter.h **** #include "Control/phasor.h"
  20:../temp_time_machine/DaisyExamples/DaisySP//Source/Effects/pitchshifter.h **** 
  21:../temp_time_machine/DaisyExamples/DaisySP//Source/Effects/pitchshifter.h **** /** Shift can be 30-100 ms lets just start with 50 for now.
  22:../temp_time_machine/DaisyExamples/DaisySP//Source/Effects/pitchshifter.h **** 0.050 * SR = 2400 samples (at 48kHz)
  23:../temp_time_machine/DaisyExamples/DaisySP//Source/Effects/pitchshifter.h **** */
  24:../temp_time_machine/DaisyExamples/DaisySP//Source/Effects/pitchshifter.h **** #define SHIFT_BUFFER_SIZE 16384
  25:../temp_time_machine/DaisyExamples/DaisySP//Source/Effects/pitchshifter.h **** //#define SHIFT_BUFFER_SIZE 4800
  26:../temp_time_machine/DaisyExamples/DaisySP//Source/Effects/pitchshifter.h **** //#define SHIFT_BUFFER_SIZE 8192
  27:../temp_time_machine/DaisyExamples/DaisySP//Source/Effects/pitchshifter.h **** //#define SHIFT_BUFFER_SIZE 1024
  28:../temp_time_machine/DaisyExamples/DaisySP//Source/Effects/pitchshifter.h **** 
  29:../temp_time_machine/DaisyExamples/DaisySP//Source/Effects/pitchshifter.h **** namespace daisysp
ARM GAS  /var/folders/v1/156fk8j97zv9pzndh61fy7zm0000gn/T//ccyHp6tG.s 			page 21


  30:../temp_time_machine/DaisyExamples/DaisySP//Source/Effects/pitchshifter.h **** {
  31:../temp_time_machine/DaisyExamples/DaisySP//Source/Effects/pitchshifter.h **** static inline uint32_t hash_xs32(uint32_t x)
  32:../temp_time_machine/DaisyExamples/DaisySP//Source/Effects/pitchshifter.h **** {
  33:../temp_time_machine/DaisyExamples/DaisySP//Source/Effects/pitchshifter.h ****     x ^= x << 13;
  34:../temp_time_machine/DaisyExamples/DaisySP//Source/Effects/pitchshifter.h ****     x ^= x >> 17;
  35:../temp_time_machine/DaisyExamples/DaisySP//Source/Effects/pitchshifter.h ****     x ^= x << 5;
  36:../temp_time_machine/DaisyExamples/DaisySP//Source/Effects/pitchshifter.h ****     return x;
  37:../temp_time_machine/DaisyExamples/DaisySP//Source/Effects/pitchshifter.h **** }
  38:../temp_time_machine/DaisyExamples/DaisySP//Source/Effects/pitchshifter.h **** 
  39:../temp_time_machine/DaisyExamples/DaisySP//Source/Effects/pitchshifter.h **** inline uint32_t myrand()
  40:../temp_time_machine/DaisyExamples/DaisySP//Source/Effects/pitchshifter.h **** {
  41:../temp_time_machine/DaisyExamples/DaisySP//Source/Effects/pitchshifter.h ****     static uint32_t seed = 1;
  42:../temp_time_machine/DaisyExamples/DaisySP//Source/Effects/pitchshifter.h ****     seed                 = hash_xs32(seed);
  43:../temp_time_machine/DaisyExamples/DaisySP//Source/Effects/pitchshifter.h ****     return seed;
  44:../temp_time_machine/DaisyExamples/DaisySP//Source/Effects/pitchshifter.h **** }
  45:../temp_time_machine/DaisyExamples/DaisySP//Source/Effects/pitchshifter.h **** 
  46:../temp_time_machine/DaisyExamples/DaisySP//Source/Effects/pitchshifter.h **** /**  time-domain pitchshifter
  47:../temp_time_machine/DaisyExamples/DaisySP//Source/Effects/pitchshifter.h **** 
  48:../temp_time_machine/DaisyExamples/DaisySP//Source/Effects/pitchshifter.h **** Author: shensley
  49:../temp_time_machine/DaisyExamples/DaisySP//Source/Effects/pitchshifter.h **** 
  50:../temp_time_machine/DaisyExamples/DaisySP//Source/Effects/pitchshifter.h **** Based on "Pitch Shifting" from ucsd.edu 
  51:../temp_time_machine/DaisyExamples/DaisySP//Source/Effects/pitchshifter.h **** 
  52:../temp_time_machine/DaisyExamples/DaisySP//Source/Effects/pitchshifter.h **** t = 1 - ((s *f) / R)
  53:../temp_time_machine/DaisyExamples/DaisySP//Source/Effects/pitchshifter.h **** 
  54:../temp_time_machine/DaisyExamples/DaisySP//Source/Effects/pitchshifter.h **** where:
  55:../temp_time_machine/DaisyExamples/DaisySP//Source/Effects/pitchshifter.h ****     s is the size of the delay
  56:../temp_time_machine/DaisyExamples/DaisySP//Source/Effects/pitchshifter.h ****     f is the frequency of the lfo
  57:../temp_time_machine/DaisyExamples/DaisySP//Source/Effects/pitchshifter.h ****     r is the sample_rate
  58:../temp_time_machine/DaisyExamples/DaisySP//Source/Effects/pitchshifter.h **** 
  59:../temp_time_machine/DaisyExamples/DaisySP//Source/Effects/pitchshifter.h **** solving for t = 12.0
  60:../temp_time_machine/DaisyExamples/DaisySP//Source/Effects/pitchshifter.h **** f = (12 - 1) * 48000 / SHIFT_BUFFER_SIZE;
  61:../temp_time_machine/DaisyExamples/DaisySP//Source/Effects/pitchshifter.h **** 
  62:../temp_time_machine/DaisyExamples/DaisySP//Source/Effects/pitchshifter.h **** \todo - move hash_xs32 and myrand to dsp.h and give appropriate names
  63:../temp_time_machine/DaisyExamples/DaisySP//Source/Effects/pitchshifter.h **** */
  64:../temp_time_machine/DaisyExamples/DaisySP//Source/Effects/pitchshifter.h **** class PitchShifter
  65:../temp_time_machine/DaisyExamples/DaisySP//Source/Effects/pitchshifter.h **** {
  66:../temp_time_machine/DaisyExamples/DaisySP//Source/Effects/pitchshifter.h ****   public:
  67:../temp_time_machine/DaisyExamples/DaisySP//Source/Effects/pitchshifter.h ****     PitchShifter() {}
  68:../temp_time_machine/DaisyExamples/DaisySP//Source/Effects/pitchshifter.h ****     ~PitchShifter() {}
  69:../temp_time_machine/DaisyExamples/DaisySP//Source/Effects/pitchshifter.h ****     /** Initialize pitch shifter
  70:../temp_time_machine/DaisyExamples/DaisySP//Source/Effects/pitchshifter.h ****     */
  71:../temp_time_machine/DaisyExamples/DaisySP//Source/Effects/pitchshifter.h ****     void Init(float sr)
  72:../temp_time_machine/DaisyExamples/DaisySP//Source/Effects/pitchshifter.h ****     {
  73:../temp_time_machine/DaisyExamples/DaisySP//Source/Effects/pitchshifter.h ****         force_recalc_ = false;
  74:../temp_time_machine/DaisyExamples/DaisySP//Source/Effects/pitchshifter.h ****         sr_           = sr;
  75:../temp_time_machine/DaisyExamples/DaisySP//Source/Effects/pitchshifter.h ****         mod_freq_     = 5.0f;
  76:../temp_time_machine/DaisyExamples/DaisySP//Source/Effects/pitchshifter.h ****         SetSemitones();
  77:../temp_time_machine/DaisyExamples/DaisySP//Source/Effects/pitchshifter.h ****         for(uint8_t i = 0; i < 2; i++)
  78:../temp_time_machine/DaisyExamples/DaisySP//Source/Effects/pitchshifter.h ****         {
  79:../temp_time_machine/DaisyExamples/DaisySP//Source/Effects/pitchshifter.h ****             gain_[i] = 0.0f;
  80:../temp_time_machine/DaisyExamples/DaisySP//Source/Effects/pitchshifter.h ****             d_[i].Init();
  81:../temp_time_machine/DaisyExamples/DaisySP//Source/Effects/pitchshifter.h ****             phs_[i].Init(sr, 50, i == 0 ? 0 : PI_F);
  82:../temp_time_machine/DaisyExamples/DaisySP//Source/Effects/pitchshifter.h ****         }
  83:../temp_time_machine/DaisyExamples/DaisySP//Source/Effects/pitchshifter.h ****         shift_up_ = true;
  84:../temp_time_machine/DaisyExamples/DaisySP//Source/Effects/pitchshifter.h ****         del_size_ = SHIFT_BUFFER_SIZE;
  85:../temp_time_machine/DaisyExamples/DaisySP//Source/Effects/pitchshifter.h ****         SetDelSize(del_size_);
  86:../temp_time_machine/DaisyExamples/DaisySP//Source/Effects/pitchshifter.h ****         fun_ = 0.0f;
ARM GAS  /var/folders/v1/156fk8j97zv9pzndh61fy7zm0000gn/T//ccyHp6tG.s 			page 22


  87:../temp_time_machine/DaisyExamples/DaisySP//Source/Effects/pitchshifter.h ****     }
  88:../temp_time_machine/DaisyExamples/DaisySP//Source/Effects/pitchshifter.h **** 
  89:../temp_time_machine/DaisyExamples/DaisySP//Source/Effects/pitchshifter.h ****     /** process pitch shifter
  90:../temp_time_machine/DaisyExamples/DaisySP//Source/Effects/pitchshifter.h ****     */
  91:../temp_time_machine/DaisyExamples/DaisySP//Source/Effects/pitchshifter.h ****     float Process(float &in)
 210              		.loc 13 91 11 is_stmt 1 view -0
 211              		.cfi_startproc
 212              		@ args = 0, pretend = 0, frame = 0
 213              		@ frame_needed = 0, uses_anonymous_args = 0
  92:../temp_time_machine/DaisyExamples/DaisySP//Source/Effects/pitchshifter.h ****     {
  93:../temp_time_machine/DaisyExamples/DaisySP//Source/Effects/pitchshifter.h ****         float val, fade1, fade2;
 214              		.loc 13 93 9 view .LVU31
  94:../temp_time_machine/DaisyExamples/DaisySP//Source/Effects/pitchshifter.h ****         // First Process delay mod/crossfade
  95:../temp_time_machine/DaisyExamples/DaisySP//Source/Effects/pitchshifter.h ****         fade1 = phs_[0].Process();
 215              		.loc 13 95 9 view .LVU32
  91:../temp_time_machine/DaisyExamples/DaisySP//Source/Effects/pitchshifter.h ****     {
 216              		.loc 13 91 11 is_stmt 0 view .LVU33
 217 0000 F8B5     		push	{r3, r4, r5, r6, r7, lr}
 218              		.cfi_def_cfa_offset 24
 219              		.cfi_offset 3, -24
 220              		.cfi_offset 4, -20
 221              		.cfi_offset 5, -16
 222              		.cfi_offset 6, -12
 223              		.cfi_offset 7, -8
 224              		.cfi_offset 14, -4
 225 0002 0546     		mov	r5, r0
 226              		.loc 13 95 32 view .LVU34
 227 0004 A748     		ldr	r0, .L17
 228              	.LVL5:
  91:../temp_time_machine/DaisyExamples/DaisySP//Source/Effects/pitchshifter.h ****     {
 229              		.loc 13 91 11 view .LVU35
 230 0006 0E46     		mov	r6, r1
 231              		.loc 13 95 32 view .LVU36
 232 0008 2844     		add	r0, r0, r5
  96:../temp_time_machine/DaisyExamples/DaisySP//Source/Effects/pitchshifter.h ****         fade2 = phs_[1].Process();
  97:../temp_time_machine/DaisyExamples/DaisySP//Source/Effects/pitchshifter.h ****         if(prev_phs_a_ > fade1)
  98:../temp_time_machine/DaisyExamples/DaisySP//Source/Effects/pitchshifter.h ****         {
  99:../temp_time_machine/DaisyExamples/DaisySP//Source/Effects/pitchshifter.h ****             mod_a_amt_ = fun_ * ((float)(myrand() % 255) / 255.0f)
 100:../temp_time_machine/DaisyExamples/DaisySP//Source/Effects/pitchshifter.h ****                          * (del_size_ * 0.5f);
 233              		.loc 13 100 29 view .LVU37
 234 000a 05F50034 		add	r4, r5, #131072
  91:../temp_time_machine/DaisyExamples/DaisySP//Source/Effects/pitchshifter.h ****     {
 235              		.loc 13 91 11 view .LVU38
 236 000e 2DED088B 		vpush.64	{d8, d9, d10, d11}
 237              		.cfi_def_cfa_offset 56
 238              		.cfi_offset 80, -56
 239              		.cfi_offset 81, -52
 240              		.cfi_offset 82, -48
 241              		.cfi_offset 83, -44
 242              		.cfi_offset 84, -40
 243              		.cfi_offset 85, -36
 244              		.cfi_offset 86, -32
 245              		.cfi_offset 87, -28
  95:../temp_time_machine/DaisyExamples/DaisySP//Source/Effects/pitchshifter.h ****         fade2 = phs_[1].Process();
 246              		.loc 13 95 32 view .LVU39
 247 0012 FFF7FEFF 		bl	_ZN7daisysp6Phasor7ProcessEv
 248              	.LVL6:
ARM GAS  /var/folders/v1/156fk8j97zv9pzndh61fy7zm0000gn/T//ccyHp6tG.s 			page 23


  96:../temp_time_machine/DaisyExamples/DaisySP//Source/Effects/pitchshifter.h ****         fade2 = phs_[1].Process();
 249              		.loc 13 96 32 view .LVU40
 250 0016 A448     		ldr	r0, .L17+4
  95:../temp_time_machine/DaisyExamples/DaisySP//Source/Effects/pitchshifter.h ****         fade2 = phs_[1].Process();
 251              		.loc 13 95 32 view .LVU41
 252 0018 F0EE409A 		vmov.f32	s19, s0
 253              	.LVL7:
  96:../temp_time_machine/DaisyExamples/DaisySP//Source/Effects/pitchshifter.h ****         fade2 = phs_[1].Process();
 254              		.loc 13 96 9 is_stmt 1 view .LVU42
  96:../temp_time_machine/DaisyExamples/DaisySP//Source/Effects/pitchshifter.h ****         fade2 = phs_[1].Process();
 255              		.loc 13 96 32 is_stmt 0 view .LVU43
 256 001c 2844     		add	r0, r0, r5
 257 001e FFF7FEFF 		bl	_ZN7daisysp6Phasor7ProcessEv
 258              	.LVL8:
  97:../temp_time_machine/DaisyExamples/DaisySP//Source/Effects/pitchshifter.h ****         {
 259              		.loc 13 97 9 view .LVU44
 260 0022 D4ED1C7A 		vldr.32	s15, [r4, #112]
  96:../temp_time_machine/DaisyExamples/DaisySP//Source/Effects/pitchshifter.h ****         fade2 = phs_[1].Process();
 261              		.loc 13 96 32 view .LVU45
 262 0026 F0EE40AA 		vmov.f32	s21, s0
 263              	.LVL9:
  97:../temp_time_machine/DaisyExamples/DaisySP//Source/Effects/pitchshifter.h ****         {
 264              		.loc 13 97 9 is_stmt 1 view .LVU46
 265              		.loc 13 100 29 is_stmt 0 view .LVU47
 266 002a 236A     		ldr	r3, [r4, #32]
  97:../temp_time_machine/DaisyExamples/DaisySP//Source/Effects/pitchshifter.h ****         {
 267              		.loc 13 97 9 view .LVU48
 268 002c F4EEE97A 		vcmpe.f32	s15, s19
 269 0030 F1EE10FA 		vmrs	APSR_nzcv, FPSCR
 270 0034 00F3F480 		bgt	.L8
 101:../temp_time_machine/DaisyExamples/DaisySP//Source/Effects/pitchshifter.h ****             mod_coeff_[0]
 102:../temp_time_machine/DaisyExamples/DaisySP//Source/Effects/pitchshifter.h ****                 = 0.0002f + (((float)(myrand() % 255) / 255.0f) * 0.001f);
 103:../temp_time_machine/DaisyExamples/DaisySP//Source/Effects/pitchshifter.h ****         }
 104:../temp_time_machine/DaisyExamples/DaisySP//Source/Effects/pitchshifter.h ****         if(prev_phs_b_ > fade2)
 105:../temp_time_machine/DaisyExamples/DaisySP//Source/Effects/pitchshifter.h ****         {
 106:../temp_time_machine/DaisyExamples/DaisySP//Source/Effects/pitchshifter.h ****             mod_b_amt_ = fun_ * ((float)(myrand() % 255) / 255.0f)
 107:../temp_time_machine/DaisyExamples/DaisySP//Source/Effects/pitchshifter.h ****                          * (del_size_ * 0.5f);
 108:../temp_time_machine/DaisyExamples/DaisySP//Source/Effects/pitchshifter.h ****             mod_coeff_[1]
 109:../temp_time_machine/DaisyExamples/DaisySP//Source/Effects/pitchshifter.h ****                 = 0.0002f + (((float)(myrand() % 255) / 255.0f) * 0.001f);
 110:../temp_time_machine/DaisyExamples/DaisySP//Source/Effects/pitchshifter.h ****         }
 111:../temp_time_machine/DaisyExamples/DaisySP//Source/Effects/pitchshifter.h ****         slewed_mod_[0] += mod_coeff_[0] * (mod_a_amt_ - slewed_mod_[0]);
 271              		.loc 13 111 39 view .LVU49
 272 0038 D4ED205A 		vldr.32	s11, [r4, #128]
 273              		.loc 13 111 44 view .LVU50
 274 003c 94ED1A7A 		vldr.32	s14, [r4, #104]
 275              	.L9:
 104:../temp_time_machine/DaisyExamples/DaisySP//Source/Effects/pitchshifter.h ****         {
 276              		.loc 13 104 9 is_stmt 1 view .LVU51
 277 0040 D4ED1D7A 		vldr.32	s15, [r4, #116]
 278 0044 F4EEEA7A 		vcmpe.f32	s15, s21
 279 0048 F1EE10FA 		vmrs	APSR_nzcv, FPSCR
 280 004c 00F3A580 		bgt	.L10
 112:../temp_time_machine/DaisyExamples/DaisySP//Source/Effects/pitchshifter.h ****         slewed_mod_[1] += mod_coeff_[1] * (mod_b_amt_ - slewed_mod_[1]);
 281              		.loc 13 112 39 is_stmt 0 view .LVU52
 282 0050 D4ED216A 		vldr.32	s13, [r4, #132]
 283              		.loc 13 112 44 view .LVU53
 284 0054 D4ED1B7A 		vldr.32	s15, [r4, #108]
ARM GAS  /var/folders/v1/156fk8j97zv9pzndh61fy7zm0000gn/T//ccyHp6tG.s 			page 24


 285              	.L11:
 111:../temp_time_machine/DaisyExamples/DaisySP//Source/Effects/pitchshifter.h ****         slewed_mod_[1] += mod_coeff_[1] * (mod_b_amt_ - slewed_mod_[1]);
 286              		.loc 13 111 9 is_stmt 1 view .LVU54
 111:../temp_time_machine/DaisyExamples/DaisySP//Source/Effects/pitchshifter.h ****         slewed_mod_[1] += mod_coeff_[1] * (mod_b_amt_ - slewed_mod_[1]);
 287              		.loc 13 111 22 is_stmt 0 view .LVU55
 288 0058 D4ED1E8A 		vldr.32	s17, [r4, #120]
 289              		.loc 13 112 22 view .LVU56
 290 005c 94ED1F8A 		vldr.32	s16, [r4, #124]
 111:../temp_time_machine/DaisyExamples/DaisySP//Source/Effects/pitchshifter.h ****         slewed_mod_[1] += mod_coeff_[1] * (mod_b_amt_ - slewed_mod_[1]);
 291              		.loc 13 111 55 view .LVU57
 292 0060 37EE687A 		vsub.f32	s14, s14, s17
 113:../temp_time_machine/DaisyExamples/DaisySP//Source/Effects/pitchshifter.h ****         prev_phs_a_ = fade1;
 114:../temp_time_machine/DaisyExamples/DaisySP//Source/Effects/pitchshifter.h ****         prev_phs_b_ = fade2;
 115:../temp_time_machine/DaisyExamples/DaisySP//Source/Effects/pitchshifter.h ****         if(shift_up_)
 293              		.loc 13 115 9 view .LVU58
 294 0064 94F82C20 		ldrb	r2, [r4, #44]	@ zero_extendqisi2
 112:../temp_time_machine/DaisyExamples/DaisySP//Source/Effects/pitchshifter.h ****         prev_phs_a_ = fade1;
 295              		.loc 13 112 55 view .LVU59
 296 0068 77EEC87A 		vsub.f32	s15, s15, s16
 113:../temp_time_machine/DaisyExamples/DaisySP//Source/Effects/pitchshifter.h ****         prev_phs_a_ = fade1;
 297              		.loc 13 113 21 view .LVU60
 298 006c C4ED1C9A 		vstr.32	s19, [r4, #112]
 114:../temp_time_machine/DaisyExamples/DaisySP//Source/Effects/pitchshifter.h ****         if(shift_up_)
 299              		.loc 13 114 21 view .LVU61
 300 0070 C4ED1DAA 		vstr.32	s21, [r4, #116]
 111:../temp_time_machine/DaisyExamples/DaisySP//Source/Effects/pitchshifter.h ****         slewed_mod_[1] += mod_coeff_[1] * (mod_b_amt_ - slewed_mod_[1]);
 301              		.loc 13 111 24 view .LVU62
 302 0074 E7EE258A 		vfma.f32	s17, s14, s11
 112:../temp_time_machine/DaisyExamples/DaisySP//Source/Effects/pitchshifter.h ****         prev_phs_a_ = fade1;
 303              		.loc 13 112 24 view .LVU63
 304 0078 A7EEA68A 		vfma.f32	s16, s15, s13
 111:../temp_time_machine/DaisyExamples/DaisySP//Source/Effects/pitchshifter.h ****         slewed_mod_[1] += mod_coeff_[1] * (mod_b_amt_ - slewed_mod_[1]);
 305              		.loc 13 111 24 view .LVU64
 306 007c C4ED1E8A 		vstr.32	s17, [r4, #120]
 112:../temp_time_machine/DaisyExamples/DaisySP//Source/Effects/pitchshifter.h ****         prev_phs_a_ = fade1;
 307              		.loc 13 112 9 is_stmt 1 view .LVU65
 112:../temp_time_machine/DaisyExamples/DaisySP//Source/Effects/pitchshifter.h ****         prev_phs_a_ = fade1;
 308              		.loc 13 112 24 is_stmt 0 view .LVU66
 309 0080 84ED1F8A 		vstr.32	s16, [r4, #124]
 113:../temp_time_machine/DaisyExamples/DaisySP//Source/Effects/pitchshifter.h ****         prev_phs_b_ = fade2;
 310              		.loc 13 113 9 is_stmt 1 view .LVU67
 114:../temp_time_machine/DaisyExamples/DaisySP//Source/Effects/pitchshifter.h ****         if(shift_up_)
 311              		.loc 13 114 9 view .LVU68
 312              		.loc 13 115 9 view .LVU69
 313 0084 2AB1     		cbz	r2, .L12
 116:../temp_time_machine/DaisyExamples/DaisySP//Source/Effects/pitchshifter.h ****         {
 117:../temp_time_machine/DaisyExamples/DaisySP//Source/Effects/pitchshifter.h ****             fade1 = 1.0f - fade1;
 314              		.loc 13 117 13 view .LVU70
 315              		.loc 13 117 19 is_stmt 0 view .LVU71
 316 0086 F7EE007A 		vmov.f32	s15, #1.0e+0
 317 008a 77EEE99A 		vsub.f32	s19, s15, s19
 318              	.LVL10:
 118:../temp_time_machine/DaisyExamples/DaisySP//Source/Effects/pitchshifter.h ****             fade2 = 1.0f - fade2;
 319              		.loc 13 118 13 is_stmt 1 view .LVU72
 320              		.loc 13 118 19 is_stmt 0 view .LVU73
 321 008e 77EEEAAA 		vsub.f32	s21, s15, s21
 322              	.L12:
ARM GAS  /var/folders/v1/156fk8j97zv9pzndh61fy7zm0000gn/T//ccyHp6tG.s 			page 25


 323              	.LVL11:
 119:../temp_time_machine/DaisyExamples/DaisySP//Source/Effects/pitchshifter.h ****         }
 120:../temp_time_machine/DaisyExamples/DaisySP//Source/Effects/pitchshifter.h ****         mod_[0] = fade1 * (del_size_ - 1);
 324              		.loc 13 120 9 is_stmt 1 view .LVU74
 325              		.loc 13 120 38 is_stmt 0 view .LVU75
 326 0092 013B     		subs	r3, r3, #1
 121:../temp_time_machine/DaisyExamples/DaisySP//Source/Effects/pitchshifter.h ****         mod_[1] = fade2 * (del_size_ - 1);
 122:../temp_time_machine/DaisyExamples/DaisySP//Source/Effects/pitchshifter.h **** #ifdef USE_ARM_DSP
 123:../temp_time_machine/DaisyExamples/DaisySP//Source/Effects/pitchshifter.h ****         gain_[0] = arm_sin_f32(fade1 * (float)M_PI);
 124:../temp_time_machine/DaisyExamples/DaisySP//Source/Effects/pitchshifter.h ****         gain_[1] = arm_sin_f32(fade2 * (float)M_PI);
 125:../temp_time_machine/DaisyExamples/DaisySP//Source/Effects/pitchshifter.h **** #else
 126:../temp_time_machine/DaisyExamples/DaisySP//Source/Effects/pitchshifter.h ****         gain_[0] = sinf(fade1 * PI_F);
 327              		.loc 13 126 24 view .LVU76
 328 0094 9FED85BA 		vldr.32	s22, .L17+8
 120:../temp_time_machine/DaisyExamples/DaisySP//Source/Effects/pitchshifter.h ****         mod_[1] = fade2 * (del_size_ - 1);
 329              		.loc 13 120 38 view .LVU77
 330 0098 09EE103A 		vmov	s18, r3	@ int
 331              		.loc 13 126 24 view .LVU78
 332 009c 29EE8B0A 		vmul.f32	s0, s19, s22
 120:../temp_time_machine/DaisyExamples/DaisySP//Source/Effects/pitchshifter.h ****         mod_[1] = fade2 * (del_size_ - 1);
 333              		.loc 13 120 25 view .LVU79
 334 00a0 B8EE499A 		vcvt.f32.u32	s18, s18
 335 00a4 69EE299A 		vmul.f32	s19, s18, s19
 336              	.LVL12:
 121:../temp_time_machine/DaisyExamples/DaisySP//Source/Effects/pitchshifter.h ****         mod_[1] = fade2 * (del_size_ - 1);
 337              		.loc 13 121 25 view .LVU80
 338 00a8 29EE2A9A 		vmul.f32	s18, s18, s21
 120:../temp_time_machine/DaisyExamples/DaisySP//Source/Effects/pitchshifter.h ****         mod_[1] = fade2 * (del_size_ - 1);
 339              		.loc 13 120 17 view .LVU81
 340 00ac C4ED169A 		vstr.32	s19, [r4, #88]
 121:../temp_time_machine/DaisyExamples/DaisySP//Source/Effects/pitchshifter.h ****         mod_[1] = fade2 * (del_size_ - 1);
 341              		.loc 13 121 9 is_stmt 1 view .LVU82
 127:../temp_time_machine/DaisyExamples/DaisySP//Source/Effects/pitchshifter.h ****         gain_[1] = sinf(fade2 * PI_F);
 128:../temp_time_machine/DaisyExamples/DaisySP//Source/Effects/pitchshifter.h **** #endif
 129:../temp_time_machine/DaisyExamples/DaisySP//Source/Effects/pitchshifter.h **** 
 130:../temp_time_machine/DaisyExamples/DaisySP//Source/Effects/pitchshifter.h ****         // Handle Delay Writing
 131:../temp_time_machine/DaisyExamples/DaisySP//Source/Effects/pitchshifter.h ****         d_[0].Write(in);
 132:../temp_time_machine/DaisyExamples/DaisySP//Source/Effects/pitchshifter.h ****         d_[1].Write(in);
 133:../temp_time_machine/DaisyExamples/DaisySP//Source/Effects/pitchshifter.h ****         // Modulate Delay Lines
 134:../temp_time_machine/DaisyExamples/DaisySP//Source/Effects/pitchshifter.h ****         //mod_a_amt = mod_b_amt = 0.0f;
 135:../temp_time_machine/DaisyExamples/DaisySP//Source/Effects/pitchshifter.h ****         d_[0].SetDelay(mod_[0] + mod_a_amt_);
 136:../temp_time_machine/DaisyExamples/DaisySP//Source/Effects/pitchshifter.h ****         d_[1].SetDelay(mod_[1] + mod_b_amt_);
 137:../temp_time_machine/DaisyExamples/DaisySP//Source/Effects/pitchshifter.h ****         d_[0].SetDelay(mod_[0] + slewed_mod_[0]);
 342              		.loc 13 137 23 is_stmt 0 view .LVU83
 343 00b0 78EEA98A 		vadd.f32	s17, s17, s19
 121:../temp_time_machine/DaisyExamples/DaisySP//Source/Effects/pitchshifter.h **** #ifdef USE_ARM_DSP
 344              		.loc 13 121 17 view .LVU84
 345 00b4 84ED179A 		vstr.32	s18, [r4, #92]
 126:../temp_time_machine/DaisyExamples/DaisySP//Source/Effects/pitchshifter.h ****         gain_[1] = sinf(fade2 * PI_F);
 346              		.loc 13 126 9 is_stmt 1 view .LVU85
 138:../temp_time_machine/DaisyExamples/DaisySP//Source/Effects/pitchshifter.h ****         d_[1].SetDelay(mod_[1] + slewed_mod_[1]);
 347              		.loc 13 138 23 is_stmt 0 view .LVU86
 348 00b8 38EE098A 		vadd.f32	s16, s16, s18
 126:../temp_time_machine/DaisyExamples/DaisySP//Source/Effects/pitchshifter.h ****         gain_[1] = sinf(fade2 * PI_F);
 349              		.loc 13 126 24 view .LVU87
 350 00bc FFF7FEFF 		bl	sinf
 351              	.LVL13:
ARM GAS  /var/folders/v1/156fk8j97zv9pzndh61fy7zm0000gn/T//ccyHp6tG.s 			page 26


 352 00c0 B0EE40AA 		vmov.f32	s20, s0
 127:../temp_time_machine/DaisyExamples/DaisySP//Source/Effects/pitchshifter.h **** #endif
 353              		.loc 13 127 24 view .LVU88
 354 00c4 2AEE8B0A 		vmul.f32	s0, s21, s22
 126:../temp_time_machine/DaisyExamples/DaisySP//Source/Effects/pitchshifter.h ****         gain_[1] = sinf(fade2 * PI_F);
 355              		.loc 13 126 18 discriminator 1 view .LVU89
 356 00c8 84ED14AA 		vstr.32	s20, [r4, #80]
 127:../temp_time_machine/DaisyExamples/DaisySP//Source/Effects/pitchshifter.h **** #endif
 357              		.loc 13 127 9 is_stmt 1 view .LVU90
 127:../temp_time_machine/DaisyExamples/DaisySP//Source/Effects/pitchshifter.h **** #endif
 358              		.loc 13 127 24 is_stmt 0 view .LVU91
 359 00cc FFF7FEFF 		bl	sinf
 360              	.LVL14:
 361              	.LBB576:
 362              	.LBB577:
 363              		.file 14 "../temp_time_machine/DaisyExamples/DaisySP//Source/Utility/delayline.h"
   1:../temp_time_machine/DaisyExamples/DaisySP//Source/Utility/delayline.h **** /*
   2:../temp_time_machine/DaisyExamples/DaisySP//Source/Utility/delayline.h **** Copyright (c) 2020 Electrosmith, Corp
   3:../temp_time_machine/DaisyExamples/DaisySP//Source/Utility/delayline.h **** 
   4:../temp_time_machine/DaisyExamples/DaisySP//Source/Utility/delayline.h **** Use of this source code is governed by an MIT-style
   5:../temp_time_machine/DaisyExamples/DaisySP//Source/Utility/delayline.h **** license that can be found in the LICENSE file or at
   6:../temp_time_machine/DaisyExamples/DaisySP//Source/Utility/delayline.h **** https://opensource.org/licenses/MIT.
   7:../temp_time_machine/DaisyExamples/DaisySP//Source/Utility/delayline.h **** */
   8:../temp_time_machine/DaisyExamples/DaisySP//Source/Utility/delayline.h **** 
   9:../temp_time_machine/DaisyExamples/DaisySP//Source/Utility/delayline.h **** #pragma once
  10:../temp_time_machine/DaisyExamples/DaisySP//Source/Utility/delayline.h **** #ifndef DSY_DELAY_H
  11:../temp_time_machine/DaisyExamples/DaisySP//Source/Utility/delayline.h **** #define DSY_DELAY_H
  12:../temp_time_machine/DaisyExamples/DaisySP//Source/Utility/delayline.h **** #include <stdlib.h>
  13:../temp_time_machine/DaisyExamples/DaisySP//Source/Utility/delayline.h **** #include <stdint.h>
  14:../temp_time_machine/DaisyExamples/DaisySP//Source/Utility/delayline.h **** namespace daisysp
  15:../temp_time_machine/DaisyExamples/DaisySP//Source/Utility/delayline.h **** {
  16:../temp_time_machine/DaisyExamples/DaisySP//Source/Utility/delayline.h **** /** Simple Delay line.
  17:../temp_time_machine/DaisyExamples/DaisySP//Source/Utility/delayline.h **** November 2019
  18:../temp_time_machine/DaisyExamples/DaisySP//Source/Utility/delayline.h **** 
  19:../temp_time_machine/DaisyExamples/DaisySP//Source/Utility/delayline.h **** Converted to Template December 2019
  20:../temp_time_machine/DaisyExamples/DaisySP//Source/Utility/delayline.h **** 
  21:../temp_time_machine/DaisyExamples/DaisySP//Source/Utility/delayline.h **** declaration example: (1 second of floats)
  22:../temp_time_machine/DaisyExamples/DaisySP//Source/Utility/delayline.h **** 
  23:../temp_time_machine/DaisyExamples/DaisySP//Source/Utility/delayline.h **** DelayLine<float, SAMPLE_RATE> del;
  24:../temp_time_machine/DaisyExamples/DaisySP//Source/Utility/delayline.h **** 
  25:../temp_time_machine/DaisyExamples/DaisySP//Source/Utility/delayline.h **** By: shensley
  26:../temp_time_machine/DaisyExamples/DaisySP//Source/Utility/delayline.h **** */
  27:../temp_time_machine/DaisyExamples/DaisySP//Source/Utility/delayline.h **** template <typename T, size_t max_size>
  28:../temp_time_machine/DaisyExamples/DaisySP//Source/Utility/delayline.h **** class DelayLine
  29:../temp_time_machine/DaisyExamples/DaisySP//Source/Utility/delayline.h **** {
  30:../temp_time_machine/DaisyExamples/DaisySP//Source/Utility/delayline.h ****   public:
  31:../temp_time_machine/DaisyExamples/DaisySP//Source/Utility/delayline.h ****     DelayLine() {}
  32:../temp_time_machine/DaisyExamples/DaisySP//Source/Utility/delayline.h ****     ~DelayLine() {}
  33:../temp_time_machine/DaisyExamples/DaisySP//Source/Utility/delayline.h ****     /** initializes the delay line by clearing the values within, and setting delay to 1 sample.
  34:../temp_time_machine/DaisyExamples/DaisySP//Source/Utility/delayline.h ****     */
  35:../temp_time_machine/DaisyExamples/DaisySP//Source/Utility/delayline.h ****     void Init() { Reset(); }
  36:../temp_time_machine/DaisyExamples/DaisySP//Source/Utility/delayline.h ****     /** clears buffer, sets write ptr to 0, and delay to 1 sample.
  37:../temp_time_machine/DaisyExamples/DaisySP//Source/Utility/delayline.h ****     */
  38:../temp_time_machine/DaisyExamples/DaisySP//Source/Utility/delayline.h ****     void Reset()
  39:../temp_time_machine/DaisyExamples/DaisySP//Source/Utility/delayline.h ****     {
  40:../temp_time_machine/DaisyExamples/DaisySP//Source/Utility/delayline.h ****         for(size_t i = 0; i < max_size; i++)
  41:../temp_time_machine/DaisyExamples/DaisySP//Source/Utility/delayline.h ****         {
ARM GAS  /var/folders/v1/156fk8j97zv9pzndh61fy7zm0000gn/T//ccyHp6tG.s 			page 27


  42:../temp_time_machine/DaisyExamples/DaisySP//Source/Utility/delayline.h ****             line_[i] = T(0);
  43:../temp_time_machine/DaisyExamples/DaisySP//Source/Utility/delayline.h ****         }
  44:../temp_time_machine/DaisyExamples/DaisySP//Source/Utility/delayline.h ****         write_ptr_ = 0;
  45:../temp_time_machine/DaisyExamples/DaisySP//Source/Utility/delayline.h ****         delay_     = 1;
  46:../temp_time_machine/DaisyExamples/DaisySP//Source/Utility/delayline.h ****     }
  47:../temp_time_machine/DaisyExamples/DaisySP//Source/Utility/delayline.h **** 
  48:../temp_time_machine/DaisyExamples/DaisySP//Source/Utility/delayline.h ****     /** sets the delay time in samples
  49:../temp_time_machine/DaisyExamples/DaisySP//Source/Utility/delayline.h ****         If a float is passed in, a fractional component will be calculated for interpolating the de
  50:../temp_time_machine/DaisyExamples/DaisySP//Source/Utility/delayline.h ****     */
  51:../temp_time_machine/DaisyExamples/DaisySP//Source/Utility/delayline.h ****     inline void SetDelay(size_t delay)
  52:../temp_time_machine/DaisyExamples/DaisySP//Source/Utility/delayline.h ****     {
  53:../temp_time_machine/DaisyExamples/DaisySP//Source/Utility/delayline.h ****         frac_  = 0.0f;
  54:../temp_time_machine/DaisyExamples/DaisySP//Source/Utility/delayline.h ****         delay_ = delay < max_size ? delay : max_size - 1;
  55:../temp_time_machine/DaisyExamples/DaisySP//Source/Utility/delayline.h ****     }
  56:../temp_time_machine/DaisyExamples/DaisySP//Source/Utility/delayline.h **** 
  57:../temp_time_machine/DaisyExamples/DaisySP//Source/Utility/delayline.h ****     /** sets the delay time in samples
  58:../temp_time_machine/DaisyExamples/DaisySP//Source/Utility/delayline.h ****         If a float is passed in, a fractional component will be calculated for interpolating the de
  59:../temp_time_machine/DaisyExamples/DaisySP//Source/Utility/delayline.h ****     */
  60:../temp_time_machine/DaisyExamples/DaisySP//Source/Utility/delayline.h ****     inline void SetDelay(float delay)
  61:../temp_time_machine/DaisyExamples/DaisySP//Source/Utility/delayline.h ****     {
  62:../temp_time_machine/DaisyExamples/DaisySP//Source/Utility/delayline.h ****         int32_t int_delay = static_cast<int32_t>(delay);
 364              		.loc 14 62 17 view .LVU92
 365 00d0 FDEEE86A 		vcvt.s32.f32	s13, s17
 366              	.LBE577:
 367              	.LBE576:
 127:../temp_time_machine/DaisyExamples/DaisySP//Source/Effects/pitchshifter.h **** #endif
 368              		.loc 13 127 24 view .LVU93
 369 00d4 B0EE407A 		vmov.f32	s14, s0
 370              	.LBB585:
 371              	.LBB586:
  63:../temp_time_machine/DaisyExamples/DaisySP//Source/Utility/delayline.h ****         frac_             = delay - static_cast<float>(int_delay);
  64:../temp_time_machine/DaisyExamples/DaisySP//Source/Utility/delayline.h ****         delay_ = static_cast<size_t>(int_delay) < max_size ? int_delay
  65:../temp_time_machine/DaisyExamples/DaisySP//Source/Utility/delayline.h ****                                                            : max_size - 1;
  66:../temp_time_machine/DaisyExamples/DaisySP//Source/Utility/delayline.h ****     }
  67:../temp_time_machine/DaisyExamples/DaisySP//Source/Utility/delayline.h **** 
  68:../temp_time_machine/DaisyExamples/DaisySP//Source/Utility/delayline.h ****     /** writes the sample of type T to the delay line, and advances the write ptr
  69:../temp_time_machine/DaisyExamples/DaisySP//Source/Utility/delayline.h ****     */
  70:../temp_time_machine/DaisyExamples/DaisySP//Source/Utility/delayline.h ****     inline void Write(const T sample)
  71:../temp_time_machine/DaisyExamples/DaisySP//Source/Utility/delayline.h ****     {
  72:../temp_time_machine/DaisyExamples/DaisySP//Source/Utility/delayline.h ****         line_[write_ptr_] = sample;
 372              		.loc 14 72 15 view .LVU94
 373 00d8 6A68     		ldr	r2, [r5, #4]
  73:../temp_time_machine/DaisyExamples/DaisySP//Source/Utility/delayline.h ****         write_ptr_        = (write_ptr_ - 1 + max_size) % max_size;
 374              		.loc 14 73 45 view .LVU95
 375 00da 43F6FF73 		movw	r3, #16383
 376              	.LBE586:
 377              	.LBE585:
 378              	.LBB591:
 379              	.LBB592:
  62:../temp_time_machine/DaisyExamples/DaisySP//Source/Utility/delayline.h ****         frac_             = delay - static_cast<float>(int_delay);
 380              		.loc 14 62 17 view .LVU96
 381 00de FDEEC87A 		vcvt.s32.f32	s15, s16
 382              	.LBE592:
 383              	.LBE591:
 384              	.LBB600:
 385              	.LBB587:
  72:../temp_time_machine/DaisyExamples/DaisySP//Source/Utility/delayline.h ****         write_ptr_        = (write_ptr_ - 1 + max_size) % max_size;
ARM GAS  /var/folders/v1/156fk8j97zv9pzndh61fy7zm0000gn/T//ccyHp6tG.s 			page 28


 386              		.loc 14 72 27 view .LVU97
 387 00e2 05EB8201 		add	r1, r5, r2, lsl #2
 388              	.LBE587:
 389              	.LBE600:
 390              	.LBB601:
 391              	.LBB578:
  63:../temp_time_machine/DaisyExamples/DaisySP//Source/Utility/delayline.h ****         delay_ = static_cast<size_t>(int_delay) < max_size ? int_delay
 392              		.loc 14 63 37 view .LVU98
 393 00e6 F8EEE65A 		vcvt.f32.s32	s11, s13
 394              	.LBE578:
 395              	.LBE601:
 127:../temp_time_machine/DaisyExamples/DaisySP//Source/Effects/pitchshifter.h **** #endif
 396              		.loc 13 127 18 discriminator 1 view .LVU99
 397 00ea 84ED157A 		vstr.32	s14, [r4, #84]
 131:../temp_time_machine/DaisyExamples/DaisySP//Source/Effects/pitchshifter.h ****         d_[1].Write(in);
 398              		.loc 13 131 9 is_stmt 1 view .LVU100
 399              	.LBB602:
 400              	.LBB588:
 401              		.loc 14 73 45 is_stmt 0 view .LVU101
 402 00ee 1A44     		add	r2, r2, r3
 403              	.LBE588:
 404              	.LBE602:
 131:../temp_time_machine/DaisyExamples/DaisySP//Source/Effects/pitchshifter.h ****         d_[1].Write(in);
 405              		.loc 13 131 20 view .LVU102
 406 00f0 D6F800C0 		ldr	ip, [r6]	@ float
 407              	.LVL15:
 408              	.LBB603:
 409              	.LBI585:
  70:../temp_time_machine/DaisyExamples/DaisySP//Source/Utility/delayline.h ****     {
 410              		.loc 14 70 17 is_stmt 1 view .LVU103
 411              	.LBE603:
 412              	.LBB604:
 413              	.LBB579:
  64:../temp_time_machine/DaisyExamples/DaisySP//Source/Utility/delayline.h ****                                                            : max_size - 1;
 414              		.loc 14 64 60 is_stmt 0 view .LVU104
 415 00f4 16EE906A 		vmov	r6, s13	@ int
 416              	.LVL16:
  64:../temp_time_machine/DaisyExamples/DaisySP//Source/Utility/delayline.h ****                                                            : max_size - 1;
 417              		.loc 14 64 60 view .LVU105
 418              	.LBE579:
 419              	.LBE604:
 420              	.LBB605:
 421              	.LBB593:
 422 00f8 17EE904A 		vmov	r4, s15	@ int
 423              	.LBE593:
 424              	.LBE605:
 425              	.LBB606:
 426              	.LBB589:
 427              		.loc 14 73 57 view .LVU106
 428 00fc C2F30D02 		ubfx	r2, r2, #0, #14
  72:../temp_time_machine/DaisyExamples/DaisySP//Source/Utility/delayline.h ****         write_ptr_        = (write_ptr_ - 1 + max_size) % max_size;
 429              		.loc 14 72 27 view .LVU107
 430 0100 C1F80CC0 		str	ip, [r1, #12]	@ float
 431              	.LBE589:
 432              	.LBE606:
 433              	.LBB607:
 434              	.LBB580:
ARM GAS  /var/folders/v1/156fk8j97zv9pzndh61fy7zm0000gn/T//ccyHp6tG.s 			page 29


  64:../temp_time_machine/DaisyExamples/DaisySP//Source/Utility/delayline.h ****                                                            : max_size - 1;
 435              		.loc 14 64 60 view .LVU108
 436 0104 9E42     		cmp	r6, r3
 437              	.LBE580:
 438              	.LBE607:
 439              	.LBB608:
 440              	.LBB609:
  72:../temp_time_machine/DaisyExamples/DaisySP//Source/Utility/delayline.h ****         write_ptr_        = (write_ptr_ - 1 + max_size) % max_size;
 441              		.loc 14 72 15 view .LVU109
 442 0106 05F58031 		add	r1, r5, #65536
 443              	.LBE609:
 444              	.LBE608:
 445              	.LBB615:
 446              	.LBB590:
 447              		.loc 14 73 27 view .LVU110
 448 010a 6A60     		str	r2, [r5, #4]
 449              	.LVL17:
 450              		.loc 14 73 27 view .LVU111
 451              	.LBE590:
 452              	.LBE615:
 132:../temp_time_machine/DaisyExamples/DaisySP//Source/Effects/pitchshifter.h ****         // Modulate Delay Lines
 453              		.loc 13 132 9 is_stmt 1 view .LVU112
 454              	.LBB616:
 455              	.LBI608:
  70:../temp_time_machine/DaisyExamples/DaisySP//Source/Utility/delayline.h ****     {
 456              		.loc 14 70 17 view .LVU113
 457              	.LBE616:
 458              	.LBB617:
 459              	.LBB581:
  64:../temp_time_machine/DaisyExamples/DaisySP//Source/Utility/delayline.h ****                                                            : max_size - 1;
 460              		.loc 14 64 60 is_stmt 0 view .LVU114
 461 010c 28BF     		it	cs
 462 010e 1E46     		movcs	r6, r3
 463              	.LBE581:
 464              	.LBE617:
 465              	.LBB618:
 466              	.LBB594:
 467 0110 9C42     		cmp	r4, r3
 468              	.LBE594:
 469              	.LBE618:
 470              	.LBB619:
 471              	.LBB610:
  72:../temp_time_machine/DaisyExamples/DaisySP//Source/Utility/delayline.h ****         write_ptr_        = (write_ptr_ - 1 + max_size) % max_size;
 472              		.loc 14 72 15 view .LVU115
 473 0112 0869     		ldr	r0, [r1, #16]
 474              	.LBE610:
 475              	.LBE619:
 476              	.LBB620:
 477              	.LBB582:
  63:../temp_time_machine/DaisyExamples/DaisySP//Source/Utility/delayline.h ****         delay_ = static_cast<size_t>(int_delay) < max_size ? int_delay
 478              		.loc 14 63 35 view .LVU116
 479 0114 78EEE58A 		vsub.f32	s17, s17, s11
 480              	.LBE582:
 481              	.LBE620:
 482              	.LBB621:
 483              	.LBB595:
  64:../temp_time_machine/DaisyExamples/DaisySP//Source/Utility/delayline.h ****                                                            : max_size - 1;
ARM GAS  /var/folders/v1/156fk8j97zv9pzndh61fy7zm0000gn/T//ccyHp6tG.s 			page 30


 484              		.loc 14 64 60 view .LVU117
 485 0118 28BF     		it	cs
 486 011a 1C46     		movcs	r4, r3
 487              	.LBE595:
 488              	.LBE621:
 489              	.LBB622:
 490              	.LBB623:
  74:../temp_time_machine/DaisyExamples/DaisySP//Source/Utility/delayline.h ****     }
  75:../temp_time_machine/DaisyExamples/DaisySP//Source/Utility/delayline.h **** 
  76:../temp_time_machine/DaisyExamples/DaisySP//Source/Utility/delayline.h ****     /** returns the next sample of type T in the delay line, interpolated if necessary.
  77:../temp_time_machine/DaisyExamples/DaisySP//Source/Utility/delayline.h ****     */
  78:../temp_time_machine/DaisyExamples/DaisySP//Source/Utility/delayline.h ****     inline const T Read() const
  79:../temp_time_machine/DaisyExamples/DaisySP//Source/Utility/delayline.h ****     {
  80:../temp_time_machine/DaisyExamples/DaisySP//Source/Utility/delayline.h ****         T a = line_[(write_ptr_ + delay_) % max_size];
 491              		.loc 14 80 33 view .LVU118
 492 011c 3244     		add	r2, r2, r6
 493              	.LBE623:
 494              	.LBE622:
 495              	.LBB631:
 496              	.LBB611:
  73:../temp_time_machine/DaisyExamples/DaisySP//Source/Utility/delayline.h ****     }
 497              		.loc 14 73 45 view .LVU119
 498 011e 0344     		add	r3, r3, r0
  72:../temp_time_machine/DaisyExamples/DaisySP//Source/Utility/delayline.h ****         write_ptr_        = (write_ptr_ - 1 + max_size) % max_size;
 499              		.loc 14 72 27 view .LVU120
 500 0120 01EB8000 		add	r0, r1, r0, lsl #2
 501              	.LBE611:
 502              	.LBE631:
 503              	.LBB632:
 504              	.LBB596:
  63:../temp_time_machine/DaisyExamples/DaisySP//Source/Utility/delayline.h ****         delay_ = static_cast<size_t>(int_delay) < max_size ? int_delay
 505              		.loc 14 63 37 view .LVU121
 506 0124 B8EEE76A 		vcvt.f32.s32	s12, s15
 507              	.LBE596:
 508              	.LBE632:
 139:../temp_time_machine/DaisyExamples/DaisySP//Source/Effects/pitchshifter.h ****         val = 0.0f;
 140:../temp_time_machine/DaisyExamples/DaisySP//Source/Effects/pitchshifter.h ****         val += (d_[0].Read() * gain_[0]);
 509              		.loc 13 140 13 discriminator 1 view .LVU122
 510 0128 9FED610A 		vldr.32	s0, .L17+12
 511              	.LBB633:
 512              	.LBB612:
  72:../temp_time_machine/DaisyExamples/DaisySP//Source/Utility/delayline.h ****         write_ptr_        = (write_ptr_ - 1 + max_size) % max_size;
 513              		.loc 14 72 27 view .LVU123
 514 012c C0F818C0 		str	ip, [r0, #24]	@ float
 515              	.LBE612:
 516              	.LBE633:
 517              	.LBB634:
 518              	.LBB624:
 519              		.loc 14 80 43 view .LVU124
 520 0130 C2F30D00 		ubfx	r0, r2, #0, #14
  81:../temp_time_machine/DaisyExamples/DaisySP//Source/Utility/delayline.h ****         T b = line_[(write_ptr_ + delay_ + 1) % max_size];
 521              		.loc 14 81 42 view .LVU125
 522 0134 0132     		adds	r2, r2, #1
 523              	.LBE624:
 524              	.LBE634:
 525              	.LBB635:
 526              	.LBB613:
ARM GAS  /var/folders/v1/156fk8j97zv9pzndh61fy7zm0000gn/T//ccyHp6tG.s 			page 31


  73:../temp_time_machine/DaisyExamples/DaisySP//Source/Utility/delayline.h ****     }
 527              		.loc 14 73 57 view .LVU126
 528 0136 C3F30D03 		ubfx	r3, r3, #0, #14
 529              	.LBE613:
 530              	.LBE635:
 531              	.LBB636:
 532              	.LBB625:
  80:../temp_time_machine/DaisyExamples/DaisySP//Source/Utility/delayline.h ****         T b = line_[(write_ptr_ + delay_ + 1) % max_size];
 533              		.loc 14 80 11 view .LVU127
 534 013a 05EB8000 		add	r0, r5, r0, lsl #2
 535              	.LBE625:
 536              	.LBE636:
 537              	.LBB637:
 538              	.LBB597:
  63:../temp_time_machine/DaisyExamples/DaisySP//Source/Utility/delayline.h ****         delay_ = static_cast<size_t>(int_delay) < max_size ? int_delay
 539              		.loc 14 63 35 view .LVU128
 540 013e 38EE468A 		vsub.f32	s16, s16, s12
 541              	.LBE597:
 542              	.LBE637:
 543              	.LBB638:
 544              	.LBB626:
 545              		.loc 14 81 47 view .LVU129
 546 0142 C2F30D02 		ubfx	r2, r2, #0, #14
 547              	.LBE626:
 548              	.LBE638:
 549              	.LBB639:
 550              	.LBB614:
  73:../temp_time_machine/DaisyExamples/DaisySP//Source/Utility/delayline.h ****     }
 551              		.loc 14 73 27 view .LVU130
 552 0146 0B61     		str	r3, [r1, #16]
 553              	.LVL18:
  73:../temp_time_machine/DaisyExamples/DaisySP//Source/Utility/delayline.h ****     }
 554              		.loc 14 73 27 view .LVU131
 555              	.LBE614:
 556              	.LBE639:
 135:../temp_time_machine/DaisyExamples/DaisySP//Source/Effects/pitchshifter.h ****         d_[1].SetDelay(mod_[1] + mod_b_amt_);
 557              		.loc 13 135 9 is_stmt 1 view .LVU132
 136:../temp_time_machine/DaisyExamples/DaisySP//Source/Effects/pitchshifter.h ****         d_[0].SetDelay(mod_[0] + slewed_mod_[0]);
 558              		.loc 13 136 9 view .LVU133
 137:../temp_time_machine/DaisyExamples/DaisySP//Source/Effects/pitchshifter.h ****         d_[1].SetDelay(mod_[1] + slewed_mod_[1]);
 559              		.loc 13 137 9 view .LVU134
 560              	.LBB640:
 561              	.LBI576:
  60:../temp_time_machine/DaisyExamples/DaisySP//Source/Utility/delayline.h ****     {
 562              		.loc 14 60 17 view .LVU135
 563              	.LBB583:
  63:../temp_time_machine/DaisyExamples/DaisySP//Source/Utility/delayline.h ****         delay_ = static_cast<size_t>(int_delay) < max_size ? int_delay
 564              		.loc 14 63 27 is_stmt 0 view .LVU136
 565 0148 C5ED008A 		vstr.32	s17, [r5]
 566              	.LBE583:
 567              	.LBE640:
 568              	.LBB641:
 569              	.LBB642:
  80:../temp_time_machine/DaisyExamples/DaisySP//Source/Utility/delayline.h ****         T b = line_[(write_ptr_ + delay_ + 1) % max_size];
 570              		.loc 14 80 33 view .LVU137
 571 014c 2344     		add	r3, r3, r4
 572              	.LBE642:
ARM GAS  /var/folders/v1/156fk8j97zv9pzndh61fy7zm0000gn/T//ccyHp6tG.s 			page 32


 573              	.LBE641:
 574              	.LBB648:
 575              	.LBB584:
  64:../temp_time_machine/DaisyExamples/DaisySP//Source/Utility/delayline.h ****                                                            : max_size - 1;
 576              		.loc 14 64 16 view .LVU138
 577 014e AE60     		str	r6, [r5, #8]
 578              	.LVL19:
  64:../temp_time_machine/DaisyExamples/DaisySP//Source/Utility/delayline.h ****                                                            : max_size - 1;
 579              		.loc 14 64 16 view .LVU139
 580              	.LBE584:
 581              	.LBE648:
 138:../temp_time_machine/DaisyExamples/DaisySP//Source/Effects/pitchshifter.h ****         val = 0.0f;
 582              		.loc 13 138 9 is_stmt 1 view .LVU140
 583              	.LBB649:
 584              	.LBI591:
  60:../temp_time_machine/DaisyExamples/DaisySP//Source/Utility/delayline.h ****     {
 585              		.loc 14 60 17 view .LVU141
  60:../temp_time_machine/DaisyExamples/DaisySP//Source/Utility/delayline.h ****     {
 586              		.loc 14 60 17 is_stmt 0 view .LVU142
 587              	.LBE649:
 588              	.LBB650:
 589              	.LBB627:
 590              		.loc 14 81 11 view .LVU143
 591 0150 05EB8205 		add	r5, r5, r2, lsl #2
 592              	.LVL20:
  80:../temp_time_machine/DaisyExamples/DaisySP//Source/Utility/delayline.h ****         T b = line_[(write_ptr_ + delay_ + 1) % max_size];
 593              		.loc 14 80 11 view .LVU144
 594 0154 D0ED036A 		vldr.32	s13, [r0, #12]
 595              	.LBE627:
 596              	.LBE650:
 597              	.LBB651:
 598              	.LBB643:
 599              		.loc 14 81 42 view .LVU145
 600 0158 5A1C     		adds	r2, r3, #1
 601              	.LBE643:
 602              	.LBE651:
 603              	.LBB652:
 604              	.LBB628:
  82:../temp_time_machine/DaisyExamples/DaisySP//Source/Utility/delayline.h ****         return a + (b - a) * frac_;
 605              		.loc 14 82 23 view .LVU146
 606 015a 95ED036A 		vldr.32	s12, [r5, #12]
 607              	.LBE628:
 608              	.LBE652:
 609              	.LBB653:
 610              	.LBB644:
  80:../temp_time_machine/DaisyExamples/DaisySP//Source/Utility/delayline.h ****         T b = line_[(write_ptr_ + delay_ + 1) % max_size];
 611              		.loc 14 80 43 view .LVU147
 612 015e C3F30D03 		ubfx	r3, r3, #0, #14
  81:../temp_time_machine/DaisyExamples/DaisySP//Source/Utility/delayline.h ****         return a + (b - a) * frac_;
 613              		.loc 14 81 47 view .LVU148
 614 0162 C2F30D02 		ubfx	r2, r2, #0, #14
 615              	.LBE644:
 616              	.LBE653:
 617              	.LBB654:
 618              	.LBB598:
  63:../temp_time_machine/DaisyExamples/DaisySP//Source/Utility/delayline.h ****         delay_ = static_cast<size_t>(int_delay) < max_size ? int_delay
 619              		.loc 14 63 27 view .LVU149
ARM GAS  /var/folders/v1/156fk8j97zv9pzndh61fy7zm0000gn/T//ccyHp6tG.s 			page 33


 620 0166 81ED038A 		vstr.32	s16, [r1, #12]
 621              	.LBE598:
 622              	.LBE654:
 623              	.LBB655:
 624              	.LBB629:
 625              		.loc 14 82 23 view .LVU150
 626 016a 36EE666A 		vsub.f32	s12, s12, s13
 627              	.LBE629:
 628              	.LBE655:
 629              	.LBB656:
 630              	.LBB645:
  80:../temp_time_machine/DaisyExamples/DaisySP//Source/Utility/delayline.h ****         T b = line_[(write_ptr_ + delay_ + 1) % max_size];
 631              		.loc 14 80 11 view .LVU151
 632 016e 01EB8303 		add	r3, r1, r3, lsl #2
  81:../temp_time_machine/DaisyExamples/DaisySP//Source/Utility/delayline.h ****         return a + (b - a) * frac_;
 633              		.loc 14 81 11 view .LVU152
 634 0172 01EB8202 		add	r2, r1, r2, lsl #2
 635              	.LBE645:
 636              	.LBE656:
 637              	.LBB657:
 638              	.LBB599:
  64:../temp_time_machine/DaisyExamples/DaisySP//Source/Utility/delayline.h ****                                                            : max_size - 1;
 639              		.loc 14 64 16 view .LVU153
 640 0176 4C61     		str	r4, [r1, #20]
 641              	.LVL21:
  64:../temp_time_machine/DaisyExamples/DaisySP//Source/Utility/delayline.h ****                                                            : max_size - 1;
 642              		.loc 14 64 16 view .LVU154
 643              	.LBE599:
 644              	.LBE657:
 139:../temp_time_machine/DaisyExamples/DaisySP//Source/Effects/pitchshifter.h ****         val += (d_[0].Read() * gain_[0]);
 645              		.loc 13 139 9 is_stmt 1 view .LVU155
 646              		.loc 13 140 9 view .LVU156
 647              	.LBB658:
 648              	.LBI622:
  78:../temp_time_machine/DaisyExamples/DaisySP//Source/Utility/delayline.h ****     {
 649              		.loc 14 78 20 view .LVU157
  78:../temp_time_machine/DaisyExamples/DaisySP//Source/Utility/delayline.h ****     {
 650              		.loc 14 78 20 is_stmt 0 view .LVU158
 651              	.LBE658:
 652              	.LBB659:
 653              	.LBB646:
  80:../temp_time_machine/DaisyExamples/DaisySP//Source/Utility/delayline.h ****         T b = line_[(write_ptr_ + delay_ + 1) % max_size];
 654              		.loc 14 80 11 view .LVU159
 655 0178 D3ED067A 		vldr.32	s15, [r3, #24]
 656              	.LBE646:
 657              	.LBE659:
 658              	.LBB660:
 659              	.LBB630:
 660              		.loc 14 82 30 view .LVU160
 661 017c E8EE866A 		vfma.f32	s13, s17, s12
 662              	.LVL22:
 663              		.loc 14 82 30 view .LVU161
 664              	.LBE630:
 665              	.LBE660:
 666              	.LBB661:
 667              	.LBB647:
 668              		.loc 14 82 23 view .LVU162
ARM GAS  /var/folders/v1/156fk8j97zv9pzndh61fy7zm0000gn/T//ccyHp6tG.s 			page 34


 669 0180 92ED066A 		vldr.32	s12, [r2, #24]
 670 0184 36EE676A 		vsub.f32	s12, s12, s15
 671              		.loc 14 82 30 view .LVU163
 672 0188 E8EE067A 		vfma.f32	s15, s16, s12
 673              	.LBE647:
 674              	.LBE661:
 675              		.loc 13 140 13 discriminator 1 view .LVU164
 676 018c AAEE260A 		vfma.f32	s0, s20, s13
 677              	.LVL23:
 141:../temp_time_machine/DaisyExamples/DaisySP//Source/Effects/pitchshifter.h ****         val += (d_[1].Read() * gain_[1]);
 678              		.loc 13 141 9 is_stmt 1 view .LVU165
 679              	.LBB662:
 680              	.LBI641:
  78:../temp_time_machine/DaisyExamples/DaisySP//Source/Utility/delayline.h ****     {
 681              		.loc 14 78 20 view .LVU166
  78:../temp_time_machine/DaisyExamples/DaisySP//Source/Utility/delayline.h ****     {
 682              		.loc 14 78 20 is_stmt 0 view .LVU167
 683              	.LBE662:
 142:../temp_time_machine/DaisyExamples/DaisySP//Source/Effects/pitchshifter.h ****         return val;
 684              		.loc 13 142 9 is_stmt 1 view .LVU168
 143:../temp_time_machine/DaisyExamples/DaisySP//Source/Effects/pitchshifter.h ****     }
 685              		.loc 13 143 5 is_stmt 0 view .LVU169
 686 0190 BDEC088B 		vldm	sp!, {d8-d11}
 687              		.cfi_remember_state
 688              		.cfi_restore 86
 689              		.cfi_restore 87
 690              		.cfi_restore 84
 691              		.cfi_restore 85
 692              		.cfi_restore 82
 693              		.cfi_restore 83
 694              		.cfi_restore 80
 695              		.cfi_restore 81
 696              		.cfi_def_cfa_offset 24
 697 0194 A7EE270A 		vfma.f32	s0, s14, s15
 698              	.LVL24:
 699              		.loc 13 143 5 view .LVU170
 700 0198 F8BD     		pop	{r3, r4, r5, r6, r7, pc}
 701              	.LVL25:
 702              	.L10:
 703              		.cfi_restore_state
 106:../temp_time_machine/DaisyExamples/DaisySP//Source/Effects/pitchshifter.h ****                          * (del_size_ * 0.5f);
 704              		.loc 13 106 13 is_stmt 1 view .LVU171
 705              	.LBB663:
 706              	.LBI663:
  39:../temp_time_machine/DaisyExamples/DaisySP//Source/Effects/pitchshifter.h **** {
 707              		.loc 13 39 17 view .LVU172
 708              	.LBB664:
  41:../temp_time_machine/DaisyExamples/DaisySP//Source/Effects/pitchshifter.h ****     seed                 = hash_xs32(seed);
 709              		.loc 13 41 5 view .LVU173
  42:../temp_time_machine/DaisyExamples/DaisySP//Source/Effects/pitchshifter.h ****     return seed;
 710              		.loc 13 42 5 view .LVU174
  42:../temp_time_machine/DaisyExamples/DaisySP//Source/Effects/pitchshifter.h ****     return seed;
 711              		.loc 13 42 37 is_stmt 0 view .LVU175
 712 019a 464F     		ldr	r7, .L17+16
 713              	.LBE664:
 714              	.LBE663:
 106:../temp_time_machine/DaisyExamples/DaisySP//Source/Effects/pitchshifter.h ****                          * (del_size_ * 0.5f);
ARM GAS  /var/folders/v1/156fk8j97zv9pzndh61fy7zm0000gn/T//ccyHp6tG.s 			page 35


 715              		.loc 13 106 51 discriminator 1 view .LVU176
 716 019c 4649     		ldr	r1, .L17+20
 717              	.LBB677:
 718              	.LBB673:
  42:../temp_time_machine/DaisyExamples/DaisySP//Source/Effects/pitchshifter.h ****     return seed;
 719              		.loc 13 42 37 view .LVU177
 720 019e 3A68     		ldr	r2, [r7]
 721              	.LVL26:
 722              	.LBB665:
 723              	.LBI665:
  31:../temp_time_machine/DaisyExamples/DaisySP//Source/Effects/pitchshifter.h **** {
 724              		.loc 13 31 24 is_stmt 1 view .LVU178
 725              	.LBB666:
  33:../temp_time_machine/DaisyExamples/DaisySP//Source/Effects/pitchshifter.h ****     x ^= x >> 17;
 726              		.loc 13 33 5 view .LVU179
 727              	.LBE666:
 728              	.LBE665:
 729              	.LBE673:
 730              	.LBE677:
 106:../temp_time_machine/DaisyExamples/DaisySP//Source/Effects/pitchshifter.h ****                          * (del_size_ * 0.5f);
 731              		.loc 13 106 58 is_stmt 0 discriminator 1 view .LVU180
 732 01a0 9FED465A 		vldr.32	s10, .L17+24
 733              	.LBB678:
 734              	.LBB674:
 735              	.LBB670:
 736              	.LBB667:
  33:../temp_time_machine/DaisyExamples/DaisySP//Source/Effects/pitchshifter.h ****     x ^= x >> 17;
 737              		.loc 13 33 7 view .LVU181
 738 01a4 82EA4232 		eor	r2, r2, r2, lsl #13
 739              	.LVL27:
  34:../temp_time_machine/DaisyExamples/DaisySP//Source/Effects/pitchshifter.h ****     x ^= x << 5;
 740              		.loc 13 34 5 is_stmt 1 view .LVU182
 741              	.LBE667:
 742              	.LBE670:
 743              	.LBE674:
 744              	.LBE678:
 106:../temp_time_machine/DaisyExamples/DaisySP//Source/Effects/pitchshifter.h ****                          * (del_size_ * 0.5f);
 745              		.loc 13 106 31 is_stmt 0 discriminator 1 view .LVU183
 746 01a8 D4ED193A 		vldr.32	s7, [r4, #100]
 109:../temp_time_machine/DaisyExamples/DaisySP//Source/Effects/pitchshifter.h ****         }
 747              		.loc 13 109 27 discriminator 1 view .LVU184
 748 01ac 9FED446A 		vldr.32	s12, .L17+28
 749              	.LBB679:
 750              	.LBB675:
 751              	.LBB671:
 752              	.LBB668:
  34:../temp_time_machine/DaisyExamples/DaisySP//Source/Effects/pitchshifter.h ****     x ^= x << 5;
 753              		.loc 13 34 7 view .LVU185
 754 01b0 82EA5242 		eor	r2, r2, r2, lsr #17
 755              	.LVL28:
  35:../temp_time_machine/DaisyExamples/DaisySP//Source/Effects/pitchshifter.h ****     return x;
 756              		.loc 13 35 5 is_stmt 1 view .LVU186
 757              	.LBE668:
 758              	.LBE671:
 759              	.LBE675:
 760              	.LBE679:
 109:../temp_time_machine/DaisyExamples/DaisySP//Source/Effects/pitchshifter.h ****         }
ARM GAS  /var/folders/v1/156fk8j97zv9pzndh61fy7zm0000gn/T//ccyHp6tG.s 			page 36


 761              		.loc 13 109 27 is_stmt 0 discriminator 1 view .LVU187
 762 01b4 DFED434A 		vldr.32	s9, .L17+32
 763              	.LBB680:
 764              	.LBB676:
 765              	.LBB672:
 766              	.LBB669:
  35:../temp_time_machine/DaisyExamples/DaisySP//Source/Effects/pitchshifter.h ****     return x;
 767              		.loc 13 35 7 view .LVU188
 768 01b8 82EA4212 		eor	r2, r2, r2, lsl #5
 769              	.LVL29:
  36:../temp_time_machine/DaisyExamples/DaisySP//Source/Effects/pitchshifter.h **** }
 770              		.loc 13 36 5 is_stmt 1 view .LVU189
  36:../temp_time_machine/DaisyExamples/DaisySP//Source/Effects/pitchshifter.h **** }
 771              		.loc 13 36 5 is_stmt 0 view .LVU190
 772              	.LBE669:
 773              	.LBE672:
  43:../temp_time_machine/DaisyExamples/DaisySP//Source/Effects/pitchshifter.h **** }
 774              		.loc 13 43 5 is_stmt 1 view .LVU191
 775              	.LBE676:
 776              	.LBE680:
 777              	.LBB681:
 778              	.LBB682:
 779              	.LBB683:
 780              	.LBB684:
  33:../temp_time_machine/DaisyExamples/DaisySP//Source/Effects/pitchshifter.h ****     x ^= x >> 17;
 781              		.loc 13 33 7 is_stmt 0 view .LVU192
 782 01bc 82EA4230 		eor	r0, r2, r2, lsl #13
  34:../temp_time_machine/DaisyExamples/DaisySP//Source/Effects/pitchshifter.h ****     x ^= x << 5;
 783              		.loc 13 34 7 view .LVU193
 784 01c0 80EA5040 		eor	r0, r0, r0, lsr #17
  35:../temp_time_machine/DaisyExamples/DaisySP//Source/Effects/pitchshifter.h ****     return x;
 785              		.loc 13 35 7 view .LVU194
 786 01c4 80EA4010 		eor	r0, r0, r0, lsl #5
 787              	.LBE684:
 788              	.LBE683:
  42:../temp_time_machine/DaisyExamples/DaisySP//Source/Effects/pitchshifter.h ****     return seed;
 789              		.loc 13 42 26 discriminator 1 view .LVU195
 790 01c8 3860     		str	r0, [r7]
 791              	.LBE682:
 792              	.LBE681:
 106:../temp_time_machine/DaisyExamples/DaisySP//Source/Effects/pitchshifter.h ****                          * (del_size_ * 0.5f);
 793              		.loc 13 106 51 discriminator 1 view .LVU196
 794 01ca A1FB027C 		umull	r7, ip, r1, r2
 109:../temp_time_machine/DaisyExamples/DaisySP//Source/Effects/pitchshifter.h ****         }
 795              		.loc 13 109 48 discriminator 1 view .LVU197
 796 01ce A1FB0071 		umull	r7, r1, r1, r0
 106:../temp_time_machine/DaisyExamples/DaisySP//Source/Effects/pitchshifter.h ****                          * (del_size_ * 0.5f);
 797              		.loc 13 106 51 discriminator 1 view .LVU198
 798 01d2 4FEADC1C 		lsr	ip, ip, #7
 109:../temp_time_machine/DaisyExamples/DaisySP//Source/Effects/pitchshifter.h ****         }
 799              		.loc 13 109 48 discriminator 1 view .LVU199
 800 01d6 C909     		lsrs	r1, r1, #7
 106:../temp_time_machine/DaisyExamples/DaisySP//Source/Effects/pitchshifter.h ****                          * (del_size_ * 0.5f);
 801              		.loc 13 106 51 discriminator 1 view .LVU200
 802 01d8 CCEB0C2C 		rsb	ip, ip, ip, lsl #8
 109:../temp_time_machine/DaisyExamples/DaisySP//Source/Effects/pitchshifter.h ****         }
 803              		.loc 13 109 48 discriminator 1 view .LVU201
ARM GAS  /var/folders/v1/156fk8j97zv9pzndh61fy7zm0000gn/T//ccyHp6tG.s 			page 37


 804 01dc C1EB0121 		rsb	r1, r1, r1, lsl #8
 106:../temp_time_machine/DaisyExamples/DaisySP//Source/Effects/pitchshifter.h ****                          * (del_size_ * 0.5f);
 805              		.loc 13 106 51 discriminator 1 view .LVU202
 806 01e0 A2EB0C02 		sub	r2, r2, ip
 109:../temp_time_machine/DaisyExamples/DaisySP//Source/Effects/pitchshifter.h ****         }
 807              		.loc 13 109 48 discriminator 1 view .LVU203
 808 01e4 401A     		subs	r0, r0, r1
 106:../temp_time_machine/DaisyExamples/DaisySP//Source/Effects/pitchshifter.h ****                          * (del_size_ * 0.5f);
 809              		.loc 13 106 34 discriminator 1 view .LVU204
 810 01e6 07EE902A 		vmov	s15, r2	@ int
 811 01ea F8EEE76A 		vcvt.f32.s32	s13, s15
 106:../temp_time_machine/DaisyExamples/DaisySP//Source/Effects/pitchshifter.h ****                          * (del_size_ * 0.5f);
 812              		.loc 13 106 58 discriminator 1 view .LVU205
 813 01ee C6EE857A 		vdiv.f32	s15, s13, s10
 109:../temp_time_machine/DaisyExamples/DaisySP//Source/Effects/pitchshifter.h ****         }
 814              		.loc 13 109 31 discriminator 1 view .LVU206
 815 01f2 06EE900A 		vmov	s13, r0	@ int
 816 01f6 F8EEE66A 		vcvt.f32.s32	s13, s13
 109:../temp_time_machine/DaisyExamples/DaisySP//Source/Effects/pitchshifter.h ****         }
 817              		.loc 13 109 55 discriminator 1 view .LVU207
 818 01fa 86EE854A 		vdiv.f32	s8, s13, s10
 107:../temp_time_machine/DaisyExamples/DaisySP//Source/Effects/pitchshifter.h ****             mod_coeff_[1]
 819              		.loc 13 107 26 view .LVU208
 820 01fe 06EE903A 		vmov	s13, r3	@ int
 821 0202 FBEEEF6A 		vcvt.f32.u32	s13, s13, #1
 106:../temp_time_machine/DaisyExamples/DaisySP//Source/Effects/pitchshifter.h ****                          * (del_size_ * 0.5f);
 822              		.loc 13 106 31 discriminator 1 view .LVU209
 823 0206 67EEA37A 		vmul.f32	s15, s15, s7
 107:../temp_time_machine/DaisyExamples/DaisySP//Source/Effects/pitchshifter.h ****             mod_coeff_[1]
 824              		.loc 13 107 26 view .LVU210
 825 020a 67EEA67A 		vmul.f32	s15, s15, s13
 109:../temp_time_machine/DaisyExamples/DaisySP//Source/Effects/pitchshifter.h ****         }
 826              		.loc 13 109 27 discriminator 1 view .LVU211
 827 020e F0EE466A 		vmov.f32	s13, s12
 106:../temp_time_machine/DaisyExamples/DaisySP//Source/Effects/pitchshifter.h ****                          * (del_size_ * 0.5f);
 828              		.loc 13 106 24 view .LVU212
 829 0212 C4ED1B7A 		vstr.32	s15, [r4, #108]
 108:../temp_time_machine/DaisyExamples/DaisySP//Source/Effects/pitchshifter.h ****                 = 0.0002f + (((float)(myrand() % 255) / 255.0f) * 0.001f);
 830              		.loc 13 108 13 is_stmt 1 view .LVU213
 831              	.LBB688:
 832              	.LBI681:
  39:../temp_time_machine/DaisyExamples/DaisySP//Source/Effects/pitchshifter.h **** {
 833              		.loc 13 39 17 view .LVU214
 834              	.LBB687:
  41:../temp_time_machine/DaisyExamples/DaisySP//Source/Effects/pitchshifter.h ****     seed                 = hash_xs32(seed);
 835              		.loc 13 41 5 view .LVU215
  42:../temp_time_machine/DaisyExamples/DaisySP//Source/Effects/pitchshifter.h ****     return seed;
 836              		.loc 13 42 5 view .LVU216
 837              	.LVL30:
 838              	.LBB686:
 839              	.LBI683:
  31:../temp_time_machine/DaisyExamples/DaisySP//Source/Effects/pitchshifter.h **** {
 840              		.loc 13 31 24 view .LVU217
 841              	.LBB685:
  33:../temp_time_machine/DaisyExamples/DaisySP//Source/Effects/pitchshifter.h ****     x ^= x >> 17;
 842              		.loc 13 33 5 view .LVU218
  34:../temp_time_machine/DaisyExamples/DaisySP//Source/Effects/pitchshifter.h ****     x ^= x << 5;
ARM GAS  /var/folders/v1/156fk8j97zv9pzndh61fy7zm0000gn/T//ccyHp6tG.s 			page 38


 843              		.loc 13 34 5 view .LVU219
  35:../temp_time_machine/DaisyExamples/DaisySP//Source/Effects/pitchshifter.h ****     return x;
 844              		.loc 13 35 5 view .LVU220
  36:../temp_time_machine/DaisyExamples/DaisySP//Source/Effects/pitchshifter.h **** }
 845              		.loc 13 36 5 view .LVU221
  36:../temp_time_machine/DaisyExamples/DaisySP//Source/Effects/pitchshifter.h **** }
 846              		.loc 13 36 5 is_stmt 0 view .LVU222
 847              	.LBE685:
 848              	.LBE686:
  43:../temp_time_machine/DaisyExamples/DaisySP//Source/Effects/pitchshifter.h **** }
 849              		.loc 13 43 5 is_stmt 1 view .LVU223
 850              	.LBE687:
 851              	.LBE688:
 109:../temp_time_machine/DaisyExamples/DaisySP//Source/Effects/pitchshifter.h ****         }
 852              		.loc 13 109 27 is_stmt 0 discriminator 1 view .LVU224
 853 0216 E4EE246A 		vfma.f32	s13, s8, s9
 109:../temp_time_machine/DaisyExamples/DaisySP//Source/Effects/pitchshifter.h ****         }
 854              		.loc 13 109 17 discriminator 1 view .LVU225
 855 021a C4ED216A 		vstr.32	s13, [r4, #132]
 856 021e 1BE7     		b	.L11
 857              	.L8:
  99:../temp_time_machine/DaisyExamples/DaisySP//Source/Effects/pitchshifter.h ****                          * (del_size_ * 0.5f);
 858              		.loc 13 99 13 is_stmt 1 view .LVU226
 859              	.LBB689:
 860              	.LBI689:
  39:../temp_time_machine/DaisyExamples/DaisySP//Source/Effects/pitchshifter.h **** {
 861              		.loc 13 39 17 view .LVU227
 862              	.LBB690:
  41:../temp_time_machine/DaisyExamples/DaisySP//Source/Effects/pitchshifter.h ****     seed                 = hash_xs32(seed);
 863              		.loc 13 41 5 view .LVU228
  42:../temp_time_machine/DaisyExamples/DaisySP//Source/Effects/pitchshifter.h ****     return seed;
 864              		.loc 13 42 5 view .LVU229
  42:../temp_time_machine/DaisyExamples/DaisySP//Source/Effects/pitchshifter.h ****     return seed;
 865              		.loc 13 42 37 is_stmt 0 view .LVU230
 866 0220 244F     		ldr	r7, .L17+16
 867              	.LBE690:
 868              	.LBE689:
  99:../temp_time_machine/DaisyExamples/DaisySP//Source/Effects/pitchshifter.h ****                          * (del_size_ * 0.5f);
 869              		.loc 13 99 51 discriminator 1 view .LVU231
 870 0222 2548     		ldr	r0, .L17+20
 871              	.LBB703:
 872              	.LBB699:
  42:../temp_time_machine/DaisyExamples/DaisySP//Source/Effects/pitchshifter.h ****     return seed;
 873              		.loc 13 42 37 view .LVU232
 874 0224 3A68     		ldr	r2, [r7]
 875              	.LVL31:
 876              	.LBB691:
 877              	.LBI691:
  31:../temp_time_machine/DaisyExamples/DaisySP//Source/Effects/pitchshifter.h **** {
 878              		.loc 13 31 24 is_stmt 1 view .LVU233
 879              	.LBB692:
  33:../temp_time_machine/DaisyExamples/DaisySP//Source/Effects/pitchshifter.h ****     x ^= x >> 17;
 880              		.loc 13 33 5 view .LVU234
 881              	.LBE692:
 882              	.LBE691:
 883              	.LBE699:
 884              	.LBE703:
ARM GAS  /var/folders/v1/156fk8j97zv9pzndh61fy7zm0000gn/T//ccyHp6tG.s 			page 39


  99:../temp_time_machine/DaisyExamples/DaisySP//Source/Effects/pitchshifter.h ****                          * (del_size_ * 0.5f);
 885              		.loc 13 99 58 is_stmt 0 discriminator 1 view .LVU235
 886 0226 DFED256A 		vldr.32	s13, .L17+24
 887              	.LBB704:
 888              	.LBB700:
 889              	.LBB696:
 890              	.LBB693:
  33:../temp_time_machine/DaisyExamples/DaisySP//Source/Effects/pitchshifter.h ****     x ^= x >> 17;
 891              		.loc 13 33 7 view .LVU236
 892 022a 82EA4232 		eor	r2, r2, r2, lsl #13
 893              	.LVL32:
  34:../temp_time_machine/DaisyExamples/DaisySP//Source/Effects/pitchshifter.h ****     x ^= x << 5;
 894              		.loc 13 34 5 is_stmt 1 view .LVU237
 895              	.LBE693:
 896              	.LBE696:
 897              	.LBE700:
 898              	.LBE704:
  99:../temp_time_machine/DaisyExamples/DaisySP//Source/Effects/pitchshifter.h ****                          * (del_size_ * 0.5f);
 899              		.loc 13 99 31 is_stmt 0 discriminator 1 view .LVU238
 900 022e D4ED194A 		vldr.32	s9, [r4, #100]
 102:../temp_time_machine/DaisyExamples/DaisySP//Source/Effects/pitchshifter.h ****         }
 901              		.loc 13 102 27 discriminator 1 view .LVU239
 902 0232 9FED246A 		vldr.32	s12, .L17+32
 903              	.LBB705:
 904              	.LBB701:
 905              	.LBB697:
 906              	.LBB694:
  34:../temp_time_machine/DaisyExamples/DaisySP//Source/Effects/pitchshifter.h ****     x ^= x << 5;
 907              		.loc 13 34 7 view .LVU240
 908 0236 82EA5242 		eor	r2, r2, r2, lsr #17
 909              	.LVL33:
  35:../temp_time_machine/DaisyExamples/DaisySP//Source/Effects/pitchshifter.h ****     return x;
 910              		.loc 13 35 5 is_stmt 1 view .LVU241
 911              	.LBE694:
 912              	.LBE697:
 913              	.LBE701:
 914              	.LBE705:
 102:../temp_time_machine/DaisyExamples/DaisySP//Source/Effects/pitchshifter.h ****         }
 915              		.loc 13 102 27 is_stmt 0 discriminator 1 view .LVU242
 916 023a DFED215A 		vldr.32	s11, .L17+28
 917              	.LBB706:
 918              	.LBB702:
 919              	.LBB698:
 920              	.LBB695:
  35:../temp_time_machine/DaisyExamples/DaisySP//Source/Effects/pitchshifter.h ****     return x;
 921              		.loc 13 35 7 view .LVU243
 922 023e 82EA4212 		eor	r2, r2, r2, lsl #5
 923              	.LVL34:
  36:../temp_time_machine/DaisyExamples/DaisySP//Source/Effects/pitchshifter.h **** }
 924              		.loc 13 36 5 is_stmt 1 view .LVU244
  36:../temp_time_machine/DaisyExamples/DaisySP//Source/Effects/pitchshifter.h **** }
 925              		.loc 13 36 5 is_stmt 0 view .LVU245
 926              	.LBE695:
 927              	.LBE698:
  43:../temp_time_machine/DaisyExamples/DaisySP//Source/Effects/pitchshifter.h **** }
 928              		.loc 13 43 5 is_stmt 1 view .LVU246
 929              	.LBE702:
ARM GAS  /var/folders/v1/156fk8j97zv9pzndh61fy7zm0000gn/T//ccyHp6tG.s 			page 40


 930              	.LBE706:
 931              	.LBB707:
 932              	.LBB708:
 933              	.LBB709:
 934              	.LBB710:
  33:../temp_time_machine/DaisyExamples/DaisySP//Source/Effects/pitchshifter.h ****     x ^= x >> 17;
 935              		.loc 13 33 7 is_stmt 0 view .LVU247
 936 0242 82EA4231 		eor	r1, r2, r2, lsl #13
  34:../temp_time_machine/DaisyExamples/DaisySP//Source/Effects/pitchshifter.h ****     x ^= x << 5;
 937              		.loc 13 34 7 view .LVU248
 938 0246 81EA5141 		eor	r1, r1, r1, lsr #17
  35:../temp_time_machine/DaisyExamples/DaisySP//Source/Effects/pitchshifter.h ****     return x;
 939              		.loc 13 35 7 view .LVU249
 940 024a 81EA4111 		eor	r1, r1, r1, lsl #5
 941              	.LBE710:
 942              	.LBE709:
  42:../temp_time_machine/DaisyExamples/DaisySP//Source/Effects/pitchshifter.h ****     return seed;
 943              		.loc 13 42 26 discriminator 1 view .LVU250
 944 024e 3960     		str	r1, [r7]
 945              	.LBE708:
 946              	.LBE707:
  99:../temp_time_machine/DaisyExamples/DaisySP//Source/Effects/pitchshifter.h ****                          * (del_size_ * 0.5f);
 947              		.loc 13 99 51 discriminator 1 view .LVU251
 948 0250 A0FB027C 		umull	r7, ip, r0, r2
 102:../temp_time_machine/DaisyExamples/DaisySP//Source/Effects/pitchshifter.h ****         }
 949              		.loc 13 102 48 discriminator 1 view .LVU252
 950 0254 A0FB0170 		umull	r7, r0, r0, r1
  99:../temp_time_machine/DaisyExamples/DaisySP//Source/Effects/pitchshifter.h ****                          * (del_size_ * 0.5f);
 951              		.loc 13 99 51 discriminator 1 view .LVU253
 952 0258 4FEADC1C 		lsr	ip, ip, #7
 102:../temp_time_machine/DaisyExamples/DaisySP//Source/Effects/pitchshifter.h ****         }
 953              		.loc 13 102 48 discriminator 1 view .LVU254
 954 025c C009     		lsrs	r0, r0, #7
  99:../temp_time_machine/DaisyExamples/DaisySP//Source/Effects/pitchshifter.h ****                          * (del_size_ * 0.5f);
 955              		.loc 13 99 51 discriminator 1 view .LVU255
 956 025e CCEB0C2C 		rsb	ip, ip, ip, lsl #8
 102:../temp_time_machine/DaisyExamples/DaisySP//Source/Effects/pitchshifter.h ****         }
 957              		.loc 13 102 48 discriminator 1 view .LVU256
 958 0262 C0EB0020 		rsb	r0, r0, r0, lsl #8
  99:../temp_time_machine/DaisyExamples/DaisySP//Source/Effects/pitchshifter.h ****                          * (del_size_ * 0.5f);
 959              		.loc 13 99 51 discriminator 1 view .LVU257
 960 0266 A2EB0C02 		sub	r2, r2, ip
 102:../temp_time_machine/DaisyExamples/DaisySP//Source/Effects/pitchshifter.h ****         }
 961              		.loc 13 102 48 discriminator 1 view .LVU258
 962 026a 091A     		subs	r1, r1, r0
  99:../temp_time_machine/DaisyExamples/DaisySP//Source/Effects/pitchshifter.h ****                          * (del_size_ * 0.5f);
 963              		.loc 13 99 34 discriminator 1 view .LVU259
 964 026c 07EE902A 		vmov	s15, r2	@ int
 965 0270 F8EEE77A 		vcvt.f32.s32	s15, s15
  99:../temp_time_machine/DaisyExamples/DaisySP//Source/Effects/pitchshifter.h ****                          * (del_size_ * 0.5f);
 966              		.loc 13 99 58 discriminator 1 view .LVU260
 967 0274 87EEA67A 		vdiv.f32	s14, s15, s13
 102:../temp_time_machine/DaisyExamples/DaisySP//Source/Effects/pitchshifter.h ****         }
 968              		.loc 13 102 31 discriminator 1 view .LVU261
 969 0278 07EE901A 		vmov	s15, r1	@ int
 970 027c F8EEE77A 		vcvt.f32.s32	s15, s15
 102:../temp_time_machine/DaisyExamples/DaisySP//Source/Effects/pitchshifter.h ****         }
ARM GAS  /var/folders/v1/156fk8j97zv9pzndh61fy7zm0000gn/T//ccyHp6tG.s 			page 41


 971              		.loc 13 102 55 discriminator 1 view .LVU262
 972 0280 87EEA65A 		vdiv.f32	s10, s15, s13
 100:../temp_time_machine/DaisyExamples/DaisySP//Source/Effects/pitchshifter.h ****             mod_coeff_[0]
 973              		.loc 13 100 26 view .LVU263
 974 0284 07EE903A 		vmov	s15, r3	@ int
 975 0288 FBEEEF7A 		vcvt.f32.u32	s15, s15, #1
  99:../temp_time_machine/DaisyExamples/DaisySP//Source/Effects/pitchshifter.h ****                          * (del_size_ * 0.5f);
 976              		.loc 13 99 31 discriminator 1 view .LVU264
 977 028c 27EE247A 		vmul.f32	s14, s14, s9
 100:../temp_time_machine/DaisyExamples/DaisySP//Source/Effects/pitchshifter.h ****             mod_coeff_[0]
 978              		.loc 13 100 26 view .LVU265
 979 0290 27EE277A 		vmul.f32	s14, s14, s15
  99:../temp_time_machine/DaisyExamples/DaisySP//Source/Effects/pitchshifter.h ****                          * (del_size_ * 0.5f);
 980              		.loc 13 99 24 view .LVU266
 981 0294 84ED1A7A 		vstr.32	s14, [r4, #104]
 101:../temp_time_machine/DaisyExamples/DaisySP//Source/Effects/pitchshifter.h ****                 = 0.0002f + (((float)(myrand() % 255) / 255.0f) * 0.001f);
 982              		.loc 13 101 13 is_stmt 1 view .LVU267
 983              	.LBB714:
 984              	.LBI707:
  39:../temp_time_machine/DaisyExamples/DaisySP//Source/Effects/pitchshifter.h **** {
 985              		.loc 13 39 17 view .LVU268
 986              	.LBB713:
  41:../temp_time_machine/DaisyExamples/DaisySP//Source/Effects/pitchshifter.h ****     seed                 = hash_xs32(seed);
 987              		.loc 13 41 5 view .LVU269
  42:../temp_time_machine/DaisyExamples/DaisySP//Source/Effects/pitchshifter.h ****     return seed;
 988              		.loc 13 42 5 view .LVU270
 989              	.LVL35:
 990              	.LBB712:
 991              	.LBI709:
  31:../temp_time_machine/DaisyExamples/DaisySP//Source/Effects/pitchshifter.h **** {
 992              		.loc 13 31 24 view .LVU271
 993              	.LBB711:
  33:../temp_time_machine/DaisyExamples/DaisySP//Source/Effects/pitchshifter.h ****     x ^= x >> 17;
 994              		.loc 13 33 5 view .LVU272
  34:../temp_time_machine/DaisyExamples/DaisySP//Source/Effects/pitchshifter.h ****     x ^= x << 5;
 995              		.loc 13 34 5 view .LVU273
  35:../temp_time_machine/DaisyExamples/DaisySP//Source/Effects/pitchshifter.h ****     return x;
 996              		.loc 13 35 5 view .LVU274
  36:../temp_time_machine/DaisyExamples/DaisySP//Source/Effects/pitchshifter.h **** }
 997              		.loc 13 36 5 view .LVU275
  36:../temp_time_machine/DaisyExamples/DaisySP//Source/Effects/pitchshifter.h **** }
 998              		.loc 13 36 5 is_stmt 0 view .LVU276
 999              	.LBE711:
 1000              	.LBE712:
  43:../temp_time_machine/DaisyExamples/DaisySP//Source/Effects/pitchshifter.h **** }
 1001              		.loc 13 43 5 is_stmt 1 view .LVU277
 1002              	.LBE713:
 1003              	.LBE714:
 102:../temp_time_machine/DaisyExamples/DaisySP//Source/Effects/pitchshifter.h ****         }
 1004              		.loc 13 102 27 is_stmt 0 discriminator 1 view .LVU278
 1005 0298 E5EE065A 		vfma.f32	s11, s10, s12
 102:../temp_time_machine/DaisyExamples/DaisySP//Source/Effects/pitchshifter.h ****         }
 1006              		.loc 13 102 17 discriminator 1 view .LVU279
 1007 029c C4ED205A 		vstr.32	s11, [r4, #128]
 1008 02a0 CEE6     		b	.L9
 1009              	.L18:
 1010 02a2 00BF     		.align	2
ARM GAS  /var/folders/v1/156fk8j97zv9pzndh61fy7zm0000gn/T//ccyHp6tG.s 			page 42


 1011              	.L17:
 1012 02a4 30000200 		.word	131120
 1013 02a8 40000200 		.word	131136
 1014 02ac DB0F4940 		.word	1078530011
 1015 02b0 00000000 		.word	0
 1016 02b4 00000000 		.word	_ZZN7daisysp6myrandEvE4seed
 1017 02b8 81808080 		.word	-2139062143
 1018 02bc 00007F43 		.word	1132396544
 1019 02c0 17B75139 		.word	961656599
 1020 02c4 6F12833A 		.word	981668463
 1021              		.cfi_endproc
 1022              	.LFE3061:
 1024              		.section	.text._ZN3oam6legacy16LegacyMonoEngine7ProcessEf,"axG",%progbits,_ZN3oam6legacy16LegacyMo
 1025              		.align	1
 1026              		.p2align 2,,3
 1027              		.weak	_ZN3oam6legacy16LegacyMonoEngine7ProcessEf
 1028              		.syntax unified
 1029              		.thumb
 1030              		.thumb_func
 1032              	_ZN3oam6legacy16LegacyMonoEngine7ProcessEf:
 1033              	.LVL36:
 1034              	.LFB3746:
 210:legacy_engine.h ****     float out = 0.0f;
 1035              		.loc 11 210 9 is_stmt 1 view -0
 1036              		.cfi_startproc
 1037              		@ args = 0, pretend = 0, frame = 0
 1038              		@ frame_needed = 0, uses_anonymous_args = 0
 211:legacy_engine.h ****     float ampCoef = 0.0f;
 1039              		.loc 11 211 5 view .LVU281
 212:legacy_engine.h ****     for (int i = 0; i < 8; i++) {
 1040              		.loc 11 212 5 view .LVU282
 213:legacy_engine.h ****       // Approximate targetAmp access
 1041              		.loc 11 213 5 view .LVU283
 1042              	.LBB753:
 213:legacy_engine.h ****       // Approximate targetAmp access
 1043              		.loc 11 213 23 discriminator 1 view .LVU284
 1044              	.LBE753:
 210:legacy_engine.h ****     float out = 0.0f;
 1045              		.loc 11 210 9 is_stmt 0 view .LVU285
 1046 0000 70B5     		push	{r4, r5, r6, lr}
 1047              		.cfi_def_cfa_offset 16
 1048              		.cfi_offset 4, -16
 1049              		.cfi_offset 5, -12
 1050              		.cfi_offset 6, -8
 1051              		.cfi_offset 14, -4
 1052 0002 2DED048B 		vpush.64	{d8, d9}
 1053              		.cfi_def_cfa_offset 32
 1054              		.cfi_offset 80, -32
 1055              		.cfi_offset 81, -28
 1056              		.cfi_offset 82, -24
 1057              		.cfi_offset 83, -20
 210:legacy_engine.h ****     float out = 0.0f;
 1058              		.loc 11 210 9 view .LVU286
 1059 0006 F0EE408A 		vmov.f32	s17, s0
 212:legacy_engine.h ****     for (int i = 0; i < 8; i++) {
 1060              		.loc 11 212 11 view .LVU287
 1061 000a DFEDBE7A 		vldr.32	s15, .L54
ARM GAS  /var/folders/v1/156fk8j97zv9pzndh61fy7zm0000gn/T//ccyHp6tG.s 			page 43


 210:legacy_engine.h ****     float out = 0.0f;
 1062              		.loc 11 210 9 view .LVU288
 1063 000e 0546     		mov	r5, r0
 1064 0010 0446     		mov	r4, r0
 1065 0012 00F5F076 		add	r6, r0, #480
 1066 0016 0346     		mov	r3, r0
 1067              	.LVL37:
 1068              	.L20:
 1069              	.LBB754:
 215:legacy_engine.h ****     }
 1070              		.loc 11 215 7 is_stmt 1 view .LVU289
 215:legacy_engine.h ****     }
 1071              		.loc 11 215 15 is_stmt 0 view .LVU290
 1072 0018 93ED097A 		vldr.32	s14, [r3, #36]
 213:legacy_engine.h ****       // Approximate targetAmp access
 1073              		.loc 11 213 23 discriminator 1 view .LVU291
 1074 001c 3C33     		adds	r3, r3, #60
 1075 001e 9E42     		cmp	r6, r3
 215:legacy_engine.h ****     }
 1076              		.loc 11 215 15 view .LVU292
 1077 0020 77EE877A 		vadd.f32	s15, s15, s14
 1078              	.LVL38:
 213:legacy_engine.h ****       // Approximate targetAmp access
 1079              		.loc 11 213 5 is_stmt 1 discriminator 3 view .LVU293
 213:legacy_engine.h ****       // Approximate targetAmp access
 1080              		.loc 11 213 23 discriminator 1 view .LVU294
 1081 0024 F8D1     		bne	.L20
 1082              	.LBE754:
 217:legacy_engine.h **** 
 1083              		.loc 11 217 5 view .LVU295
 1084              	.LVL39:
 1085              	.LBB755:
 1086              	.LBI755:
  63:legacy_engine.h ****     lastVal = lastVal + (x - lastVal) * coef;
 1087              		.loc 11 63 9 view .LVU296
 1088              	.LBB756:
  64:legacy_engine.h ****     return lastVal;
 1089              		.loc 11 64 5 view .LVU297
 1090              	.LBE756:
 1091              	.LBE755:
 217:legacy_engine.h **** 
 1092              		.loc 11 217 34 is_stmt 0 discriminator 1 view .LVU298
 1093 0026 B7EE006A 		vmov.f32	s12, #1.0e+0
 1094              	.LBB760:
 1095              	.LBB761:
 1096              	.LBB762:
 1097              	.LBB763:
  64:legacy_engine.h ****     return lastVal;
 1098              		.loc 11 64 15 view .LVU299
 1099 002a 95ED787A 		vldr.32	s14, [r5, #480]
 1100              	.LBE763:
 1101              	.LBE762:
  95:legacy_engine.h ****     return x;
 1102              		.loc 11 95 27 view .LVU300
 1103 002e F0EEE86A 		vabs.f32	s13, s17
 1104              	.LBB769:
 1105              	.LBB764:
ARM GAS  /var/folders/v1/156fk8j97zv9pzndh61fy7zm0000gn/T//ccyHp6tG.s 			page 44


  64:legacy_engine.h ****     return lastVal;
 1106              		.loc 11 64 23 view .LVU301
 1107 0032 D5ED794A 		vldr.32	s9, [r5, #484]
 1108              	.LBE764:
 1109              	.LBE769:
 1110              	.LBE761:
 1111              	.LBE760:
 1112              	.LBB778:
 1113              	.LBB757:
  64:legacy_engine.h ****     return lastVal;
 1114              		.loc 11 64 15 view .LVU302
 1115 0036 95ED869A 		vldr.32	s18, [r5, #536]
 1116              	.LBE757:
 1117              	.LBE778:
 217:legacy_engine.h **** 
 1118              		.loc 11 217 34 discriminator 1 view .LVU303
 1119 003a F4EEC67A 		vcmpe.f32	s15, s12
 1120              	.LBB779:
 1121              	.LBB758:
  64:legacy_engine.h ****     return lastVal;
 1122              		.loc 11 64 23 view .LVU304
 1123 003e D5ED875A 		vldr.32	s11, [r5, #540]
 1124              	.LBE758:
 1125              	.LBE779:
 1126              	.LBB780:
 1127              	.LBB774:
 1128              	.LBB770:
 1129              	.LBB765:
  64:legacy_engine.h ****     return lastVal;
 1130              		.loc 11 64 28 view .LVU305
 1131 0042 76EEC76A 		vsub.f32	s13, s13, s14
 1132              	.LBE765:
 1133              	.LBE770:
 1134              	.LBE774:
 1135              	.LBE780:
 219:legacy_engine.h **** 
 1136              		.loc 11 219 12 view .LVU306
 1137 0046 95ED7E5A 		vldr.32	s10, [r5, #504]	@ int
 219:legacy_engine.h **** 
 1138              		.loc 11 219 29 view .LVU307
 1139 004a D5F8F031 		ldr	r3, [r5, #496]
 217:legacy_engine.h **** 
 1140              		.loc 11 217 34 discriminator 1 view .LVU308
 1141 004e F1EE10FA 		vmrs	APSR_nzcv, FPSCR
 219:legacy_engine.h **** 
 1142              		.loc 11 219 29 view .LVU309
 1143 0052 15EE102A 		vmov	r2, s10	@ int
 1144              	.LBB781:
 1145              	.LBB775:
 1146              	.LBB771:
 1147              	.LBB766:
  64:legacy_engine.h ****     return lastVal;
 1148              		.loc 11 64 23 view .LVU310
 1149 0056 A6EEA47A 		vfma.f32	s14, s13, s9
 1150              	.LBE766:
 1151              	.LBE771:
 1152              	.LBE775:
ARM GAS  /var/folders/v1/156fk8j97zv9pzndh61fy7zm0000gn/T//ccyHp6tG.s 			page 45


 1153              	.LBE781:
 211:legacy_engine.h ****     float ampCoef = 0.0f;
 1154              		.loc 11 211 11 view .LVU311
 1155 005a DFEDAA9A 		vldr.32	s19, .L54
 219:legacy_engine.h **** 
 1156              		.loc 11 219 29 view .LVU312
 1157 005e 03EB8203 		add	r3, r3, r2, lsl #2
 217:legacy_engine.h **** 
 1158              		.loc 11 217 34 discriminator 1 view .LVU313
 1159 0062 77FE867A 		vselgt.f32	s15, s15, s12
 1160              	.LVL40:
 217:legacy_engine.h **** 
 1161              		.loc 11 217 34 discriminator 1 view .LVU314
 1162 0066 C6EE276A 		vdiv.f32	s13, s12, s15
 1163              	.LBB782:
 1164              	.LBB776:
 1165              	.LBB772:
 1166              	.LBB767:
  64:legacy_engine.h ****     return lastVal;
 1167              		.loc 11 64 13 view .LVU315
 1168 006a 85ED787A 		vstr.32	s14, [r5, #480]
 1169              	.LBE767:
 1170              	.LBE772:
  95:legacy_engine.h ****     return x;
 1171              		.loc 11 95 13 discriminator 1 view .LVU316
 1172 006e 85ED7A7A 		vstr.32	s14, [r5, #488]
 1173              	.LBE776:
 1174              	.LBE782:
 1175              	.LBB783:
 1176              	.LBB759:
  64:legacy_engine.h ****     return lastVal;
 1177              		.loc 11 64 28 view .LVU317
 1178 0072 76EEC97A 		vsub.f32	s15, s13, s18
  64:legacy_engine.h ****     return lastVal;
 1179              		.loc 11 64 23 view .LVU318
 1180 0076 A7EEA59A 		vfma.f32	s18, s15, s11
  64:legacy_engine.h ****     return lastVal;
 1181              		.loc 11 64 13 view .LVU319
 1182 007a 85ED869A 		vstr.32	s18, [r5, #536]
  65:legacy_engine.h ****   }
 1183              		.loc 11 65 5 is_stmt 1 view .LVU320
 1184              	.LVL41:
  65:legacy_engine.h ****   }
 1185              		.loc 11 65 5 is_stmt 0 view .LVU321
 1186              	.LBE759:
 1187              	.LBE783:
 219:legacy_engine.h **** 
 1188              		.loc 11 219 5 is_stmt 1 view .LVU322
 1189              	.LBB784:
 1190              	.LBI760:
  94:legacy_engine.h ****     lastVal = slew.Process(fabsf(x));
 1191              		.loc 11 94 9 view .LVU323
 1192              	.LBB777:
  95:legacy_engine.h ****     return x;
 1193              		.loc 11 95 5 view .LVU324
 1194              	.LBB773:
 1195              	.LBI762:
ARM GAS  /var/folders/v1/156fk8j97zv9pzndh61fy7zm0000gn/T//ccyHp6tG.s 			page 46


  63:legacy_engine.h ****     lastVal = lastVal + (x - lastVal) * coef;
 1196              		.loc 11 63 9 view .LVU325
 1197              	.LBB768:
  64:legacy_engine.h ****     return lastVal;
 1198              		.loc 11 64 5 view .LVU326
  65:legacy_engine.h ****   }
 1199              		.loc 11 65 5 view .LVU327
  65:legacy_engine.h ****   }
 1200              		.loc 11 65 5 is_stmt 0 view .LVU328
 1201              	.LBE768:
 1202              	.LBE773:
  96:legacy_engine.h ****   }
 1203              		.loc 11 96 5 is_stmt 1 view .LVU329
  96:legacy_engine.h ****   }
 1204              		.loc 11 96 5 is_stmt 0 view .LVU330
 1205              	.LBE777:
 1206              	.LBE784:
 219:legacy_engine.h **** 
 1207              		.loc 11 219 31 discriminator 1 view .LVU331
 1208 007e C3ED008A 		vstr.32	s17, [r3]
 221:legacy_engine.h ****       out += readHeads[i].Process((float)writeHeadPosition);
 1209              		.loc 11 221 5 is_stmt 1 view .LVU332
 1210              	.LVL42:
 1211              	.LBB785:
 221:legacy_engine.h ****       out += readHeads[i].Process((float)writeHeadPosition);
 1212              		.loc 11 221 23 discriminator 1 view .LVU333
 1213              	.L37:
 222:legacy_engine.h **** 
 1214              		.loc 11 222 7 view .LVU334
 1215              	.LBB786:
 1216              	.LBB787:
 1217              	.LBB788:
 128:legacy_engine.h ****       if (targetDelay >= 0.0f) {
 1218              		.loc 11 128 5 is_stmt 0 view .LVU335
 1219 0082 F7EE007A 		vmov.f32	s15, #1.0e+0
 1220 0086 D4ED0C6A 		vldr.32	s13, [r4, #48]
 1221              	.LBE788:
 1222              	.LBE787:
 1223              	.LBE786:
 222:legacy_engine.h **** 
 1224              		.loc 11 222 34 view .LVU336
 1225 008a B8EEC58A 		vcvt.f32.s32	s16, s10
 1226              	.LVL43:
 1227              	.LBB823:
 1228              	.LBI786:
 127:legacy_engine.h ****     if (phase >= 1.0f && (targetDelay >= 0.0f || targetAmp >= 0.0f)) {
 1229              		.loc 11 127 9 is_stmt 1 view .LVU337
 1230              	.LBB819:
 128:legacy_engine.h ****       if (targetDelay >= 0.0f) {
 1231              		.loc 11 128 5 view .LVU338
 1232              	.LBB791:
 1233 008e F4EEE76A 		vcmpe.f32	s13, s15
 1234 0092 F1EE10FA 		vmrs	APSR_nzcv, FPSCR
 1235 0096 C0F22B81 		blt	.L52
 128:legacy_engine.h ****       if (targetDelay >= 0.0f) {
 1236              		.loc 11 128 27 is_stmt 0 discriminator 1 view .LVU339
 1237 009a D4ED077A 		vldr.32	s15, [r4, #28]
ARM GAS  /var/folders/v1/156fk8j97zv9pzndh61fy7zm0000gn/T//ccyHp6tG.s 			page 47


 128:legacy_engine.h ****       if (targetDelay >= 0.0f) {
 1238              		.loc 11 128 23 discriminator 1 view .LVU340
 1239 009e F5EEC07A 		vcmpe.f32	s15, #0
 1240 00a2 F1EE10FA 		vmrs	APSR_nzcv, FPSCR
 1241 00a6 C0F21C81 		blt	.L53
 1242              	.LBB789:
 129:legacy_engine.h ****         delayA = delayB;
 1243              		.loc 11 129 7 is_stmt 1 view .LVU341
 130:legacy_engine.h ****         delayB = targetDelay;
 1244              		.loc 11 130 9 view .LVU342
 134:legacy_engine.h ****         ampA = ampB;
 1245              		.loc 11 134 11 is_stmt 0 view .LVU343
 1246 00aa 94ED0A7A 		vldr.32	s14, [r4, #40]
 130:legacy_engine.h ****         delayB = targetDelay;
 1247              		.loc 11 130 16 view .LVU344
 1248 00ae A269     		ldr	r2, [r4, #24]	@ float
 134:legacy_engine.h ****         ampA = ampB;
 1249              		.loc 11 134 7 view .LVU345
 1250 00b0 B5EEC07A 		vcmpe.f32	s14, #0
 132:legacy_engine.h ****       }
 1251              		.loc 11 132 21 view .LVU346
 1252 00b4 944B     		ldr	r3, .L54+4
 131:legacy_engine.h ****         targetDelay = -1.0f;
 1253              		.loc 11 131 16 view .LVU347
 1254 00b6 C4ED067A 		vstr.32	s15, [r4, #24]
 130:legacy_engine.h ****         delayB = targetDelay;
 1255              		.loc 11 130 16 view .LVU348
 1256 00ba 6261     		str	r2, [r4, #20]	@ float
 131:legacy_engine.h ****         targetDelay = -1.0f;
 1257              		.loc 11 131 9 is_stmt 1 view .LVU349
 132:legacy_engine.h ****       }
 1258              		.loc 11 132 9 view .LVU350
 134:legacy_engine.h ****         ampA = ampB;
 1259              		.loc 11 134 7 is_stmt 0 view .LVU351
 1260 00bc F1EE10FA 		vmrs	APSR_nzcv, FPSCR
 132:legacy_engine.h ****       }
 1261              		.loc 11 132 21 view .LVU352
 1262 00c0 E361     		str	r3, [r4, #28]	@ float
 134:legacy_engine.h ****         ampA = ampB;
 1263              		.loc 11 134 7 is_stmt 1 view .LVU353
 1264 00c2 80F21881 		bge	.L24
 1265              	.L25:
 139:legacy_engine.h ****       // Simple random for blur
 1266              		.loc 11 139 7 view .LVU354
 139:legacy_engine.h ****       // Simple random for blur
 1267              		.loc 11 139 13 is_stmt 0 view .LVU355
 1268 00c6 0023     		movs	r3, #0
 1269 00c8 2363     		str	r3, [r4, #48]	@ float
 141:legacy_engine.h ****       delta = (5.0f + (r * blurAmount)) / sampleRate;
 1270              		.loc 11 141 7 is_stmt 1 view .LVU356
 141:legacy_engine.h ****       delta = (5.0f + (r * blurAmount)) / sampleRate;
 1271              		.loc 11 141 29 is_stmt 0 view .LVU357
 1272 00ca FFF7FEFF 		bl	rand
 1273              	.LVL44:
 1274 00ce 05EE900A 		vmov	s11, r0	@ int
 141:legacy_engine.h ****       delta = (5.0f + (r * blurAmount)) / sampleRate;
 1275              		.loc 11 141 60 discriminator 1 view .LVU358
ARM GAS  /var/folders/v1/156fk8j97zv9pzndh61fy7zm0000gn/T//ccyHp6tG.s 			page 48


 1276 00d2 B0EE004A 		vmov.f32	s8, #2.0e+0
 142:legacy_engine.h ****     }
 1277              		.loc 11 142 21 view .LVU359
 1278 00d6 D4ED0E4A 		vldr.32	s9, [r4, #56]
 141:legacy_engine.h ****       delta = (5.0f + (r * blurAmount)) / sampleRate;
 1279              		.loc 11 141 60 discriminator 1 view .LVU360
 1280 00da BFEE006A 		vmov.f32	s12, #-1.0e+0
 142:legacy_engine.h ****     }
 1281              		.loc 11 142 41 view .LVU361
 1282 00de 94ED0B7A 		vldr.32	s14, [r4, #44]
 141:legacy_engine.h ****       delta = (5.0f + (r * blurAmount)) / sampleRate;
 1283              		.loc 11 141 32 discriminator 1 view .LVU362
 1284 00e2 FAEEE05A 		vcvt.f32.s32	s11, s11, #31
 1285 00e6 D4ED0C6A 		vldr.32	s13, [r4, #48]
 142:legacy_engine.h ****     }
 1286              		.loc 11 142 21 view .LVU363
 1287 00ea F1EE047A 		vmov.f32	s15, #5.0e+0
 1288 00ee 95ED7E5A 		vldr.32	s10, [r5, #504]	@ int
 141:legacy_engine.h ****       delta = (5.0f + (r * blurAmount)) / sampleRate;
 1289              		.loc 11 141 60 discriminator 1 view .LVU364
 1290 00f2 A5EE846A 		vfma.f32	s12, s11, s8
 1291              	.LVL45:
 142:legacy_engine.h ****     }
 1292              		.loc 11 142 7 is_stmt 1 view .LVU365
 142:legacy_engine.h ****     }
 1293              		.loc 11 142 21 is_stmt 0 view .LVU366
 1294 00f6 E6EE247A 		vfma.f32	s15, s12, s9
 142:legacy_engine.h ****     }
 1295              		.loc 11 142 41 view .LVU367
 1296 00fa 87EE876A 		vdiv.f32	s12, s15, s14
 1297              	.LVL46:
 142:legacy_engine.h ****     }
 1298              		.loc 11 142 13 view .LVU368
 1299 00fe 84ED0D6A 		vstr.32	s12, [r4, #52]
 1300              	.LVL47:
 1301              	.L21:
 142:legacy_engine.h ****     }
 1302              		.loc 11 142 13 view .LVU369
 1303              	.LBE789:
 1304              	.LBE791:
 145:legacy_engine.h ****         writeHeadPosition -
 1305              		.loc 11 145 5 is_stmt 1 view .LVU370
 1306              	.LBB792:
 1307              	.LBI792:
  48:legacy_engine.h ****   static int wrap_buffer_index(int x, int size) {
 1308              		.loc 11 48 14 view .LVU371
 1309              	.LBB793:
  48:legacy_engine.h ****   static int wrap_buffer_index(int x, int size) {
 1310              		.loc 11 48 54 view .LVU372
  48:legacy_engine.h ****   static int wrap_buffer_index(int x, int size) {
 1311              		.loc 11 48 69 is_stmt 0 view .LVU373
 1312 0102 D4ED057A 		vldr.32	s15, [r4, #20]
 1313              	.LBE793:
 1314              	.LBE792:
 145:legacy_engine.h ****         writeHeadPosition -
 1315              		.loc 11 145 48 view .LVU374
 1316 0106 2369     		ldr	r3, [r4, #16]
ARM GAS  /var/folders/v1/156fk8j97zv9pzndh61fy7zm0000gn/T//ccyHp6tG.s 			page 49


 1317              	.LBB795:
 1318              	.LBB794:
  48:legacy_engine.h ****   static int wrap_buffer_index(int x, int size) {
 1319              		.loc 11 48 69 view .LVU375
 1320 0108 67EE277A 		vmul.f32	s15, s14, s15
  48:legacy_engine.h ****   static int wrap_buffer_index(int x, int size) {
 1321              		.loc 11 48 73 view .LVU376
 1322 010c FDEEE77A 		vcvt.s32.f32	s15, s15
 1323              	.LBE794:
 1324              	.LBE795:
 146:legacy_engine.h ****             LegacyHelpers::seconds_to_samples(delayA, sampleRate),
 1325              		.loc 11 146 27 view .LVU377
 1326 0110 F8EEE77A 		vcvt.f32.s32	s15, s15
 1327 0114 78EE677A 		vsub.f32	s15, s16, s15
 145:legacy_engine.h ****         writeHeadPosition -
 1328              		.loc 11 145 48 view .LVU378
 1329 0118 FDEEE77A 		vcvt.s32.f32	s15, s15
 1330 011c 17EE902A 		vmov	r2, s15	@ int
 1331              	.LVL48:
 1332              	.LBB796:
 1333              	.LBI796:
  49:legacy_engine.h ****     while (x >= size)
 1334              		.loc 11 49 14 is_stmt 1 view .LVU379
 1335              	.LBB797:
  50:legacy_engine.h ****       x -= size;
 1336              		.loc 11 50 5 view .LVU380
  50:legacy_engine.h ****       x -= size;
 1337              		.loc 11 50 14 view .LVU381
 1338 0120 9A42     		cmp	r2, r3
 1339 0122 02DB     		blt	.L27
 1340              	.L28:
  51:legacy_engine.h ****     while (x < 0)
 1341              		.loc 11 51 7 view .LVU382
  51:legacy_engine.h ****     while (x < 0)
 1342              		.loc 11 51 9 is_stmt 0 view .LVU383
 1343 0124 D21A     		subs	r2, r2, r3
 1344              	.LVL49:
  50:legacy_engine.h ****       x -= size;
 1345              		.loc 11 50 14 is_stmt 1 view .LVU384
 1346 0126 9342     		cmp	r3, r2
 1347 0128 FCDD     		ble	.L28
 1348              	.L27:
  52:legacy_engine.h ****       x += size;
 1349              		.loc 11 52 14 view .LVU385
 1350 012a 002A     		cmp	r2, #0
 1351 012c 01DA     		bge	.L29
 1352              	.LVL50:
 1353              	.L30:
  53:legacy_engine.h ****     return x;
 1354              		.loc 11 53 7 view .LVU386
  52:legacy_engine.h ****       x += size;
 1355              		.loc 11 52 14 view .LVU387
 1356 012e D218     		adds	r2, r2, r3
 1357              	.LVL51:
  52:legacy_engine.h ****       x += size;
 1358              		.loc 11 52 14 is_stmt 0 view .LVU388
 1359 0130 FDD4     		bmi	.L30
ARM GAS  /var/folders/v1/156fk8j97zv9pzndh61fy7zm0000gn/T//ccyHp6tG.s 			page 50


 1360              	.LVL52:
 1361              	.L29:
  54:legacy_engine.h ****   }
 1362              		.loc 11 54 5 is_stmt 1 view .LVU389
  54:legacy_engine.h ****   }
 1363              		.loc 11 54 5 is_stmt 0 view .LVU390
 1364              	.LBE797:
 1365              	.LBE796:
 149:legacy_engine.h ****         writeHeadPosition -
 1366              		.loc 11 149 5 is_stmt 1 view .LVU391
 1367              	.LBB798:
 1368              	.LBI798:
  48:legacy_engine.h ****   static int wrap_buffer_index(int x, int size) {
 1369              		.loc 11 48 14 view .LVU392
 1370              	.LBB799:
  48:legacy_engine.h ****   static int wrap_buffer_index(int x, int size) {
 1371              		.loc 11 48 54 view .LVU393
  48:legacy_engine.h ****   static int wrap_buffer_index(int x, int size) {
 1372              		.loc 11 48 69 is_stmt 0 view .LVU394
 1373 0132 D4ED067A 		vldr.32	s15, [r4, #24]
 1374 0136 27EE277A 		vmul.f32	s14, s14, s15
  48:legacy_engine.h ****   static int wrap_buffer_index(int x, int size) {
 1375              		.loc 11 48 73 view .LVU395
 1376 013a BDEEC77A 		vcvt.s32.f32	s14, s14
 1377              	.LBE799:
 1378              	.LBE798:
 150:legacy_engine.h ****             LegacyHelpers::seconds_to_samples(delayB, sampleRate),
 1379              		.loc 11 150 27 view .LVU396
 1380 013e B8EEC77A 		vcvt.f32.s32	s14, s14
 1381 0142 38EE478A 		vsub.f32	s16, s16, s14
 1382              	.LVL53:
 149:legacy_engine.h ****         writeHeadPosition -
 1383              		.loc 11 149 48 view .LVU397
 1384 0146 FDEEC87A 		vcvt.s32.f32	s15, s16
 1385 014a 17EE901A 		vmov	r1, s15	@ int
 1386              	.LVL54:
 1387              	.LBB800:
 1388              	.LBI800:
  49:legacy_engine.h ****     while (x >= size)
 1389              		.loc 11 49 14 is_stmt 1 view .LVU398
 1390              	.LBB801:
  50:legacy_engine.h ****       x -= size;
 1391              		.loc 11 50 5 view .LVU399
  50:legacy_engine.h ****       x -= size;
 1392              		.loc 11 50 14 view .LVU400
 1393 014e 8B42     		cmp	r3, r1
 1394 0150 02DC     		bgt	.L31
 1395              	.L32:
  51:legacy_engine.h ****     while (x < 0)
 1396              		.loc 11 51 7 view .LVU401
  51:legacy_engine.h ****     while (x < 0)
 1397              		.loc 11 51 9 is_stmt 0 view .LVU402
 1398 0152 C91A     		subs	r1, r1, r3
 1399              	.LVL55:
  50:legacy_engine.h ****       x -= size;
 1400              		.loc 11 50 14 is_stmt 1 view .LVU403
 1401 0154 8B42     		cmp	r3, r1
ARM GAS  /var/folders/v1/156fk8j97zv9pzndh61fy7zm0000gn/T//ccyHp6tG.s 			page 51


 1402 0156 FCDD     		ble	.L32
 1403              	.L31:
  52:legacy_engine.h ****       x += size;
 1404              		.loc 11 52 14 view .LVU404
 1405 0158 0029     		cmp	r1, #0
 1406 015a 01DA     		bge	.L33
 1407              	.LVL56:
 1408              	.L34:
  53:legacy_engine.h ****     return x;
 1409              		.loc 11 53 7 view .LVU405
  52:legacy_engine.h ****       x += size;
 1410              		.loc 11 52 14 view .LVU406
 1411 015c C918     		adds	r1, r1, r3
 1412              	.LVL57:
  52:legacy_engine.h ****       x += size;
 1413              		.loc 11 52 14 is_stmt 0 view .LVU407
 1414 015e FDD4     		bmi	.L34
 1415              	.LVL58:
 1416              	.L33:
  54:legacy_engine.h ****   }
 1417              		.loc 11 54 5 is_stmt 1 view .LVU408
  54:legacy_engine.h ****   }
 1418              		.loc 11 54 5 is_stmt 0 view .LVU409
 1419              	.LBE801:
 1420              	.LBE800:
 154:legacy_engine.h ****     float outB = buffer[idxB];
 1421              		.loc 11 154 5 is_stmt 1 view .LVU410
 157:legacy_engine.h ****     float outputAmp = ((1.0f - phase) * ampA) + (phase * ampB);
 1422              		.loc 11 157 27 is_stmt 0 view .LVU411
 1423 0160 B7EE007A 		vmov.f32	s14, #1.0e+0
 154:legacy_engine.h ****     float outB = buffer[idxB];
 1424              		.loc 11 154 18 view .LVU412
 1425 0164 E368     		ldr	r3, [r4, #12]
 1426              	.LVL59:
 155:legacy_engine.h **** 
 1427              		.loc 11 155 5 is_stmt 1 view .LVU413
 157:legacy_engine.h ****     float outputAmp = ((1.0f - phase) * ampA) + (phase * ampB);
 1428              		.loc 11 157 5 view .LVU414
 158:legacy_engine.h **** 
 1429              		.loc 11 158 56 is_stmt 0 view .LVU415
 1430 0166 94ED096A 		vldr.32	s12, [r4, #36]
 155:legacy_engine.h **** 
 1431              		.loc 11 155 11 view .LVU416
 1432 016a 03EB8101 		add	r1, r3, r1, lsl #2
 1433              	.LVL60:
 158:legacy_engine.h **** 
 1434              		.loc 11 158 11 view .LVU417
 1435 016e 94ED084A 		vldr.32	s8, [r4, #32]
 160:legacy_engine.h ****     return loudness.Process(output) * outputAmp;
 1436              		.loc 11 160 27 view .LVU418
 1437 0172 F4EEC76A 		vcmpe.f32	s13, s14
 154:legacy_engine.h ****     float outB = buffer[idxB];
 1438              		.loc 11 154 11 view .LVU419
 1439 0176 03EB8203 		add	r3, r3, r2, lsl #2
 1440              	.LVL61:
 157:legacy_engine.h ****     float outputAmp = ((1.0f - phase) * ampA) + (phase * ampB);
 1441              		.loc 11 157 53 view .LVU420
ARM GAS  /var/folders/v1/156fk8j97zv9pzndh61fy7zm0000gn/T//ccyHp6tG.s 			page 52


 1442 017a D1ED007A 		vldr.32	s15, [r1]
 157:legacy_engine.h ****     float outputAmp = ((1.0f - phase) * ampA) + (phase * ampB);
 1443              		.loc 11 157 27 view .LVU421
 1444 017e 77EE665A 		vsub.f32	s11, s14, s13
 158:legacy_engine.h **** 
 1445              		.loc 11 158 56 view .LVU422
 1446 0182 26EE866A 		vmul.f32	s12, s13, s12
 157:legacy_engine.h ****     float outputAmp = ((1.0f - phase) * ampA) + (phase * ampB);
 1447              		.loc 11 157 11 view .LVU423
 1448 0186 D3ED004A 		vldr.32	s9, [r3]
 157:legacy_engine.h ****     float outputAmp = ((1.0f - phase) * ampA) + (phase * ampB);
 1449              		.loc 11 157 53 view .LVU424
 1450 018a 66EEA77A 		vmul.f32	s15, s13, s15
 160:legacy_engine.h ****     return loudness.Process(output) * outputAmp;
 1451              		.loc 11 160 27 view .LVU425
 1452 018e F1EE10FA 		vmrs	APSR_nzcv, FPSCR
 158:legacy_engine.h **** 
 1453              		.loc 11 158 11 view .LVU426
 1454 0192 A5EE846A 		vfma.f32	s12, s11, s8
 157:legacy_engine.h ****     float outputAmp = ((1.0f - phase) * ampA) + (phase * ampB);
 1455              		.loc 11 157 11 view .LVU427
 1456 0196 E4EEA57A 		vfma.f32	s15, s9, s11
 1457              	.LVL62:
 158:legacy_engine.h **** 
 1458              		.loc 11 158 5 is_stmt 1 view .LVU428
 160:legacy_engine.h ****     return loudness.Process(output) * outputAmp;
 1459              		.loc 11 160 5 view .LVU429
 160:legacy_engine.h ****     return loudness.Process(output) * outputAmp;
 1460              		.loc 11 160 27 is_stmt 0 view .LVU430
 1461 019a 03D8     		bhi	.L35
 160:legacy_engine.h ****     return loudness.Process(output) * outputAmp;
 1462              		.loc 11 160 27 discriminator 1 view .LVU431
 1463 019c 94ED0D7A 		vldr.32	s14, [r4, #52]
 1464 01a0 36EE877A 		vadd.f32	s14, s13, s14
 1465              	.L35:
 1466              	.LBB802:
 1467              	.LBB803:
  95:legacy_engine.h ****     return x;
 1468              		.loc 11 95 27 view .LVU432
 1469 01a4 F0EEE75A 		vabs.f32	s11, s15
 1470              	.LBB804:
 1471              	.LBB805:
  64:legacy_engine.h ****     return lastVal;
 1472              		.loc 11 64 15 view .LVU433
 1473 01a8 D4ED006A 		vldr.32	s13, [r4]
 1474              	.LBE805:
 1475              	.LBE804:
 1476              	.LBE803:
 1477              	.LBE802:
 160:legacy_engine.h ****     return loudness.Process(output) * outputAmp;
 1478              		.loc 11 160 11 discriminator 4 view .LVU434
 1479 01ac 84ED0C7A 		vstr.32	s14, [r4, #48]
 1480              	.LVL63:
 161:legacy_engine.h ****   }
 1481              		.loc 11 161 5 is_stmt 1 view .LVU435
 1482              	.LBB815:
 1483              	.LBI802:
ARM GAS  /var/folders/v1/156fk8j97zv9pzndh61fy7zm0000gn/T//ccyHp6tG.s 			page 53


  94:legacy_engine.h ****     lastVal = slew.Process(fabsf(x));
 1484              		.loc 11 94 9 view .LVU436
 1485              	.LBB812:
  95:legacy_engine.h ****     return x;
 1486              		.loc 11 95 5 view .LVU437
 1487              	.LBB809:
 1488              	.LBI804:
  63:legacy_engine.h ****     lastVal = lastVal + (x - lastVal) * coef;
 1489              		.loc 11 63 9 view .LVU438
 1490              	.LBB806:
  64:legacy_engine.h ****     return lastVal;
 1491              		.loc 11 64 5 view .LVU439
 1492              	.LBE806:
 1493              	.LBE809:
 1494              	.LBE812:
 1495              	.LBE815:
 1496              	.LBE819:
 1497              	.LBE823:
 222:legacy_engine.h **** 
 1498              		.loc 11 222 11 is_stmt 0 discriminator 1 view .LVU440
 1499 01b0 E7EE869A 		vfma.f32	s19, s15, s12
 1500              	.LVL64:
 1501              	.LBB824:
 1502              	.LBB820:
 1503              	.LBB816:
 1504              	.LBB813:
 1505              	.LBB810:
 1506              	.LBB807:
  64:legacy_engine.h ****     return lastVal;
 1507              		.loc 11 64 23 view .LVU441
 1508 01b4 F0EE667A 		vmov.f32	s15, s13
 1509              	.LVL65:
  64:legacy_engine.h ****     return lastVal;
 1510              		.loc 11 64 23 view .LVU442
 1511 01b8 D4ED014A 		vldr.32	s9, [r4, #4]
 1512              	.LVL66:
  64:legacy_engine.h ****     return lastVal;
 1513              		.loc 11 64 28 view .LVU443
 1514 01bc 35EEE67A 		vsub.f32	s14, s11, s13
 1515              	.LBE807:
 1516              	.LBE810:
 1517              	.LBE813:
 1518              	.LBE816:
 1519              	.LBE820:
 1520              	.LBE824:
 221:legacy_engine.h ****       out += readHeads[i].Process((float)writeHeadPosition);
 1521              		.loc 11 221 23 discriminator 1 view .LVU444
 1522 01c0 3C34     		adds	r4, r4, #60
 1523              	.LVL67:
 221:legacy_engine.h ****       out += readHeads[i].Process((float)writeHeadPosition);
 1524              		.loc 11 221 23 discriminator 1 view .LVU445
 1525 01c2 A642     		cmp	r6, r4
 1526              	.LBB825:
 1527              	.LBB821:
 1528              	.LBB817:
 1529              	.LBB814:
 1530              	.LBB811:
ARM GAS  /var/folders/v1/156fk8j97zv9pzndh61fy7zm0000gn/T//ccyHp6tG.s 			page 54


 1531              	.LBB808:
  64:legacy_engine.h ****     return lastVal;
 1532              		.loc 11 64 23 view .LVU446
 1533 01c4 E7EE247A 		vfma.f32	s15, s14, s9
  64:legacy_engine.h ****     return lastVal;
 1534              		.loc 11 64 13 view .LVU447
 1535 01c8 44ED0F7A 		vstr.32	s15, [r4, #-60]
  65:legacy_engine.h ****   }
 1536              		.loc 11 65 5 is_stmt 1 view .LVU448
 1537              	.LVL68:
  65:legacy_engine.h ****   }
 1538              		.loc 11 65 5 is_stmt 0 view .LVU449
 1539              	.LBE808:
 1540              	.LBE811:
  95:legacy_engine.h ****     return x;
 1541              		.loc 11 95 13 discriminator 1 view .LVU450
 1542 01cc 44ED0D7A 		vstr.32	s15, [r4, #-52]
  96:legacy_engine.h ****   }
 1543              		.loc 11 96 5 is_stmt 1 view .LVU451
 1544              	.LVL69:
  96:legacy_engine.h ****   }
 1545              		.loc 11 96 5 is_stmt 0 view .LVU452
 1546              	.LBE814:
 1547              	.LBE817:
 1548              	.LBE821:
 1549              	.LBE825:
 221:legacy_engine.h ****       out += readHeads[i].Process((float)writeHeadPosition);
 1550              		.loc 11 221 5 is_stmt 1 discriminator 3 view .LVU453
 221:legacy_engine.h ****       out += readHeads[i].Process((float)writeHeadPosition);
 1551              		.loc 11 221 23 discriminator 1 view .LVU454
 1552 01d0 7FF457AF 		bne	.L37
 1553              	.LBE785:
 225:legacy_engine.h **** 
 1554              		.loc 11 225 5 view .LVU455
 1555              	.LVL70:
 1556              	.LBB827:
 1557              	.LBI827:
  39:../temp_time_machine/DaisyExamples/DaisySP//DaisySP-LGPL/Source/Dynamics/compressor.h ****     /** Initializes compressor
  40:../temp_time_machine/DaisyExamples/DaisySP//DaisySP-LGPL/Source/Dynamics/compressor.h ****         \param sample_rate rate at which samples will be produced by the audio engine.
  41:../temp_time_machine/DaisyExamples/DaisySP//DaisySP-LGPL/Source/Dynamics/compressor.h ****     */
  42:../temp_time_machine/DaisyExamples/DaisySP//DaisySP-LGPL/Source/Dynamics/compressor.h ****     void Init(float sample_rate);
  43:../temp_time_machine/DaisyExamples/DaisySP//DaisySP-LGPL/Source/Dynamics/compressor.h **** 
  44:../temp_time_machine/DaisyExamples/DaisySP//DaisySP-LGPL/Source/Dynamics/compressor.h ****     /** Compress the audio input signal, saves the calculated gain
  45:../temp_time_machine/DaisyExamples/DaisySP//DaisySP-LGPL/Source/Dynamics/compressor.h ****         \param in audio input signal
  46:../temp_time_machine/DaisyExamples/DaisySP//DaisySP-LGPL/Source/Dynamics/compressor.h ****     */
  47:../temp_time_machine/DaisyExamples/DaisySP//DaisySP-LGPL/Source/Dynamics/compressor.h ****     float Process(float in);
  48:../temp_time_machine/DaisyExamples/DaisySP//DaisySP-LGPL/Source/Dynamics/compressor.h **** 
  49:../temp_time_machine/DaisyExamples/DaisySP//DaisySP-LGPL/Source/Dynamics/compressor.h ****     /** Compresses the audio input signal, keyed by a secondary input.
  50:../temp_time_machine/DaisyExamples/DaisySP//DaisySP-LGPL/Source/Dynamics/compressor.h ****         \param in audio input signal (to be compressed)
  51:../temp_time_machine/DaisyExamples/DaisySP//DaisySP-LGPL/Source/Dynamics/compressor.h ****         \param key audio input that will be used to side-chain the compressor
  52:../temp_time_machine/DaisyExamples/DaisySP//DaisySP-LGPL/Source/Dynamics/compressor.h ****     */
  53:../temp_time_machine/DaisyExamples/DaisySP//DaisySP-LGPL/Source/Dynamics/compressor.h ****     float Process(float in, float key)
 1558              		.loc 12 53 11 view .LVU456
 1559              	.LBB828:
  54:../temp_time_machine/DaisyExamples/DaisySP//DaisySP-LGPL/Source/Dynamics/compressor.h ****     {
  55:../temp_time_machine/DaisyExamples/DaisySP//DaisySP-LGPL/Source/Dynamics/compressor.h ****         Process(key);
 1560              		.loc 12 55 9 view .LVU457
ARM GAS  /var/folders/v1/156fk8j97zv9pzndh61fy7zm0000gn/T//ccyHp6tG.s 			page 55


 1561              	.LBE828:
 1562              	.LBE827:
 225:legacy_engine.h **** 
 1563              		.loc 11 225 59 is_stmt 0 view .LVU458
 1564 01d4 15EE102A 		vmov	r2, s10	@ int
 1565              	.LVL71:
 225:legacy_engine.h **** 
 1566              		.loc 11 225 59 view .LVU459
 1567 01d8 D5F8F031 		ldr	r3, [r5, #496]
 1568              	.LBB839:
 1569              	.LBB835:
 1570              		.loc 12 55 16 view .LVU460
 1571 01dc 05F50C70 		add	r0, r5, #560
 1572              	.LVL72:
 1573              		.loc 12 55 16 view .LVU461
 1574              	.LBE835:
 1575              	.LBE839:
 225:legacy_engine.h **** 
 1576              		.loc 11 225 59 view .LVU462
 1577 01e0 03EB8203 		add	r3, r3, r2, lsl #2
 225:legacy_engine.h **** 
 1578              		.loc 11 225 29 view .LVU463
 1579 01e4 93ED000A 		vldr.32	s0, [r3]
 1580              	.LBB840:
 1581              	.LBB836:
 1582              		.loc 12 55 16 view .LVU464
 1583 01e8 39EE800A 		vadd.f32	s0, s19, s0
 1584 01ec FFF7FEFF 		bl	_ZN7daisysp10Compressor7ProcessEf
 1585              	.LVL73:
  56:../temp_time_machine/DaisyExamples/DaisySP//DaisySP-LGPL/Source/Dynamics/compressor.h ****         return Apply(in);
 1586              		.loc 12 56 9 is_stmt 1 view .LVU465
 1587              	.LBB829:
 1588              	.LBI829:
  57:../temp_time_machine/DaisyExamples/DaisySP//DaisySP-LGPL/Source/Dynamics/compressor.h ****     }
  58:../temp_time_machine/DaisyExamples/DaisySP//DaisySP-LGPL/Source/Dynamics/compressor.h **** 
  59:../temp_time_machine/DaisyExamples/DaisySP//DaisySP-LGPL/Source/Dynamics/compressor.h ****     /** Apply compression to the audio signal, based on the previously calculated gain
  60:../temp_time_machine/DaisyExamples/DaisySP//DaisySP-LGPL/Source/Dynamics/compressor.h ****         \param in audio input signal
  61:../temp_time_machine/DaisyExamples/DaisySP//DaisySP-LGPL/Source/Dynamics/compressor.h ****     */
  62:../temp_time_machine/DaisyExamples/DaisySP//DaisySP-LGPL/Source/Dynamics/compressor.h ****     float Apply(float in) { return gain_ * in; }
 1589              		.loc 12 62 11 view .LVU466
 1590              	.LBB830:
 1591              		.loc 12 62 29 view .LVU467
 1592              	.LBE830:
 1593              	.LBE829:
 1594              	.LBE836:
 1595              	.LBE840:
 1596              	.LBB841:
 1597              	.LBB842:
  64:legacy_engine.h ****     return lastVal;
 1598              		.loc 11 64 15 is_stmt 0 view .LVU468
 1599 01f0 95ED847A 		vldr.32	s14, [r5, #528]
  64:legacy_engine.h ****     return lastVal;
 1600              		.loc 11 64 28 view .LVU469
 1601 01f4 D5ED807A 		vldr.32	s15, [r5, #512]
  64:legacy_engine.h ****     return lastVal;
 1602              		.loc 11 64 23 view .LVU470
 1603 01f8 95ED856A 		vldr.32	s12, [r5, #532]
ARM GAS  /var/folders/v1/156fk8j97zv9pzndh61fy7zm0000gn/T//ccyHp6tG.s 			page 56


  64:legacy_engine.h ****     return lastVal;
 1604              		.loc 11 64 28 view .LVU471
 1605 01fc 77EEC77A 		vsub.f32	s15, s15, s14
 1606              	.LBE842:
 1607              	.LBE841:
 1608              	.LBB846:
 1609              	.LBB837:
 1610              	.LBB833:
 1611              	.LBB831:
 1612              		.loc 12 62 44 view .LVU472
 1613 0200 D5ED916A 		vldr.32	s13, [r5, #580]
 1614              	.LBE831:
 1615              	.LBE833:
 1616              	.LBE837:
 1617              	.LBE846:
 227:legacy_engine.h ****                    (out * feedbackSlew.Process(feedback) * ampCoef);
 1618              		.loc 11 227 27 view .LVU473
 1619 0204 D5F8F831 		ldr	r3, [r5, #504]
 1620              	.LBB847:
 1621              	.LBB838:
 1622              	.LBB834:
 1623              	.LBB832:
 1624              		.loc 12 62 44 view .LVU474
 1625 0208 69EEA69A 		vmul.f32	s19, s19, s13
 1626              	.LVL74:
 1627              		.loc 12 62 44 view .LVU475
 1628              	.LBE832:
 1629              	.LBE834:
 1630              	.LBE838:
 1631              	.LBE847:
 227:legacy_engine.h ****                    (out * feedbackSlew.Process(feedback) * ampCoef);
 1632              		.loc 11 227 5 is_stmt 1 view .LVU476
 227:legacy_engine.h ****                    (out * feedbackSlew.Process(feedback) * ampCoef);
 1633              		.loc 11 227 44 is_stmt 0 view .LVU477
 1634 020c D5F8F021 		ldr	r2, [r5, #496]
 1635              	.LBB848:
 1636              	.LBB843:
  64:legacy_engine.h ****     return lastVal;
 1637              		.loc 11 64 23 view .LVU478
 1638 0210 A7EE867A 		vfma.f32	s14, s15, s12
 1639              	.LBE843:
 1640              	.LBE848:
 1641              	.LBB849:
 1642              	.LBB850:
  79:legacy_engine.h ****       gainCoef = targetGainCoef;
 1643              		.loc 11 79 26 view .LVU479
 1644 0214 D5ED8A5A 		vldr.32	s11, [r5, #552]
 1645              	.LBE850:
 1646              	.LBE849:
 227:legacy_engine.h ****                    (out * feedbackSlew.Process(feedback) * ampCoef);
 1647              		.loc 11 227 44 view .LVU480
 1648 0218 02EB8302 		add	r2, r2, r3, lsl #2
 1649              	.LBB854:
 1650              	.LBB851:
  78:legacy_engine.h ****     if (targetGainCoef < gainCoef) {
 1651              		.loc 11 78 59 discriminator 1 view .LVU481
 1652 021c F7EE006A 		vmov.f32	s13, #1.0e+0
ARM GAS  /var/folders/v1/156fk8j97zv9pzndh61fy7zm0000gn/T//ccyHp6tG.s 			page 57


 1653              	.LBE851:
 1654              	.LBE854:
 227:legacy_engine.h ****                    (out * feedbackSlew.Process(feedback) * ampCoef);
 1655              		.loc 11 227 44 view .LVU482
 1656 0220 D2ED007A 		vldr.32	s15, [r2]
 1657              	.LVL75:
 1658              	.LBB855:
 1659              	.LBI841:
  63:legacy_engine.h ****     lastVal = lastVal + (x - lastVal) * coef;
 1660              		.loc 11 63 9 is_stmt 1 view .LVU483
 1661              	.LBB844:
  64:legacy_engine.h ****     return lastVal;
 1662              		.loc 11 64 5 view .LVU484
 1663              	.LBE844:
 1664              	.LBE855:
 228:legacy_engine.h ****     buffer[writeHeadPosition] = -feedbackLimiter.Process(fb_val);
 1665              		.loc 11 228 25 is_stmt 0 discriminator 1 view .LVU485
 1666 0224 27EE296A 		vmul.f32	s12, s14, s19
 1667              	.LBB856:
 1668              	.LBB845:
  64:legacy_engine.h ****     return lastVal;
 1669              		.loc 11 64 13 view .LVU486
 1670 0228 85ED847A 		vstr.32	s14, [r5, #528]
  65:legacy_engine.h ****   }
 1671              		.loc 11 65 5 is_stmt 1 view .LVU487
 1672              	.LVL76:
  65:legacy_engine.h ****   }
 1673              		.loc 11 65 5 is_stmt 0 view .LVU488
 1674              	.LBE845:
 1675              	.LBE856:
 228:legacy_engine.h ****     buffer[writeHeadPosition] = -feedbackLimiter.Process(fb_val);
 1676              		.loc 11 228 67 discriminator 1 view .LVU489
 1677 022c E6EE097A 		vfma.f32	s15, s12, s18
 1678              	.LVL77:
 229:legacy_engine.h **** 
 1679              		.loc 11 229 5 is_stmt 1 view .LVU490
 1680              	.LBB857:
 1681              	.LBI849:
  77:legacy_engine.h ****     float targetGainCoef = 1.0f / std::max(fabsf(in), 1.0f);
 1682              		.loc 11 77 9 view .LVU491
 1683              	.LBB852:
  78:legacy_engine.h ****     if (targetGainCoef < gainCoef) {
 1684              		.loc 11 78 5 view .LVU492
  78:legacy_engine.h ****     if (targetGainCoef < gainCoef) {
 1685              		.loc 11 78 49 is_stmt 0 view .LVU493
 1686 0230 B0EEE77A 		vabs.f32	s14, s15
  78:legacy_engine.h ****     if (targetGainCoef < gainCoef) {
 1687              		.loc 11 78 59 discriminator 1 view .LVU494
 1688 0234 B4EEE67A 		vcmpe.f32	s14, s13
 1689 0238 F1EE10FA 		vmrs	APSR_nzcv, FPSCR
 1690 023c 54BF     		ite	pl
 1691 023e B0EE476A 		vmovpl.f32	s12, s14
 1692 0242 B0EE666A 		vmovmi.f32	s12, s13
 1693 0246 86EE867A 		vdiv.f32	s14, s13, s12
 1694              	.LVL78:
  79:legacy_engine.h ****       gainCoef = targetGainCoef;
 1695              		.loc 11 79 5 is_stmt 1 view .LVU495
ARM GAS  /var/folders/v1/156fk8j97zv9pzndh61fy7zm0000gn/T//ccyHp6tG.s 			page 58


 1696 024a B4EEE57A 		vcmpe.f32	s14, s11
 1697 024e F1EE10FA 		vmrs	APSR_nzcv, FPSCR
 1698 0252 07D4     		bmi	.L38
  82:legacy_engine.h ****     }
 1699              		.loc 11 82 7 view .LVU496
  82:legacy_engine.h ****     }
 1700              		.loc 11 82 37 is_stmt 0 view .LVU497
 1701 0254 95ED8B6A 		vldr.32	s12, [r5, #556]
  82:legacy_engine.h ****     }
 1702              		.loc 11 82 35 view .LVU498
 1703 0258 76EEC66A 		vsub.f32	s13, s13, s12
  82:legacy_engine.h ****     }
 1704              		.loc 11 82 67 view .LVU499
 1705 025c 27EE067A 		vmul.f32	s14, s14, s12
 1706              	.LVL79:
  82:legacy_engine.h ****     }
 1707              		.loc 11 82 50 view .LVU500
 1708 0260 A5EEA67A 		vfma.f32	s14, s11, s13
 1709              	.L38:
 1710              	.LBE852:
 1711              	.LBE857:
 229:legacy_engine.h **** 
 1712              		.loc 11 229 33 discriminator 1 view .LVU501
 1713 0264 67EEC77A 		vnmul.f32	s15, s15, s14
 1714              	.LVL80:
 229:legacy_engine.h **** 
 1715              		.loc 11 229 33 discriminator 1 view .LVU502
 1716 0268 85ED8A7A 		vstr.32	s14, [r5, #552]
 1717              	.LBB858:
 1718              	.LBB853:
  84:legacy_engine.h ****   }
 1719              		.loc 11 84 5 is_stmt 1 view .LVU503
 1720              	.LVL81:
  84:legacy_engine.h ****   }
 1721              		.loc 11 84 5 is_stmt 0 view .LVU504
 1722              	.LBE853:
 1723              	.LBE858:
 1724              	.LBB859:
 1725              	.LBB860:
  78:legacy_engine.h ****     if (targetGainCoef < gainCoef) {
 1726              		.loc 11 78 59 discriminator 1 view .LVU505
 1727 026c B7EE007A 		vmov.f32	s14, #1.0e+0
 1728              	.LBE860:
 1729              	.LBE859:
 229:legacy_engine.h **** 
 1730              		.loc 11 229 31 discriminator 1 view .LVU506
 1731 0270 C2ED007A 		vstr.32	s15, [r2]
 231:legacy_engine.h ****         outputLimiter.Process(out + in * dryAmpSlew.Process(dryAmp));
 1732              		.loc 11 231 5 is_stmt 1 view .LVU507
 1733              	.LVL82:
 1734              	.LBB864:
 1735              	.LBI864:
  63:legacy_engine.h ****     lastVal = lastVal + (x - lastVal) * coef;
 1736              		.loc 11 63 9 view .LVU508
 1737              	.LBB865:
  64:legacy_engine.h ****     return lastVal;
 1738              		.loc 11 64 5 view .LVU509
ARM GAS  /var/folders/v1/156fk8j97zv9pzndh61fy7zm0000gn/T//ccyHp6tG.s 			page 59


  64:legacy_engine.h ****     return lastVal;
 1739              		.loc 11 64 15 is_stmt 0 view .LVU510
 1740 0274 D5ED827A 		vldr.32	s15, [r5, #520]
  64:legacy_engine.h ****     return lastVal;
 1741              		.loc 11 64 28 view .LVU511
 1742 0278 D5ED7F6A 		vldr.32	s13, [r5, #508]
  64:legacy_engine.h ****     return lastVal;
 1743              		.loc 11 64 23 view .LVU512
 1744 027c D5ED835A 		vldr.32	s11, [r5, #524]
  64:legacy_engine.h ****     return lastVal;
 1745              		.loc 11 64 28 view .LVU513
 1746 0280 76EEE76A 		vsub.f32	s13, s13, s15
 1747              	.LBE865:
 1748              	.LBE864:
 1749              	.LBB868:
 1750              	.LBB861:
  79:legacy_engine.h ****       gainCoef = targetGainCoef;
 1751              		.loc 11 79 26 view .LVU514
 1752 0284 95ED886A 		vldr.32	s12, [r5, #544]
 1753              	.LBE861:
 1754              	.LBE868:
 1755              	.LBB869:
 1756              	.LBB866:
  64:legacy_engine.h ****     return lastVal;
 1757              		.loc 11 64 23 view .LVU515
 1758 0288 E6EEA57A 		vfma.f32	s15, s13, s11
 1759              	.LBE866:
 1760              	.LBE869:
 232:legacy_engine.h **** 
 1761              		.loc 11 232 30 discriminator 1 view .LVU516
 1762 028c E8EEA79A 		vfma.f32	s19, s17, s15
 1763              	.LVL83:
 1764              	.LBB870:
 1765              	.LBB867:
  64:legacy_engine.h ****     return lastVal;
 1766              		.loc 11 64 13 view .LVU517
 1767 0290 C5ED827A 		vstr.32	s15, [r5, #520]
  65:legacy_engine.h ****   }
 1768              		.loc 11 65 5 is_stmt 1 view .LVU518
 1769              	.LVL84:
  65:legacy_engine.h ****   }
 1770              		.loc 11 65 5 is_stmt 0 view .LVU519
 1771              	.LBE867:
 1772              	.LBE870:
 1773              	.LBB871:
 1774              	.LBI859:
  77:legacy_engine.h ****     float targetGainCoef = 1.0f / std::max(fabsf(in), 1.0f);
 1775              		.loc 11 77 9 is_stmt 1 view .LVU520
 1776              	.LBB862:
  78:legacy_engine.h ****     if (targetGainCoef < gainCoef) {
 1777              		.loc 11 78 5 view .LVU521
  78:legacy_engine.h ****     if (targetGainCoef < gainCoef) {
 1778              		.loc 11 78 49 is_stmt 0 view .LVU522
 1779 0294 F0EEE97A 		vabs.f32	s15, s19
  78:legacy_engine.h ****     if (targetGainCoef < gainCoef) {
 1780              		.loc 11 78 59 discriminator 1 view .LVU523
 1781 0298 F4EEC77A 		vcmpe.f32	s15, s14
ARM GAS  /var/folders/v1/156fk8j97zv9pzndh61fy7zm0000gn/T//ccyHp6tG.s 			page 60


 1782 029c F1EE10FA 		vmrs	APSR_nzcv, FPSCR
 1783 02a0 48BF     		it	mi
 1784 02a2 F0EE477A 		vmovmi.f32	s15, s14
 1785 02a6 87EE270A 		vdiv.f32	s0, s14, s15
 1786              	.LVL85:
  79:legacy_engine.h ****       gainCoef = targetGainCoef;
 1787              		.loc 11 79 5 is_stmt 1 view .LVU524
 1788 02aa B4EEC60A 		vcmpe.f32	s0, s12
 1789 02ae F1EE10FA 		vmrs	APSR_nzcv, FPSCR
 1790 02b2 07D4     		bmi	.L39
  82:legacy_engine.h ****     }
 1791              		.loc 11 82 7 view .LVU525
  82:legacy_engine.h ****     }
 1792              		.loc 11 82 37 is_stmt 0 view .LVU526
 1793 02b4 D5ED897A 		vldr.32	s15, [r5, #548]
  82:legacy_engine.h ****     }
 1794              		.loc 11 82 35 view .LVU527
 1795 02b8 37EE677A 		vsub.f32	s14, s14, s15
  82:legacy_engine.h ****     }
 1796              		.loc 11 82 67 view .LVU528
 1797 02bc 20EE270A 		vmul.f32	s0, s0, s15
 1798              	.LVL86:
  82:legacy_engine.h ****     }
 1799              		.loc 11 82 50 view .LVU529
 1800 02c0 A6EE070A 		vfma.f32	s0, s12, s14
 1801              	.L39:
 1802              	.LBE862:
 1803              	.LBE871:
 234:legacy_engine.h ****     if (writeHeadPosition >= bufferSize)
 1804              		.loc 11 234 22 view .LVU530
 1805 02c4 0133     		adds	r3, r3, #1
 235:legacy_engine.h ****       writeHeadPosition = 0;
 1806              		.loc 11 235 5 view .LVU531
 1807 02c6 D5F8F421 		ldr	r2, [r5, #500]
 1808 02ca 85ED880A 		vstr.32	s0, [r5, #544]
 1809              	.LBB872:
 1810              	.LBB863:
  84:legacy_engine.h ****   }
 1811              		.loc 11 84 5 is_stmt 1 view .LVU532
 1812              	.LVL87:
  84:legacy_engine.h ****   }
 1813              		.loc 11 84 5 is_stmt 0 view .LVU533
 1814              	.LBE863:
 1815              	.LBE872:
 234:legacy_engine.h ****     if (writeHeadPosition >= bufferSize)
 1816              		.loc 11 234 5 is_stmt 1 view .LVU534
 235:legacy_engine.h ****       writeHeadPosition = 0;
 1817              		.loc 11 235 5 view .LVU535
 239:legacy_engine.h **** };
 1818              		.loc 11 239 3 is_stmt 0 view .LVU536
 1819 02ce 20EE290A 		vmul.f32	s0, s0, s19
 1820              	.LVL88:
 236:legacy_engine.h **** 
 1821              		.loc 11 236 25 view .LVU537
 1822 02d2 9342     		cmp	r3, r2
 1823 02d4 A8BF     		it	ge
 1824 02d6 0023     		movge	r3, #0
ARM GAS  /var/folders/v1/156fk8j97zv9pzndh61fy7zm0000gn/T//ccyHp6tG.s 			page 61


 1825 02d8 C5F8F831 		str	r3, [r5, #504]
 238:legacy_engine.h ****   }
 1826              		.loc 11 238 5 is_stmt 1 view .LVU538
 1827              	.LVL89:
 239:legacy_engine.h **** };
 1828              		.loc 11 239 3 is_stmt 0 view .LVU539
 1829 02dc BDEC048B 		vldm	sp!, {d8-d9}
 1830              		.cfi_remember_state
 1831              		.cfi_restore 82
 1832              		.cfi_restore 83
 1833              		.cfi_restore 80
 1834              		.cfi_restore 81
 1835              		.cfi_def_cfa_offset 16
 1836 02e0 70BD     		pop	{r4, r5, r6, pc}
 1837              	.LVL90:
 1838              	.L53:
 1839              		.cfi_restore_state
 1840              	.LBB873:
 1841              	.LBB826:
 1842              	.LBB822:
 1843              	.LBB818:
 128:legacy_engine.h ****       if (targetDelay >= 0.0f) {
 1844              		.loc 11 128 50 discriminator 2 view .LVU540
 1845 02e2 94ED0A7A 		vldr.32	s14, [r4, #40]
 128:legacy_engine.h ****       if (targetDelay >= 0.0f) {
 1846              		.loc 11 128 47 discriminator 2 view .LVU541
 1847 02e6 B5EEC07A 		vcmpe.f32	s14, #0
 1848 02ea F1EE10FA 		vmrs	APSR_nzcv, FPSCR
 1849 02ee 02DA     		bge	.L24
 1850              	.L52:
 128:legacy_engine.h ****       if (targetDelay >= 0.0f) {
 1851              		.loc 11 128 47 discriminator 2 view .LVU542
 1852 02f0 94ED0B7A 		vldr.32	s14, [r4, #44]
 1853 02f4 05E7     		b	.L21
 1854              	.L24:
 1855              	.LBB790:
 135:legacy_engine.h ****         ampB = targetAmp;
 1856              		.loc 11 135 9 is_stmt 1 view .LVU543
 135:legacy_engine.h ****         ampB = targetAmp;
 1857              		.loc 11 135 14 is_stmt 0 view .LVU544
 1858 02f6 626A     		ldr	r2, [r4, #36]	@ float
 137:legacy_engine.h ****       }
 1859              		.loc 11 137 19 view .LVU545
 1860 02f8 034B     		ldr	r3, .L54+4
 136:legacy_engine.h ****         targetAmp = -1.0f;
 1861              		.loc 11 136 14 view .LVU546
 1862 02fa 84ED097A 		vstr.32	s14, [r4, #36]
 135:legacy_engine.h ****         ampB = targetAmp;
 1863              		.loc 11 135 14 view .LVU547
 1864 02fe 2262     		str	r2, [r4, #32]	@ float
 136:legacy_engine.h ****         targetAmp = -1.0f;
 1865              		.loc 11 136 9 is_stmt 1 view .LVU548
 137:legacy_engine.h ****       }
 1866              		.loc 11 137 9 view .LVU549
 137:legacy_engine.h ****       }
 1867              		.loc 11 137 19 is_stmt 0 view .LVU550
 1868 0300 A362     		str	r3, [r4, #40]	@ float
ARM GAS  /var/folders/v1/156fk8j97zv9pzndh61fy7zm0000gn/T//ccyHp6tG.s 			page 62


 1869 0302 E0E6     		b	.L25
 1870              	.L55:
 1871              		.align	2
 1872              	.L54:
 1873 0304 00000000 		.word	0
 1874 0308 000080BF 		.word	-1082130432
 1875              	.LBE790:
 1876              	.LBE818:
 1877              	.LBE822:
 1878              	.LBE826:
 1879              	.LBE873:
 1880              		.cfi_endproc
 1881              	.LFE3746:
 1883              		.section	.text._ZN19OmniResonatorEngine12ProcessBlockEPKfS1_PfS2_jS1_fff,"axG",%progbits,_ZN19Omni
 1884              		.align	1
 1885              		.p2align 2,,3
 1886              		.weak	_ZN19OmniResonatorEngine12ProcessBlockEPKfS1_PfS2_jS1_fff
 1887              		.syntax unified
 1888              		.thumb
 1889              		.thumb_func
 1891              	_ZN19OmniResonatorEngine12ProcessBlockEPKfS1_PfS2_jS1_fff:
 1892              	.LVL91:
 1893              	.LFB3755:
  31:omni_resonator.h **** public:
  32:omni_resonator.h ****   void Init(float sample_rate) {
  33:omni_resonator.h ****     sr_ = sample_rate;
  34:omni_resonator.h ****     for (int i = 0; i < 8; i++) {
  35:omni_resonator.h ****       voices_l_[i].Init(sr_);
  36:omni_resonator.h ****       voices_r_[i].Init(sr_);
  37:omni_resonator.h ****     }
  38:omni_resonator.h ****     root_freq_ = 110.0f;
  39:omni_resonator.h ****   }
  40:omni_resonator.h **** 
  41:omni_resonator.h ****   void ProcessBlock(const float *in_l, const float *in_r, float *out_l,
 1894              		.loc 10 41 8 is_stmt 1 view -0
 1895              		.cfi_startproc
 1896              		@ args = 12, pretend = 0, frame = 24
 1897              		@ frame_needed = 0, uses_anonymous_args = 0
  42:omni_resonator.h ****                     float *out_r, size_t size, const float *harmonic_gains,
  43:omni_resonator.h ****                     float note_cv, float structure, float damping) {
  44:omni_resonator.h ****     float midi_note = 36.0f + (note_cv * 60.0f);
 1898              		.loc 10 44 5 view .LVU552
 1899              		.loc 10 44 11 is_stmt 0 view .LVU553
 1900 0000 DFED915A 		vldr.32	s11, .L77
  45:omni_resonator.h ****     midi_note = floorf(midi_note + 0.5f);
 1901              		.loc 10 45 23 view .LVU554
 1902 0004 B6EE006A 		vmov.f32	s12, #5.0e-1
  44:omni_resonator.h ****     midi_note = floorf(midi_note + 0.5f);
 1903              		.loc 10 44 11 view .LVU555
 1904 0008 DFED907A 		vldr.32	s15, .L77+4
 1905              	.LBB903:
 1906              	.LBB904:
 1907              		.file 15 "../temp_time_machine/DaisyExamples/DaisySP//Source/Utility/dsp.h"
   1:../temp_time_machine/DaisyExamples/DaisySP//Source/Utility/dsp.h **** /*
   2:../temp_time_machine/DaisyExamples/DaisySP//Source/Utility/dsp.h **** Copyright (c) 2020 Electrosmith, Corp, Emilie Gillet
   3:../temp_time_machine/DaisyExamples/DaisySP//Source/Utility/dsp.h **** 
   4:../temp_time_machine/DaisyExamples/DaisySP//Source/Utility/dsp.h **** Use of this source code is governed by an MIT-style
ARM GAS  /var/folders/v1/156fk8j97zv9pzndh61fy7zm0000gn/T//ccyHp6tG.s 			page 63


   5:../temp_time_machine/DaisyExamples/DaisySP//Source/Utility/dsp.h **** license that can be found in the LICENSE file or at
   6:../temp_time_machine/DaisyExamples/DaisySP//Source/Utility/dsp.h **** https://opensource.org/licenses/MIT.
   7:../temp_time_machine/DaisyExamples/DaisySP//Source/Utility/dsp.h **** */
   8:../temp_time_machine/DaisyExamples/DaisySP//Source/Utility/dsp.h **** 
   9:../temp_time_machine/DaisyExamples/DaisySP//Source/Utility/dsp.h **** /** Helpful defines, functions, and other utilities for use in/with daisysp modules.
  10:../temp_time_machine/DaisyExamples/DaisySP//Source/Utility/dsp.h **** */
  11:../temp_time_machine/DaisyExamples/DaisySP//Source/Utility/dsp.h **** #pragma once
  12:../temp_time_machine/DaisyExamples/DaisySP//Source/Utility/dsp.h **** #ifndef DSY_CORE_DSP
  13:../temp_time_machine/DaisyExamples/DaisySP//Source/Utility/dsp.h **** #define DSY_CORE_DSP
  14:../temp_time_machine/DaisyExamples/DaisySP//Source/Utility/dsp.h **** #include <cassert>
  15:../temp_time_machine/DaisyExamples/DaisySP//Source/Utility/dsp.h **** #include <cstdint>
  16:../temp_time_machine/DaisyExamples/DaisySP//Source/Utility/dsp.h **** #include <random>
  17:../temp_time_machine/DaisyExamples/DaisySP//Source/Utility/dsp.h **** #include <cmath>
  18:../temp_time_machine/DaisyExamples/DaisySP//Source/Utility/dsp.h **** 
  19:../temp_time_machine/DaisyExamples/DaisySP//Source/Utility/dsp.h **** /** PIs
  20:../temp_time_machine/DaisyExamples/DaisySP//Source/Utility/dsp.h **** */
  21:../temp_time_machine/DaisyExamples/DaisySP//Source/Utility/dsp.h **** #define PI_F 3.1415927410125732421875f
  22:../temp_time_machine/DaisyExamples/DaisySP//Source/Utility/dsp.h **** #define TWOPI_F (2.0f * PI_F)
  23:../temp_time_machine/DaisyExamples/DaisySP//Source/Utility/dsp.h **** #define HALFPI_F (PI_F * 0.5f)
  24:../temp_time_machine/DaisyExamples/DaisySP//Source/Utility/dsp.h **** #define DSY_MIN(in, mn) (in < mn ? in : mn)
  25:../temp_time_machine/DaisyExamples/DaisySP//Source/Utility/dsp.h **** #define DSY_MAX(in, mx) (in > mx ? in : mx)
  26:../temp_time_machine/DaisyExamples/DaisySP//Source/Utility/dsp.h **** #define DSY_CLAMP(in, mn, mx) (DSY_MIN(DSY_MAX(in, mn), mx))
  27:../temp_time_machine/DaisyExamples/DaisySP//Source/Utility/dsp.h **** #define DSY_COUNTOF(_arr) (sizeof(_arr) / sizeof(_arr[0]))
  28:../temp_time_machine/DaisyExamples/DaisySP//Source/Utility/dsp.h **** 
  29:../temp_time_machine/DaisyExamples/DaisySP//Source/Utility/dsp.h **** namespace daisysp
  30:../temp_time_machine/DaisyExamples/DaisySP//Source/Utility/dsp.h **** {
  31:../temp_time_machine/DaisyExamples/DaisySP//Source/Utility/dsp.h **** //Avoids division for random floats. e.g. rand() * kRandFrac
  32:../temp_time_machine/DaisyExamples/DaisySP//Source/Utility/dsp.h **** static constexpr float kRandFrac = 1.f / (float)RAND_MAX;
  33:../temp_time_machine/DaisyExamples/DaisySP//Source/Utility/dsp.h **** 
  34:../temp_time_machine/DaisyExamples/DaisySP//Source/Utility/dsp.h **** //Convert from semitones to other units. e.g. 2 ^ (kOneTwelfth * x)
  35:../temp_time_machine/DaisyExamples/DaisySP//Source/Utility/dsp.h **** static constexpr float kOneTwelfth = 1.f / 12.f;
  36:../temp_time_machine/DaisyExamples/DaisySP//Source/Utility/dsp.h **** 
  37:../temp_time_machine/DaisyExamples/DaisySP//Source/Utility/dsp.h **** /** efficient floating point min/max
  38:../temp_time_machine/DaisyExamples/DaisySP//Source/Utility/dsp.h **** c/o stephen mccaul
  39:../temp_time_machine/DaisyExamples/DaisySP//Source/Utility/dsp.h **** */
  40:../temp_time_machine/DaisyExamples/DaisySP//Source/Utility/dsp.h **** inline float fmax(float a, float b)
  41:../temp_time_machine/DaisyExamples/DaisySP//Source/Utility/dsp.h **** {
  42:../temp_time_machine/DaisyExamples/DaisySP//Source/Utility/dsp.h ****     float r;
  43:../temp_time_machine/DaisyExamples/DaisySP//Source/Utility/dsp.h **** #ifdef __arm__
  44:../temp_time_machine/DaisyExamples/DaisySP//Source/Utility/dsp.h ****     asm("vmaxnm.f32 %[d], %[n], %[m]" : [d] "=t"(r) : [n] "t"(a), [m] "t"(b) :);
  45:../temp_time_machine/DaisyExamples/DaisySP//Source/Utility/dsp.h **** #else
  46:../temp_time_machine/DaisyExamples/DaisySP//Source/Utility/dsp.h ****     r = (a > b) ? a : b;
  47:../temp_time_machine/DaisyExamples/DaisySP//Source/Utility/dsp.h **** #endif // __arm__
  48:../temp_time_machine/DaisyExamples/DaisySP//Source/Utility/dsp.h ****     return r;
  49:../temp_time_machine/DaisyExamples/DaisySP//Source/Utility/dsp.h **** }
  50:../temp_time_machine/DaisyExamples/DaisySP//Source/Utility/dsp.h **** 
  51:../temp_time_machine/DaisyExamples/DaisySP//Source/Utility/dsp.h **** inline float fmin(float a, float b)
  52:../temp_time_machine/DaisyExamples/DaisySP//Source/Utility/dsp.h **** {
  53:../temp_time_machine/DaisyExamples/DaisySP//Source/Utility/dsp.h ****     float r;
  54:../temp_time_machine/DaisyExamples/DaisySP//Source/Utility/dsp.h **** #ifdef __arm__
  55:../temp_time_machine/DaisyExamples/DaisySP//Source/Utility/dsp.h ****     asm("vminnm.f32 %[d], %[n], %[m]" : [d] "=t"(r) : [n] "t"(a), [m] "t"(b) :);
  56:../temp_time_machine/DaisyExamples/DaisySP//Source/Utility/dsp.h **** #else
  57:../temp_time_machine/DaisyExamples/DaisySP//Source/Utility/dsp.h ****     r = (a < b) ? a : b;
  58:../temp_time_machine/DaisyExamples/DaisySP//Source/Utility/dsp.h **** #endif // __arm__
  59:../temp_time_machine/DaisyExamples/DaisySP//Source/Utility/dsp.h ****     return r;
  60:../temp_time_machine/DaisyExamples/DaisySP//Source/Utility/dsp.h **** }
  61:../temp_time_machine/DaisyExamples/DaisySP//Source/Utility/dsp.h **** 
ARM GAS  /var/folders/v1/156fk8j97zv9pzndh61fy7zm0000gn/T//ccyHp6tG.s 			page 64


  62:../temp_time_machine/DaisyExamples/DaisySP//Source/Utility/dsp.h **** /** quick fp clamp
  63:../temp_time_machine/DaisyExamples/DaisySP//Source/Utility/dsp.h **** */
  64:../temp_time_machine/DaisyExamples/DaisySP//Source/Utility/dsp.h **** inline float fclamp(float in, float min, float max)
  65:../temp_time_machine/DaisyExamples/DaisySP//Source/Utility/dsp.h **** {
  66:../temp_time_machine/DaisyExamples/DaisySP//Source/Utility/dsp.h ****     return fmin(fmax(in, min), max);
  67:../temp_time_machine/DaisyExamples/DaisySP//Source/Utility/dsp.h **** }
  68:../temp_time_machine/DaisyExamples/DaisySP//Source/Utility/dsp.h **** 
  69:../temp_time_machine/DaisyExamples/DaisySP//Source/Utility/dsp.h **** /** From Musicdsp.org "Fast power and root estimates for 32bit floats)
  70:../temp_time_machine/DaisyExamples/DaisySP//Source/Utility/dsp.h **** Original code by Stefan Stenzel
  71:../temp_time_machine/DaisyExamples/DaisySP//Source/Utility/dsp.h **** These are approximations
  72:../temp_time_machine/DaisyExamples/DaisySP//Source/Utility/dsp.h **** */
  73:../temp_time_machine/DaisyExamples/DaisySP//Source/Utility/dsp.h **** inline float fastpower(float f, int n)
  74:../temp_time_machine/DaisyExamples/DaisySP//Source/Utility/dsp.h **** {
  75:../temp_time_machine/DaisyExamples/DaisySP//Source/Utility/dsp.h ****     long *lp, l;
  76:../temp_time_machine/DaisyExamples/DaisySP//Source/Utility/dsp.h ****     lp = (long *)(&f);
  77:../temp_time_machine/DaisyExamples/DaisySP//Source/Utility/dsp.h ****     l  = *lp;
  78:../temp_time_machine/DaisyExamples/DaisySP//Source/Utility/dsp.h ****     l -= 0x3F800000;
  79:../temp_time_machine/DaisyExamples/DaisySP//Source/Utility/dsp.h ****     l <<= (n - 1);
  80:../temp_time_machine/DaisyExamples/DaisySP//Source/Utility/dsp.h ****     l += 0x3F800000;
  81:../temp_time_machine/DaisyExamples/DaisySP//Source/Utility/dsp.h ****     *lp = l;
  82:../temp_time_machine/DaisyExamples/DaisySP//Source/Utility/dsp.h ****     return f;
  83:../temp_time_machine/DaisyExamples/DaisySP//Source/Utility/dsp.h **** }
  84:../temp_time_machine/DaisyExamples/DaisySP//Source/Utility/dsp.h **** 
  85:../temp_time_machine/DaisyExamples/DaisySP//Source/Utility/dsp.h **** inline float fastroot(float f, int n)
  86:../temp_time_machine/DaisyExamples/DaisySP//Source/Utility/dsp.h **** {
  87:../temp_time_machine/DaisyExamples/DaisySP//Source/Utility/dsp.h ****     long *lp, l;
  88:../temp_time_machine/DaisyExamples/DaisySP//Source/Utility/dsp.h ****     lp = (long *)(&f);
  89:../temp_time_machine/DaisyExamples/DaisySP//Source/Utility/dsp.h ****     l  = *lp;
  90:../temp_time_machine/DaisyExamples/DaisySP//Source/Utility/dsp.h ****     l -= 0x3F800000;
  91:../temp_time_machine/DaisyExamples/DaisySP//Source/Utility/dsp.h ****     l >>= (n - 1);
  92:../temp_time_machine/DaisyExamples/DaisySP//Source/Utility/dsp.h ****     l += 0x3F800000;
  93:../temp_time_machine/DaisyExamples/DaisySP//Source/Utility/dsp.h ****     *lp = l;
  94:../temp_time_machine/DaisyExamples/DaisySP//Source/Utility/dsp.h ****     return f;
  95:../temp_time_machine/DaisyExamples/DaisySP//Source/Utility/dsp.h **** }
  96:../temp_time_machine/DaisyExamples/DaisySP//Source/Utility/dsp.h **** 
  97:../temp_time_machine/DaisyExamples/DaisySP//Source/Utility/dsp.h **** /** Significantly more efficient than fmodf(x, 1.0f) for calculating
  98:../temp_time_machine/DaisyExamples/DaisySP//Source/Utility/dsp.h ****  *  the decimal part of a floating point value.
  99:../temp_time_machine/DaisyExamples/DaisySP//Source/Utility/dsp.h ****  */
 100:../temp_time_machine/DaisyExamples/DaisySP//Source/Utility/dsp.h **** inline float fastmod1f(float x)
 101:../temp_time_machine/DaisyExamples/DaisySP//Source/Utility/dsp.h **** {
 102:../temp_time_machine/DaisyExamples/DaisySP//Source/Utility/dsp.h ****     return x - static_cast<int>(x);
 103:../temp_time_machine/DaisyExamples/DaisySP//Source/Utility/dsp.h **** }
 104:../temp_time_machine/DaisyExamples/DaisySP//Source/Utility/dsp.h **** 
 105:../temp_time_machine/DaisyExamples/DaisySP//Source/Utility/dsp.h **** /** From http://openaudio.blogspot.com/2017/02/faster-log10-and-pow.html
 106:../temp_time_machine/DaisyExamples/DaisySP//Source/Utility/dsp.h **** No approximation, pow10f(x) gives a 90% speed increase over powf(10.f, x)
 107:../temp_time_machine/DaisyExamples/DaisySP//Source/Utility/dsp.h **** */
 108:../temp_time_machine/DaisyExamples/DaisySP//Source/Utility/dsp.h **** inline float pow10f(float f)
 109:../temp_time_machine/DaisyExamples/DaisySP//Source/Utility/dsp.h **** {
 110:../temp_time_machine/DaisyExamples/DaisySP//Source/Utility/dsp.h ****     return expf(2.302585092994046f * f);
 111:../temp_time_machine/DaisyExamples/DaisySP//Source/Utility/dsp.h **** }
 112:../temp_time_machine/DaisyExamples/DaisySP//Source/Utility/dsp.h **** 
 113:../temp_time_machine/DaisyExamples/DaisySP//Source/Utility/dsp.h **** /* Original code for fastlog2f by Dr. Paul Beckmann from the ARM community forum, adapted from the 
 114:../temp_time_machine/DaisyExamples/DaisySP//Source/Utility/dsp.h **** About 25% performance increase over std::log10f
 115:../temp_time_machine/DaisyExamples/DaisySP//Source/Utility/dsp.h **** */
 116:../temp_time_machine/DaisyExamples/DaisySP//Source/Utility/dsp.h **** inline float fastlog2f(float f)
 117:../temp_time_machine/DaisyExamples/DaisySP//Source/Utility/dsp.h **** {
 118:../temp_time_machine/DaisyExamples/DaisySP//Source/Utility/dsp.h ****     float frac;
ARM GAS  /var/folders/v1/156fk8j97zv9pzndh61fy7zm0000gn/T//ccyHp6tG.s 			page 65


 119:../temp_time_machine/DaisyExamples/DaisySP//Source/Utility/dsp.h ****     int   exp;
 120:../temp_time_machine/DaisyExamples/DaisySP//Source/Utility/dsp.h ****     frac = frexpf(fabsf(f), &exp);
 121:../temp_time_machine/DaisyExamples/DaisySP//Source/Utility/dsp.h ****     f    = 1.23149591368684f;
 122:../temp_time_machine/DaisyExamples/DaisySP//Source/Utility/dsp.h ****     f *= frac;
 123:../temp_time_machine/DaisyExamples/DaisySP//Source/Utility/dsp.h ****     f += -4.11852516267426f;
 124:../temp_time_machine/DaisyExamples/DaisySP//Source/Utility/dsp.h ****     f *= frac;
 125:../temp_time_machine/DaisyExamples/DaisySP//Source/Utility/dsp.h ****     f += 6.02197014179219f;
 126:../temp_time_machine/DaisyExamples/DaisySP//Source/Utility/dsp.h ****     f *= frac;
 127:../temp_time_machine/DaisyExamples/DaisySP//Source/Utility/dsp.h ****     f += -3.13396450166353f;
 128:../temp_time_machine/DaisyExamples/DaisySP//Source/Utility/dsp.h ****     f += exp;
 129:../temp_time_machine/DaisyExamples/DaisySP//Source/Utility/dsp.h ****     return (f);
 130:../temp_time_machine/DaisyExamples/DaisySP//Source/Utility/dsp.h **** }
 131:../temp_time_machine/DaisyExamples/DaisySP//Source/Utility/dsp.h **** 
 132:../temp_time_machine/DaisyExamples/DaisySP//Source/Utility/dsp.h **** inline float fastlog10f(float f)
 133:../temp_time_machine/DaisyExamples/DaisySP//Source/Utility/dsp.h **** {
 134:../temp_time_machine/DaisyExamples/DaisySP//Source/Utility/dsp.h ****     return fastlog2f(f) * 0.3010299956639812f;
 135:../temp_time_machine/DaisyExamples/DaisySP//Source/Utility/dsp.h **** }
 136:../temp_time_machine/DaisyExamples/DaisySP//Source/Utility/dsp.h **** 
 137:../temp_time_machine/DaisyExamples/DaisySP//Source/Utility/dsp.h **** /** Midi to frequency helper
 138:../temp_time_machine/DaisyExamples/DaisySP//Source/Utility/dsp.h **** */
 139:../temp_time_machine/DaisyExamples/DaisySP//Source/Utility/dsp.h **** inline float mtof(float m)
 140:../temp_time_machine/DaisyExamples/DaisySP//Source/Utility/dsp.h **** {
 141:../temp_time_machine/DaisyExamples/DaisySP//Source/Utility/dsp.h ****     return powf(2, (m - 69.0f) / 12.0f) * 440.0f;
 1908              		.loc 15 141 16 view .LVU556
 1909 000c B2EE087A 		vmov.f32	s14, #1.2e+1
 1910              		.loc 15 141 23 view .LVU557
 1911 0010 DFED8F6A 		vldr.32	s13, .L77+8
 1912              	.LBE904:
 1913              	.LBE903:
  44:omni_resonator.h ****     midi_note = floorf(midi_note + 0.5f);
 1914              		.loc 10 44 11 view .LVU558
 1915 0014 E0EE257A 		vfma.f32	s15, s0, s11
 1916              	.LVL92:
 1917              		.loc 10 45 5 is_stmt 1 view .LVU559
 1918              	.LBB910:
 1919              	.LBB905:
 1920              		.loc 15 141 16 is_stmt 0 view .LVU560
 1921 0018 B0EE000A 		vmov.f32	s0, #2.0e+0
 1922              	.LVL93:
 1923              		.loc 15 141 16 view .LVU561
 1924              	.LBE905:
 1925              	.LBE910:
  41:omni_resonator.h ****                     float *out_r, size_t size, const float *harmonic_gains,
 1926              		.loc 10 41 8 view .LVU562
 1927 001c 2DE9F04F 		push	{r4, r5, r6, r7, r8, r9, r10, fp, lr}
 1928              		.cfi_def_cfa_offset 36
 1929              		.cfi_offset 4, -36
 1930              		.cfi_offset 5, -32
 1931              		.cfi_offset 6, -28
 1932              		.cfi_offset 7, -24
 1933              		.cfi_offset 8, -20
 1934              		.cfi_offset 9, -16
 1935              		.cfi_offset 10, -12
 1936              		.cfi_offset 11, -8
 1937              		.cfi_offset 14, -4
 1938 0020 2DED068B 		vpush.64	{d8, d9, d10}
 1939              		.cfi_def_cfa_offset 60
ARM GAS  /var/folders/v1/156fk8j97zv9pzndh61fy7zm0000gn/T//ccyHp6tG.s 			page 66


 1940              		.cfi_offset 80, -60
 1941              		.cfi_offset 81, -56
 1942              		.cfi_offset 82, -52
 1943              		.cfi_offset 83, -48
 1944              		.cfi_offset 84, -44
 1945              		.cfi_offset 85, -40
 1946              		.loc 10 45 23 view .LVU563
 1947 0024 77EE867A 		vadd.f32	s15, s15, s12
 1948              	.LVL94:
  41:omni_resonator.h ****                     float *out_r, size_t size, const float *harmonic_gains,
 1949              		.loc 10 41 8 view .LVU564
 1950 0028 87B0     		sub	sp, sp, #28
 1951              		.cfi_def_cfa_offset 88
  41:omni_resonator.h ****                     float *out_r, size_t size, const float *harmonic_gains,
 1952              		.loc 10 41 8 view .LVU565
 1953 002a B0EE609A 		vmov.f32	s18, s1
 1954 002e 8246     		mov	r10, r0
 1955 0030 1E46     		mov	r6, r3
 1956 0032 F0EE418A 		vmov.f32	s17, s2
 1957              		.loc 10 45 23 view .LVU566
 1958 0036 FBFE677A 		vrintm.f32	s15, s15
 1959              	.LVL95:
  46:omni_resonator.h ****     root_freq_ = mtof(midi_note);
 1960              		.loc 10 46 5 is_stmt 1 view .LVU567
 1961              	.LBB911:
 1962              	.LBI903:
 139:../temp_time_machine/DaisyExamples/DaisySP//Source/Utility/dsp.h **** {
 1963              		.loc 15 139 14 view .LVU568
 1964              	.LBB906:
 1965              		.loc 15 141 5 view .LVU569
 1966              		.loc 15 141 23 is_stmt 0 view .LVU570
 1967 003a 77EEE60A 		vsub.f32	s1, s15, s13
 1968              	.LVL96:
 1969              		.loc 15 141 23 view .LVU571
 1970              	.LBE906:
 1971              	.LBE911:
  41:omni_resonator.h ****                     float *out_r, size_t size, const float *harmonic_gains,
 1972              		.loc 10 41 8 view .LVU572
 1973 003e 0F46     		mov	r7, r1
 1974 0040 1546     		mov	r5, r2
 1975              		.loc 10 46 16 discriminator 1 view .LVU573
 1976 0042 0AF28458 		addw	r8, r10, #1412
 1977              	.LBB912:
 1978              	.LBB913:
  47:omni_resonator.h ****     UpdateRatios(structure);
  48:omni_resonator.h **** 
  49:omni_resonator.h ****     float t_damp = damping * damping;
  50:omni_resonator.h ****     float res_val = 0.80f + (t_damp * 0.1995f);
  51:omni_resonator.h **** 
  52:omni_resonator.h ****     for (size_t i = 0; i < size; i++) {
  53:omni_resonator.h ****       float input = (in_l[i] + in_r[i]) * 0.5f;
  54:omni_resonator.h ****       static float prev = 0.0f;
  55:omni_resonator.h ****       float exciter = input - prev;
  56:omni_resonator.h ****       prev = input;
  57:omni_resonator.h ****       exciter = exciter * 4.0f; // Boost
  58:omni_resonator.h **** 
  59:omni_resonator.h ****       float sum_l = 0.0f, sum_r = 0.0f;
ARM GAS  /var/folders/v1/156fk8j97zv9pzndh61fy7zm0000gn/T//ccyHp6tG.s 			page 67


  60:omni_resonator.h **** 
  61:omni_resonator.h ****       for (int k = 0; k < 8; k++) {
  62:omni_resonator.h ****         float f = root_freq_ * ratios_[k];
  63:omni_resonator.h ****         if (f > 16000.0f)
  64:omni_resonator.h ****           f = 16000.0f;
  65:omni_resonator.h ****         float detune = 1.0f + (0.01f * (k % 2 == 0 ? 1 : -1));
  66:omni_resonator.h **** 
  67:omni_resonator.h ****         voices_l_[k].SetFreq(f);
  68:omni_resonator.h ****         voices_r_[k].SetFreq(f * detune);
  69:omni_resonator.h ****         voices_l_[k].SetRes(res_val);
  70:omni_resonator.h ****         voices_r_[k].SetRes(res_val);
  71:omni_resonator.h **** 
  72:omni_resonator.h ****         sum_l += voices_l_[k].Process(exciter * harmonic_gains[k]);
  73:omni_resonator.h ****         sum_r += voices_r_[k].Process(exciter * harmonic_gains[k]);
  74:omni_resonator.h ****       }
  75:omni_resonator.h ****       out_l[i] = sum_l * 0.8f;
  76:omni_resonator.h ****       out_r[i] = sum_r * 0.8f;
  77:omni_resonator.h ****     }
  78:omni_resonator.h ****   }
  79:omni_resonator.h **** 
  80:omni_resonator.h **** private:
  81:omni_resonator.h ****   float sr_;
  82:omni_resonator.h ****   OmniResonatorVoice voices_l_[8];
  83:omni_resonator.h ****   OmniResonatorVoice voices_r_[8];
  84:omni_resonator.h ****   float root_freq_;
  85:omni_resonator.h ****   float ratios_[8];
  86:omni_resonator.h **** 
  87:omni_resonator.h ****   void UpdateRatios(float structure) {
  88:omni_resonator.h ****     for (int i = 0; i < 8; i++) {
 1979              		.loc 10 88 14 view .LVU574
 1980 0046 0024     		movs	r4, #0
 1981              	.LBE913:
 1982              	.LBE912:
 1983              	.LBB933:
 1984              	.LBB907:
 1985              		.loc 15 141 16 view .LVU575
 1986 0048 C0EE870A 		vdiv.f32	s1, s1, s14
 1987 004c FFF7FEFF 		bl	powf
 1988              	.LVL97:
 1989              		.loc 15 141 43 discriminator 1 view .LVU576
 1990 0050 9FED807A 		vldr.32	s14, .L77+12
 1991 0054 0AF5B163 		add	r3, r10, #1416
 1992              	.LBE907:
 1993              	.LBE933:
  46:omni_resonator.h ****     UpdateRatios(structure);
 1994              		.loc 10 46 16 discriminator 1 view .LVU577
 1995 0058 9946     		mov	r9, r3
 1996 005a 0493     		str	r3, [sp, #16]
 1997              	.LBB934:
 1998              	.LBB908:
 1999              		.loc 15 141 16 view .LVU578
 2000 005c B0EE408A 		vmov.f32	s16, s0
 2001              	.LBE908:
 2002              	.LBE934:
  46:omni_resonator.h ****     UpdateRatios(structure);
 2003              		.loc 10 46 16 discriminator 1 view .LVU579
 2004 0060 9FED7D0A 		vldr.32	s0, .L77+16
ARM GAS  /var/folders/v1/156fk8j97zv9pzndh61fy7zm0000gn/T//ccyHp6tG.s 			page 68


 2005              	.LBB935:
 2006              	.LBB909:
 2007              		.loc 15 141 43 discriminator 1 view .LVU580
 2008 0064 28EE078A 		vmul.f32	s16, s16, s14
 2009              	.LVL98:
 2010              		.loc 15 141 43 discriminator 1 view .LVU581
 2011              	.LBE909:
 2012              	.LBE935:
  46:omni_resonator.h ****     UpdateRatios(structure);
 2013              		.loc 10 46 16 discriminator 1 view .LVU582
 2014 0068 88ED008A 		vstr.32	s16, [r8]
  47:omni_resonator.h ****     UpdateRatios(structure);
 2015              		.loc 10 47 5 is_stmt 1 view .LVU583
 2016              	.LVL99:
 2017              	.LBB936:
 2018              	.LBI912:
  87:omni_resonator.h ****     for (int i = 0; i < 8; i++) {
 2019              		.loc 10 87 8 view .LVU584
 2020              		.loc 10 88 5 view .LVU585
 2021              	.LBB932:
 2022              		.loc 10 88 23 discriminator 1 view .LVU586
 2023 006c 11E0     		b	.L61
 2024              	.LVL100:
 2025              	.L74:
 2026              	.LBB914:
 2027              	.LBB915:
 2028              	.LBB916:
  89:omni_resonator.h ****       float h = (float)(i + 1);
  90:omni_resonator.h ****       float odd = 1.0f + (i * 2.0f);
  91:omni_resonator.h ****       float inharm = 1.0f + (i * 1.5f) + (sinf(i * 34.0f) * 0.5f);
  92:omni_resonator.h **** 
  93:omni_resonator.h ****       if (structure < 0.5f) {
  94:omni_resonator.h ****         float t = structure * 2.0f;
 2029              		.loc 10 94 15 is_stmt 0 view .LVU587
 2030 006e 79EE097A 		vadd.f32	s15, s18, s18
 2031              	.LVL101:
  95:omni_resonator.h ****         ratios_[i] = (h * (1.0f - t)) + (odd * t);
 2032              		.loc 10 95 9 is_stmt 1 view .LVU588
 2033              	.LBE916:
 2034              	.LBE915:
 2035              	.LBE914:
  88:omni_resonator.h ****       float h = (float)(i + 1);
 2036              		.loc 10 88 23 is_stmt 0 discriminator 1 view .LVU589
 2037 0072 082C     		cmp	r4, #8
 2038              	.LBB929:
  91:omni_resonator.h **** 
 2039              		.loc 10 91 47 view .LVU590
 2040 0074 9FED790A 		vldr.32	s0, .L77+20
 2041              	.LVL102:
 2042              	.LBB922:
 2043              	.LBB917:
 2044              		.loc 10 95 33 view .LVU591
 2045 0078 37EE677A 		vsub.f32	s14, s14, s15
 2046              		.loc 10 95 46 view .LVU592
 2047 007c 65EE277A 		vmul.f32	s15, s10, s15
 2048              	.LVL103:
 2049              		.loc 10 95 39 view .LVU593
ARM GAS  /var/folders/v1/156fk8j97zv9pzndh61fy7zm0000gn/T//ccyHp6tG.s 			page 69


 2050 0080 E5EE877A 		vfma.f32	s15, s11, s14
 2051 0084 E9EC017A 		vstmia.32	r9!, {s15}
 2052              	.LVL104:
 2053              		.loc 10 95 39 view .LVU594
 2054              	.LBE917:
 2055              	.LBE922:
 2056              	.LBE929:
  88:omni_resonator.h ****       float h = (float)(i + 1);
 2057              		.loc 10 88 23 is_stmt 1 discriminator 1 view .LVU595
 2058 0088 33D0     		beq	.L60
 2059              	.LVL105:
 2060              	.L75:
 2061              	.LBB930:
  91:omni_resonator.h **** 
 2062              		.loc 10 91 47 is_stmt 0 view .LVU596
 2063 008a 25EE800A 		vmul.f32	s0, s11, s0
 2064 008e FFF7FEFF 		bl	sinf
 2065              	.LVL106:
 2066              	.L61:
  89:omni_resonator.h ****       float odd = 1.0f + (i * 2.0f);
 2067              		.loc 10 89 7 is_stmt 1 view .LVU597
 2068              	.LBB923:
 2069              	.LBB918:
  94:omni_resonator.h ****         ratios_[i] = (h * (1.0f - t)) + (odd * t);
 2070              		.loc 10 94 9 view .LVU598
 2071              	.LBE918:
 2072              	.LBB919:
  96:omni_resonator.h ****       } else {
  97:omni_resonator.h ****         float t = (structure - 0.5f) * 2.0f;
 2073              		.loc 10 97 9 view .LVU599
 2074              	.LBE919:
  93:omni_resonator.h ****         float t = structure * 2.0f;
 2075              		.loc 10 93 7 is_stmt 0 view .LVU600
 2076 0092 F6EE006A 		vmov.f32	s13, #5.0e-1
 2077              	.LVL107:
  93:omni_resonator.h ****         float t = structure * 2.0f;
 2078              		.loc 10 93 7 view .LVU601
 2079              	.LBE923:
  90:omni_resonator.h ****       float inharm = 1.0f + (i * 1.5f) + (sinf(i * 34.0f) * 0.5f);
 2080              		.loc 10 90 29 view .LVU602
 2081 0096 07EE904A 		vmov	s15, r4	@ int
  90:omni_resonator.h ****       float inharm = 1.0f + (i * 1.5f) + (sinf(i * 34.0f) * 0.5f);
 2082              		.loc 10 90 13 view .LVU603
 2083 009a B7EE007A 		vmov.f32	s14, #1.0e+0
  89:omni_resonator.h ****       float odd = 1.0f + (i * 2.0f);
 2084              		.loc 10 89 27 view .LVU604
 2085 009e 0134     		adds	r4, r4, #1
 2086              	.LVL108:
  90:omni_resonator.h ****       float inharm = 1.0f + (i * 1.5f) + (sinf(i * 34.0f) * 0.5f);
 2087              		.loc 10 90 29 view .LVU605
 2088 00a0 B8EEE76A 		vcvt.f32.s32	s12, s15
 2089              	.LBB924:
  93:omni_resonator.h ****         float t = structure * 2.0f;
 2090              		.loc 10 93 7 view .LVU606
 2091 00a4 B4EEE69A 		vcmpe.f32	s18, s13
 2092              	.LBE924:
  89:omni_resonator.h ****       float odd = 1.0f + (i * 2.0f);
ARM GAS  /var/folders/v1/156fk8j97zv9pzndh61fy7zm0000gn/T//ccyHp6tG.s 			page 70


 2093              		.loc 10 89 13 view .LVU607
 2094 00a8 05EE904A 		vmov	s11, r4	@ int
  90:omni_resonator.h ****       float inharm = 1.0f + (i * 1.5f) + (sinf(i * 34.0f) * 0.5f);
 2095              		.loc 10 90 13 view .LVU608
 2096 00ac F0EE007A 		vmov.f32	s15, #2.0e+0
 2097              	.LVL109:
  90:omni_resonator.h ****       float inharm = 1.0f + (i * 1.5f) + (sinf(i * 34.0f) * 0.5f);
 2098              		.loc 10 90 13 view .LVU609
 2099 00b0 B0EE475A 		vmov.f32	s10, s14
 2100              	.LBB925:
  93:omni_resonator.h ****         float t = structure * 2.0f;
 2101              		.loc 10 93 7 view .LVU610
 2102 00b4 F1EE10FA 		vmrs	APSR_nzcv, FPSCR
 2103              	.LBE925:
  91:omni_resonator.h **** 
 2104              		.loc 10 91 27 view .LVU611
 2105 00b8 F7EE084A 		vmov.f32	s9, #1.5e+0
  90:omni_resonator.h ****       float inharm = 1.0f + (i * 1.5f) + (sinf(i * 34.0f) * 0.5f);
 2106              		.loc 10 90 13 view .LVU612
 2107 00bc A6EE275A 		vfma.f32	s10, s12, s15
  89:omni_resonator.h ****       float odd = 1.0f + (i * 2.0f);
 2108              		.loc 10 89 13 view .LVU613
 2109 00c0 F8EEE55A 		vcvt.f32.s32	s11, s11
 2110              	.LVL110:
  90:omni_resonator.h ****       float inharm = 1.0f + (i * 1.5f) + (sinf(i * 34.0f) * 0.5f);
 2111              		.loc 10 90 7 is_stmt 1 view .LVU614
  91:omni_resonator.h **** 
 2112              		.loc 10 91 7 view .LVU615
  93:omni_resonator.h ****         float t = structure * 2.0f;
 2113              		.loc 10 93 7 view .LVU616
 2114              	.LBB926:
 2115 00c4 D3D4     		bmi	.L74
 2116              	.LBE926:
  91:omni_resonator.h **** 
 2117              		.loc 10 91 27 is_stmt 0 view .LVU617
 2118 00c6 F0EE477A 		vmov.f32	s15, s14
 2119              	.LBE930:
  88:omni_resonator.h ****       float h = (float)(i + 1);
 2120              		.loc 10 88 23 discriminator 1 view .LVU618
 2121 00ca 082C     		cmp	r4, #8
 2122              	.LBB931:
  91:omni_resonator.h **** 
 2123              		.loc 10 91 27 view .LVU619
 2124 00cc E6EE247A 		vfma.f32	s15, s12, s9
 2125              	.LBB927:
 2126              	.LBB920:
 2127              		.loc 10 97 30 view .LVU620
 2128 00d0 39EE666A 		vsub.f32	s12, s18, s13
 2129              	.LVL111:
 2130              		.loc 10 97 15 view .LVU621
 2131 00d4 36EE066A 		vadd.f32	s12, s12, s12
 2132              	.LVL112:
  98:omni_resonator.h ****         ratios_[i] = (odd * (1.0f - t)) + (inharm * t);
 2133              		.loc 10 98 9 is_stmt 1 view .LVU622
 2134              	.LBE920:
 2135              	.LBE927:
  91:omni_resonator.h **** 
ARM GAS  /var/folders/v1/156fk8j97zv9pzndh61fy7zm0000gn/T//ccyHp6tG.s 			page 71


 2136              		.loc 10 91 13 is_stmt 0 discriminator 1 view .LVU623
 2137 00d8 E0EE267A 		vfma.f32	s15, s0, s13
  91:omni_resonator.h **** 
 2138              		.loc 10 91 47 view .LVU624
 2139 00dc 9FED5F0A 		vldr.32	s0, .L77+20
 2140              	.LVL113:
 2141              	.LBB928:
 2142              	.LBB921:
 2143              		.loc 10 98 35 view .LVU625
 2144 00e0 37EE467A 		vsub.f32	s14, s14, s12
 2145              		.loc 10 98 51 view .LVU626
 2146 00e4 67EE867A 		vmul.f32	s15, s15, s12
 2147              		.loc 10 98 41 view .LVU627
 2148 00e8 E5EE077A 		vfma.f32	s15, s10, s14
 2149 00ec E9EC017A 		vstmia.32	r9!, {s15}
 2150              	.LVL114:
 2151              		.loc 10 98 41 view .LVU628
 2152              	.LBE921:
 2153              	.LBE928:
 2154              	.LBE931:
  88:omni_resonator.h ****       float h = (float)(i + 1);
 2155              		.loc 10 88 23 is_stmt 1 discriminator 1 view .LVU629
 2156 00f0 CBD1     		bne	.L75
 2157              	.LVL115:
 2158              	.L60:
  88:omni_resonator.h ****       float h = (float)(i + 1);
 2159              		.loc 10 88 23 is_stmt 0 discriminator 1 view .LVU630
 2160              	.LBE932:
 2161              	.LBE936:
  49:omni_resonator.h ****     float res_val = 0.80f + (t_damp * 0.1995f);
 2162              		.loc 10 49 5 is_stmt 1 view .LVU631
  50:omni_resonator.h **** 
 2163              		.loc 10 50 5 view .LVU632
  49:omni_resonator.h ****     float res_val = 0.80f + (t_damp * 0.1995f);
 2164              		.loc 10 49 11 is_stmt 0 view .LVU633
 2165 00f2 68EEA88A 		vmul.f32	s17, s17, s17
 2166              	.LVL116:
  50:omni_resonator.h **** 
 2167              		.loc 10 50 11 view .LVU634
 2168 00f6 DFED5A7A 		vldr.32	s15, .L77+24
 2169 00fa 9FED5AAA 		vldr.32	s20, .L77+28
 2170              	.LBB937:
  52:omni_resonator.h ****       float input = (in_l[i] + in_r[i]) * 0.5f;
 2171              		.loc 10 52 26 discriminator 1 view .LVU635
 2172 00fe 179B     		ldr	r3, [sp, #92]
 2173              	.LBE937:
  50:omni_resonator.h **** 
 2174              		.loc 10 50 11 view .LVU636
 2175 0100 A8EEA7AA 		vfma.f32	s20, s17, s15
 2176              	.LVL117:
  52:omni_resonator.h ****       float input = (in_l[i] + in_r[i]) * 0.5f;
 2177              		.loc 10 52 5 is_stmt 1 view .LVU637
 2178              	.LBB988:
  52:omni_resonator.h ****       float input = (in_l[i] + in_r[i]) * 0.5f;
 2179              		.loc 10 52 26 discriminator 1 view .LVU638
 2180 0104 002B     		cmp	r3, #0
 2181 0106 00F09980 		beq	.L56
ARM GAS  /var/folders/v1/156fk8j97zv9pzndh61fy7zm0000gn/T//ccyHp6tG.s 			page 72


 2182 010a 0AF11003 		add	r3, r10, #16
  52:omni_resonator.h ****       float input = (in_l[i] + in_r[i]) * 0.5f;
 2183              		.loc 10 52 17 is_stmt 0 view .LVU639
 2184 010e 4FF0000A 		mov	r10, #0
 2185              	.LVL118:
  52:omni_resonator.h ****       float input = (in_l[i] + in_r[i]) * 0.5f;
 2186              		.loc 10 52 17 view .LVU640
 2187 0112 3946     		mov	r1, r7
 2188 0114 2A46     		mov	r2, r5
 2189 0116 0593     		str	r3, [sp, #20]
 2190 0118 169B     		ldr	r3, [sp, #88]
 2191              	.LVL119:
  52:omni_resonator.h ****       float input = (in_l[i] + in_r[i]) * 0.5f;
 2192              		.loc 10 52 17 view .LVU641
 2193 011a DFF85891 		ldr	r9, .L77+44
 2194 011e 1F46     		mov	r7, r3
 2195              	.LVL120:
  52:omni_resonator.h ****       float input = (in_l[i] + in_r[i]) * 0.5f;
 2196              		.loc 10 52 17 view .LVU642
 2197 0120 3346     		mov	r3, r6
 2198 0122 5646     		mov	r6, r10
 2199              	.LVL121:
 2200              	.L66:
 2201              	.LBB938:
  53:omni_resonator.h ****       static float prev = 0.0f;
 2202              		.loc 10 53 7 is_stmt 1 view .LVU643
  53:omni_resonator.h ****       static float prev = 0.0f;
 2203              		.loc 10 53 38 is_stmt 0 view .LVU644
 2204 0124 B2EC017A 		vldmia.32	r2!, {s14}
  53:omni_resonator.h ****       static float prev = 0.0f;
 2205              		.loc 10 53 13 view .LVU645
 2206 0128 F6EE006A 		vmov.f32	s13, #5.0e-1
 2207              	.LVL122:
  53:omni_resonator.h ****       static float prev = 0.0f;
 2208              		.loc 10 53 28 view .LVU646
 2209 012c F1EC017A 		vldmia.32	r1!, {s15}
 2210              	.LBB939:
  61:omni_resonator.h ****         float f = root_freq_ * ratios_[k];
 2211              		.loc 10 61 16 view .LVU647
 2212 0130 0025     		movs	r5, #0
 2213              	.LBE939:
  55:omni_resonator.h ****       prev = input;
 2214              		.loc 10 55 13 view .LVU648
 2215 0132 99ED009A 		vldr.32	s18, [r9]
  53:omni_resonator.h ****       static float prev = 0.0f;
 2216              		.loc 10 53 30 view .LVU649
 2217 0136 77EE877A 		vadd.f32	s15, s15, s14
 2218 013a DDF860B0 		ldr	fp, [sp, #96]
  57:omni_resonator.h **** 
 2219              		.loc 10 57 15 view .LVU650
 2220 013e B1EE007A 		vmov.f32	s14, #4.0e+0
  59:omni_resonator.h **** 
 2221              		.loc 10 59 27 view .LVU651
 2222 0142 DFED458A 		vldr.32	s17, .L77+16
  53:omni_resonator.h ****       static float prev = 0.0f;
 2223              		.loc 10 53 13 view .LVU652
 2224 0146 67EEA67A 		vmul.f32	s15, s15, s13
ARM GAS  /var/folders/v1/156fk8j97zv9pzndh61fy7zm0000gn/T//ccyHp6tG.s 			page 73


 2225              	.LVL123:
  54:omni_resonator.h ****       float exciter = input - prev;
 2226              		.loc 10 54 7 is_stmt 1 view .LVU653
  55:omni_resonator.h ****       prev = input;
 2227              		.loc 10 55 7 view .LVU654
  59:omni_resonator.h **** 
 2228              		.loc 10 59 13 is_stmt 0 view .LVU655
 2229 014a F0EE689A 		vmov.f32	s19, s17
  55:omni_resonator.h ****       prev = input;
 2230              		.loc 10 55 13 view .LVU656
 2231 014e 37EEC99A 		vsub.f32	s18, s15, s18
 2232              	.LVL124:
  56:omni_resonator.h ****       exciter = exciter * 4.0f; // Boost
 2233              		.loc 10 56 7 is_stmt 1 view .LVU657
  56:omni_resonator.h ****       exciter = exciter * 4.0f; // Boost
 2234              		.loc 10 56 12 is_stmt 0 view .LVU658
 2235 0152 C9ED007A 		vstr.32	s15, [r9]
  57:omni_resonator.h **** 
 2236              		.loc 10 57 7 is_stmt 1 view .LVU659
  57:omni_resonator.h **** 
 2237              		.loc 10 57 15 is_stmt 0 view .LVU660
 2238 0156 DDE904A4 		ldrd	r10, r4, [sp, #16]
 2239              	.LBB981:
  61:omni_resonator.h ****         float f = root_freq_ * ratios_[k];
 2240              		.loc 10 61 16 view .LVU661
 2241 015a CDE90067 		strd	r6, r7, [sp]
 2242              	.LBE981:
  57:omni_resonator.h **** 
 2243              		.loc 10 57 15 view .LVU662
 2244 015e 29EE079A 		vmul.f32	s18, s18, s14
 2245              	.LVL125:
  59:omni_resonator.h **** 
 2246              		.loc 10 59 7 is_stmt 1 view .LVU663
  61:omni_resonator.h ****         float f = root_freq_ * ratios_[k];
 2247              		.loc 10 61 7 view .LVU664
 2248              	.LBB982:
  61:omni_resonator.h ****         float f = root_freq_ * ratios_[k];
 2249              		.loc 10 61 25 discriminator 1 view .LVU665
  61:omni_resonator.h ****         float f = root_freq_ * ratios_[k];
 2250              		.loc 10 61 16 is_stmt 0 view .LVU666
 2251 0162 5E46     		mov	r6, fp
 2252              	.LVL126:
  61:omni_resonator.h ****         float f = root_freq_ * ratios_[k];
 2253              		.loc 10 61 16 view .LVU667
 2254 0164 5746     		mov	r7, r10
 2255 0166 8B46     		mov	fp, r1
 2256 0168 CDE90232 		strd	r3, r2, [sp, #8]
 2257 016c 01E0     		b	.L65
 2258              	.LVL127:
 2259              	.L76:
 2260              	.LBB940:
  62:omni_resonator.h ****         if (f > 16000.0f)
 2261              		.loc 10 62 19 view .LVU668
 2262 016e 98ED008A 		vldr.32	s16, [r8]
 2263              	.LVL128:
 2264              	.L65:
  62:omni_resonator.h ****         if (f > 16000.0f)
ARM GAS  /var/folders/v1/156fk8j97zv9pzndh61fy7zm0000gn/T//ccyHp6tG.s 			page 74


 2265              		.loc 10 62 9 is_stmt 1 view .LVU669
  62:omni_resonator.h ****         if (f > 16000.0f)
 2266              		.loc 10 62 41 is_stmt 0 view .LVU670
 2267 0172 F7EC017A 		vldmia.32	r7!, {s15}
 2268              	.LBB941:
 2269              	.LBB942:
  17:omni_resonator.h ****     svf_.SetRes(res_);
 2270              		.loc 10 17 17 view .LVU671
 2271 0176 2046     		mov	r0, r4
 2272 0178 9FED3B0A 		vldr.32	s0, .L77+32
 2273              	.LBE942:
 2274              	.LBE941:
 2275              	.LBB948:
 2276              	.LBB949:
 2277 017c 04F5307A 		add	r10, r4, #704
 2278              	.LBE949:
 2279              	.LBE948:
  62:omni_resonator.h ****         if (f > 16000.0f)
 2280              		.loc 10 62 15 view .LVU672
 2281 0180 67EE887A 		vmul.f32	s15, s15, s16
 2282              	.LVL129:
  63:omni_resonator.h ****           f = 16000.0f;
 2283              		.loc 10 63 9 is_stmt 1 view .LVU673
 2284 0184 9FED397A 		vldr.32	s14, .L77+36
 2285              	.LBB955:
 2286              	.LBB956:
  23:omni_resonator.h **** 
 2287              		.loc 10 23 31 is_stmt 0 view .LVU674
 2288 0188 04ED01AA 		vstr.32	s20, [r4, #-4]
 2289              	.LBE956:
 2290              	.LBE955:
 2291              	.LBB958:
 2292              	.LBB959:
 2293 018c 84EDAFAA 		vstr.32	s20, [r4, #700]
 2294 0190 F4EEC07A 		vcmpe.f32	s15, s0
 2295 0194 F1EE10FA 		vmrs	APSR_nzcv, FPSCR
 2296 0198 30FE270A 		vselgt.f32	s0, s0, s15
 2297              	.LVL130:
  23:omni_resonator.h **** 
 2298              		.loc 10 23 31 view .LVU675
 2299              	.LBE959:
 2300              	.LBE958:
  65:omni_resonator.h **** 
 2301              		.loc 10 65 9 is_stmt 1 view .LVU676
  67:omni_resonator.h ****         voices_r_[k].SetFreq(f * detune);
 2302              		.loc 10 67 9 view .LVU677
 2303              	.LBB961:
 2304              	.LBI961:
  22:omni_resonator.h ****   void SetRes(float r) { res_ = r; }
 2305              		.loc 10 22 8 view .LVU678
 2306              	.LBB962:
  22:omni_resonator.h ****   void SetRes(float r) { res_ = r; }
 2307              		.loc 10 22 27 view .LVU679
 2308              	.LBE962:
 2309              	.LBE961:
  65:omni_resonator.h **** 
 2310              		.loc 10 65 38 is_stmt 0 view .LVU680
ARM GAS  /var/folders/v1/156fk8j97zv9pzndh61fy7zm0000gn/T//ccyHp6tG.s 			page 75


 2311 019c EB07     		lsls	r3, r5, #31
 2312              	.LBB964:
 2313              	.LBB963:
  22:omni_resonator.h ****   void SetRes(float r) { res_ = r; }
 2314              		.loc 10 22 33 view .LVU681
 2315 019e 04ED020A 		vstr.32	s0, [r4, #-8]
 2316              	.LBE963:
 2317              	.LBE964:
 2318              	.LBE940:
  61:omni_resonator.h ****         float f = root_freq_ * ratios_[k];
 2319              		.loc 10 61 7 discriminator 2 view .LVU682
 2320 01a2 05F10105 		add	r5, r5, #1
 2321              	.LVL131:
 2322              	.LBB977:
  65:omni_resonator.h **** 
 2323              		.loc 10 65 38 view .LVU683
 2324 01a6 58BF     		it	pl
 2325 01a8 9FED317A 		vldrpl.32	s14, .L77+40
 2326              	.LVL132:
  68:omni_resonator.h ****         voices_l_[k].SetRes(res_val);
 2327              		.loc 10 68 9 is_stmt 1 view .LVU684
 2328              	.LBB965:
 2329              	.LBI965:
  22:omni_resonator.h ****   void SetRes(float r) { res_ = r; }
 2330              		.loc 10 22 8 view .LVU685
 2331              	.LBB966:
  22:omni_resonator.h ****   void SetRes(float r) { res_ = r; }
 2332              		.loc 10 22 27 view .LVU686
 2333              	.LBE966:
 2334              	.LBE965:
  68:omni_resonator.h ****         voices_l_[k].SetRes(res_val);
 2335              		.loc 10 68 29 is_stmt 0 view .LVU687
 2336 01ac 20EE077A 		vmul.f32	s14, s0, s14
 2337              	.LVL133:
 2338              	.LBB968:
 2339              	.LBB967:
  22:omni_resonator.h ****   void SetRes(float r) { res_ = r; }
 2340              		.loc 10 22 33 view .LVU688
 2341 01b0 84EDAE7A 		vstr.32	s14, [r4, #696]
 2342              	.LVL134:
  22:omni_resonator.h ****   void SetRes(float r) { res_ = r; }
 2343              		.loc 10 22 33 view .LVU689
 2344              	.LBE967:
 2345              	.LBE968:
  69:omni_resonator.h ****         voices_r_[k].SetRes(res_val);
 2346              		.loc 10 69 9 is_stmt 1 view .LVU690
 2347              	.LBB969:
 2348              	.LBI955:
  23:omni_resonator.h **** 
 2349              		.loc 10 23 8 view .LVU691
 2350              	.LBB957:
  23:omni_resonator.h **** 
 2351              		.loc 10 23 26 view .LVU692
  23:omni_resonator.h **** 
 2352              		.loc 10 23 26 is_stmt 0 view .LVU693
 2353              	.LBE957:
 2354              	.LBE969:
ARM GAS  /var/folders/v1/156fk8j97zv9pzndh61fy7zm0000gn/T//ccyHp6tG.s 			page 76


  70:omni_resonator.h **** 
 2355              		.loc 10 70 9 is_stmt 1 view .LVU694
 2356              	.LBB970:
 2357              	.LBI958:
  23:omni_resonator.h **** 
 2358              		.loc 10 23 8 view .LVU695
 2359              	.LBB960:
  23:omni_resonator.h **** 
 2360              		.loc 10 23 26 view .LVU696
  23:omni_resonator.h **** 
 2361              		.loc 10 23 26 is_stmt 0 view .LVU697
 2362              	.LBE960:
 2363              	.LBE970:
  72:omni_resonator.h ****         sum_r += voices_r_[k].Process(exciter * harmonic_gains[k]);
 2364              		.loc 10 72 9 is_stmt 1 view .LVU698
  72:omni_resonator.h ****         sum_r += voices_r_[k].Process(exciter * harmonic_gains[k]);
 2365              		.loc 10 72 65 is_stmt 0 view .LVU699
 2366 01b4 96ED008A 		vldr.32	s16, [r6]
 2367              	.LBB971:
 2368              	.LBB945:
  17:omni_resonator.h ****     svf_.SetRes(res_);
 2369              		.loc 10 17 17 view .LVU700
 2370 01b8 FFF7FEFF 		bl	_ZN7daisysp3Svf7SetFreqEf
 2371              	.LVL135:
  18:omni_resonator.h ****     svf_.Process(in);
 2372              		.loc 10 18 16 view .LVU701
 2373 01bc 14ED010A 		vldr.32	s0, [r4, #-4]
 2374 01c0 2046     		mov	r0, r4
 2375              	.LBE945:
 2376              	.LBE971:
  72:omni_resonator.h ****         sum_r += voices_r_[k].Process(exciter * harmonic_gains[k]);
 2377              		.loc 10 72 38 view .LVU702
 2378 01c2 28EE098A 		vmul.f32	s16, s16, s18
 2379              	.LVL136:
 2380              	.LBB972:
 2381              	.LBI941:
  16:omni_resonator.h ****     svf_.SetFreq(freq_);
 2382              		.loc 10 16 9 is_stmt 1 view .LVU703
 2383              	.LBB946:
  17:omni_resonator.h ****     svf_.SetRes(res_);
 2384              		.loc 10 17 5 view .LVU704
  18:omni_resonator.h ****     svf_.Process(in);
 2385              		.loc 10 18 5 view .LVU705
  18:omni_resonator.h ****     svf_.Process(in);
 2386              		.loc 10 18 16 is_stmt 0 view .LVU706
 2387 01c6 FFF7FEFF 		bl	_ZN7daisysp3Svf6SetResEf
 2388              	.LVL137:
  19:omni_resonator.h ****     return svf_.Band();
 2389              		.loc 10 19 5 is_stmt 1 view .LVU707
  19:omni_resonator.h ****     return svf_.Band();
 2390              		.loc 10 19 17 is_stmt 0 view .LVU708
 2391 01ca 2046     		mov	r0, r4
 2392              	.LBE946:
 2393              	.LBE972:
 2394              	.LBE977:
  61:omni_resonator.h ****         float f = root_freq_ * ratios_[k];
 2395              		.loc 10 61 25 discriminator 1 view .LVU709
ARM GAS  /var/folders/v1/156fk8j97zv9pzndh61fy7zm0000gn/T//ccyHp6tG.s 			page 77


 2396 01cc 5834     		adds	r4, r4, #88
 2397              	.LVL138:
 2398              	.LBB978:
 2399              	.LBB973:
 2400              	.LBB947:
  19:omni_resonator.h ****     return svf_.Band();
 2401              		.loc 10 19 17 view .LVU710
 2402 01ce B0EE480A 		vmov.f32	s0, s16
 2403 01d2 FFF7FEFF 		bl	_ZN7daisysp3Svf7ProcessEf
 2404              	.LVL139:
  20:omni_resonator.h ****   }
 2405              		.loc 10 20 5 is_stmt 1 view .LVU711
 2406              	.LBB943:
 2407              	.LBI943:
 2408              		.file 16 "../temp_time_machine/DaisyExamples/DaisySP//Source/Filters/svf.h"
   1:../temp_time_machine/DaisyExamples/DaisySP//Source/Filters/svf.h **** /*
   2:../temp_time_machine/DaisyExamples/DaisySP//Source/Filters/svf.h **** Copyright (c) 2020 Electrosmith, Corp
   3:../temp_time_machine/DaisyExamples/DaisySP//Source/Filters/svf.h **** 
   4:../temp_time_machine/DaisyExamples/DaisySP//Source/Filters/svf.h **** Use of this source code is governed by an MIT-style
   5:../temp_time_machine/DaisyExamples/DaisySP//Source/Filters/svf.h **** license that can be found in the LICENSE file or at
   6:../temp_time_machine/DaisyExamples/DaisySP//Source/Filters/svf.h **** https://opensource.org/licenses/MIT.
   7:../temp_time_machine/DaisyExamples/DaisySP//Source/Filters/svf.h **** */
   8:../temp_time_machine/DaisyExamples/DaisySP//Source/Filters/svf.h **** 
   9:../temp_time_machine/DaisyExamples/DaisySP//Source/Filters/svf.h **** #pragma once
  10:../temp_time_machine/DaisyExamples/DaisySP//Source/Filters/svf.h **** #ifndef DSY_SVF_H
  11:../temp_time_machine/DaisyExamples/DaisySP//Source/Filters/svf.h **** #define DSY_SVF_H
  12:../temp_time_machine/DaisyExamples/DaisySP//Source/Filters/svf.h **** 
  13:../temp_time_machine/DaisyExamples/DaisySP//Source/Filters/svf.h **** namespace daisysp
  14:../temp_time_machine/DaisyExamples/DaisySP//Source/Filters/svf.h **** {
  15:../temp_time_machine/DaisyExamples/DaisySP//Source/Filters/svf.h **** /**      Double Sampled, Stable State Variable Filter
  16:../temp_time_machine/DaisyExamples/DaisySP//Source/Filters/svf.h **** 
  17:../temp_time_machine/DaisyExamples/DaisySP//Source/Filters/svf.h **** Credit to Andrew Simper from musicdsp.org
  18:../temp_time_machine/DaisyExamples/DaisySP//Source/Filters/svf.h **** 
  19:../temp_time_machine/DaisyExamples/DaisySP//Source/Filters/svf.h **** This is his "State Variable Filter (Double Sampled, Stable)"
  20:../temp_time_machine/DaisyExamples/DaisySP//Source/Filters/svf.h **** 
  21:../temp_time_machine/DaisyExamples/DaisySP//Source/Filters/svf.h **** Additional thanks to Laurent de Soras for stability limit, and 
  22:../temp_time_machine/DaisyExamples/DaisySP//Source/Filters/svf.h **** Stefan Diedrichsen for the correct notch output
  23:../temp_time_machine/DaisyExamples/DaisySP//Source/Filters/svf.h **** 
  24:../temp_time_machine/DaisyExamples/DaisySP//Source/Filters/svf.h **** Ported by: Stephen Hensley
  25:../temp_time_machine/DaisyExamples/DaisySP//Source/Filters/svf.h **** */
  26:../temp_time_machine/DaisyExamples/DaisySP//Source/Filters/svf.h **** class Svf
  27:../temp_time_machine/DaisyExamples/DaisySP//Source/Filters/svf.h **** {
  28:../temp_time_machine/DaisyExamples/DaisySP//Source/Filters/svf.h ****   public:
  29:../temp_time_machine/DaisyExamples/DaisySP//Source/Filters/svf.h ****     Svf() {}
  30:../temp_time_machine/DaisyExamples/DaisySP//Source/Filters/svf.h ****     ~Svf() {}
  31:../temp_time_machine/DaisyExamples/DaisySP//Source/Filters/svf.h ****     /** Initializes the filter
  32:../temp_time_machine/DaisyExamples/DaisySP//Source/Filters/svf.h ****         float sample_rate - sample rate of the audio engine being run, and the frequency that the P
  33:../temp_time_machine/DaisyExamples/DaisySP//Source/Filters/svf.h ****     */
  34:../temp_time_machine/DaisyExamples/DaisySP//Source/Filters/svf.h ****     void Init(float sample_rate);
  35:../temp_time_machine/DaisyExamples/DaisySP//Source/Filters/svf.h **** 
  36:../temp_time_machine/DaisyExamples/DaisySP//Source/Filters/svf.h **** 
  37:../temp_time_machine/DaisyExamples/DaisySP//Source/Filters/svf.h ****     /** 
  38:../temp_time_machine/DaisyExamples/DaisySP//Source/Filters/svf.h ****         Process the input signal, updating all of the outputs.
  39:../temp_time_machine/DaisyExamples/DaisySP//Source/Filters/svf.h ****     */
  40:../temp_time_machine/DaisyExamples/DaisySP//Source/Filters/svf.h ****     void Process(float in);
  41:../temp_time_machine/DaisyExamples/DaisySP//Source/Filters/svf.h **** 
  42:../temp_time_machine/DaisyExamples/DaisySP//Source/Filters/svf.h **** 
ARM GAS  /var/folders/v1/156fk8j97zv9pzndh61fy7zm0000gn/T//ccyHp6tG.s 			page 78


  43:../temp_time_machine/DaisyExamples/DaisySP//Source/Filters/svf.h ****     /** sets the frequency of the cutoff frequency. 
  44:../temp_time_machine/DaisyExamples/DaisySP//Source/Filters/svf.h ****         f must be between 0.0 and sample_rate / 3
  45:../temp_time_machine/DaisyExamples/DaisySP//Source/Filters/svf.h ****     */
  46:../temp_time_machine/DaisyExamples/DaisySP//Source/Filters/svf.h ****     void SetFreq(float f);
  47:../temp_time_machine/DaisyExamples/DaisySP//Source/Filters/svf.h **** 
  48:../temp_time_machine/DaisyExamples/DaisySP//Source/Filters/svf.h ****     /** sets the resonance of the filter.
  49:../temp_time_machine/DaisyExamples/DaisySP//Source/Filters/svf.h ****         Must be between 0.0 and 1.0 to ensure stability.
  50:../temp_time_machine/DaisyExamples/DaisySP//Source/Filters/svf.h ****     */
  51:../temp_time_machine/DaisyExamples/DaisySP//Source/Filters/svf.h ****     void SetRes(float r);
  52:../temp_time_machine/DaisyExamples/DaisySP//Source/Filters/svf.h **** 
  53:../temp_time_machine/DaisyExamples/DaisySP//Source/Filters/svf.h ****     /** sets the drive of the filter 
  54:../temp_time_machine/DaisyExamples/DaisySP//Source/Filters/svf.h ****         affects the response of the resonance of the filter
  55:../temp_time_machine/DaisyExamples/DaisySP//Source/Filters/svf.h ****     */
  56:../temp_time_machine/DaisyExamples/DaisySP//Source/Filters/svf.h ****     void SetDrive(float d);
  57:../temp_time_machine/DaisyExamples/DaisySP//Source/Filters/svf.h ****     /** lowpass output
  58:../temp_time_machine/DaisyExamples/DaisySP//Source/Filters/svf.h ****         \return low pass output of the filter
  59:../temp_time_machine/DaisyExamples/DaisySP//Source/Filters/svf.h ****     */
  60:../temp_time_machine/DaisyExamples/DaisySP//Source/Filters/svf.h ****     inline float Low() { return out_low_; }
  61:../temp_time_machine/DaisyExamples/DaisySP//Source/Filters/svf.h ****     /** highpass output
  62:../temp_time_machine/DaisyExamples/DaisySP//Source/Filters/svf.h ****         \return high pass output of the filter
  63:../temp_time_machine/DaisyExamples/DaisySP//Source/Filters/svf.h ****     */
  64:../temp_time_machine/DaisyExamples/DaisySP//Source/Filters/svf.h ****     inline float High() { return out_high_; }
  65:../temp_time_machine/DaisyExamples/DaisySP//Source/Filters/svf.h ****     /** bandpass output
  66:../temp_time_machine/DaisyExamples/DaisySP//Source/Filters/svf.h ****         \return band pass output of the filter
  67:../temp_time_machine/DaisyExamples/DaisySP//Source/Filters/svf.h ****     */
  68:../temp_time_machine/DaisyExamples/DaisySP//Source/Filters/svf.h ****     inline float Band() { return out_band_; }
 2409              		.loc 16 68 18 view .LVU712
 2410              	.LBB944:
 2411              		.loc 16 68 27 view .LVU713
 2412              		.loc 16 68 27 is_stmt 0 view .LVU714
 2413              	.LBE944:
 2414              	.LBE943:
 2415              	.LBE947:
 2416              	.LBE973:
  73:omni_resonator.h ****       }
 2417              		.loc 10 73 38 view .LVU715
 2418 01d6 B6EC018A 		vldmia.32	r6!, {s16}
  72:omni_resonator.h ****         sum_r += voices_r_[k].Process(exciter * harmonic_gains[k]);
 2419              		.loc 10 72 15 discriminator 1 view .LVU716
 2420 01da 54ED087A 		vldr.32	s15, [r4, #-32]
 2421              	.LBB974:
 2422              	.LBB952:
  17:omni_resonator.h ****     svf_.SetRes(res_);
 2423              		.loc 10 17 17 view .LVU717
 2424 01de 5046     		mov	r0, r10
 2425              	.LBE952:
 2426              	.LBE974:
  73:omni_resonator.h ****       }
 2427              		.loc 10 73 38 view .LVU718
 2428 01e0 29EE088A 		vmul.f32	s16, s18, s16
 2429              	.LBB975:
 2430              	.LBB953:
  17:omni_resonator.h ****     svf_.SetRes(res_);
 2431              		.loc 10 17 17 view .LVU719
 2432 01e4 94ED980A 		vldr.32	s0, [r4, #608]
 2433              	.LBE953:
 2434              	.LBE975:
ARM GAS  /var/folders/v1/156fk8j97zv9pzndh61fy7zm0000gn/T//ccyHp6tG.s 			page 79


  72:omni_resonator.h ****         sum_r += voices_r_[k].Process(exciter * harmonic_gains[k]);
 2435              		.loc 10 72 15 discriminator 1 view .LVU720
 2436 01e8 79EEA79A 		vadd.f32	s19, s19, s15
 2437              	.LVL140:
  73:omni_resonator.h ****       }
 2438              		.loc 10 73 9 is_stmt 1 view .LVU721
 2439              	.LBB976:
 2440              	.LBI948:
  16:omni_resonator.h ****     svf_.SetFreq(freq_);
 2441              		.loc 10 16 9 view .LVU722
 2442              	.LBB954:
  17:omni_resonator.h ****     svf_.SetRes(res_);
 2443              		.loc 10 17 5 view .LVU723
  17:omni_resonator.h ****     svf_.SetRes(res_);
 2444              		.loc 10 17 17 is_stmt 0 view .LVU724
 2445 01ec FFF7FEFF 		bl	_ZN7daisysp3Svf7SetFreqEf
 2446              	.LVL141:
  18:omni_resonator.h ****     svf_.Process(in);
 2447              		.loc 10 18 5 is_stmt 1 view .LVU725
  18:omni_resonator.h ****     svf_.Process(in);
 2448              		.loc 10 18 16 is_stmt 0 view .LVU726
 2449 01f0 94ED990A 		vldr.32	s0, [r4, #612]
 2450 01f4 5046     		mov	r0, r10
 2451 01f6 FFF7FEFF 		bl	_ZN7daisysp3Svf6SetResEf
 2452              	.LVL142:
  19:omni_resonator.h ****     return svf_.Band();
 2453              		.loc 10 19 5 is_stmt 1 view .LVU727
  19:omni_resonator.h ****     return svf_.Band();
 2454              		.loc 10 19 17 is_stmt 0 view .LVU728
 2455 01fa B0EE480A 		vmov.f32	s0, s16
 2456 01fe 5046     		mov	r0, r10
 2457 0200 FFF7FEFF 		bl	_ZN7daisysp3Svf7ProcessEf
 2458              	.LVL143:
  20:omni_resonator.h ****   }
 2459              		.loc 10 20 5 is_stmt 1 view .LVU729
 2460              	.LBB950:
 2461              	.LBI950:
 2462              		.loc 16 68 18 view .LVU730
 2463              	.LBB951:
 2464              		.loc 16 68 27 view .LVU731
 2465              		.loc 16 68 27 is_stmt 0 view .LVU732
 2466              	.LBE951:
 2467              	.LBE950:
 2468              	.LBE954:
 2469              	.LBE976:
  73:omni_resonator.h ****       }
 2470              		.loc 10 73 15 discriminator 1 view .LVU733
 2471 0204 D4EDA87A 		vldr.32	s15, [r4, #672]
 2472              	.LBE978:
  61:omni_resonator.h ****         float f = root_freq_ * ratios_[k];
 2473              		.loc 10 61 25 discriminator 1 view .LVU734
 2474 0208 082D     		cmp	r5, #8
 2475              	.LBB979:
  73:omni_resonator.h ****       }
 2476              		.loc 10 73 15 discriminator 1 view .LVU735
 2477 020a 78EEA78A 		vadd.f32	s17, s17, s15
 2478              	.LVL144:
ARM GAS  /var/folders/v1/156fk8j97zv9pzndh61fy7zm0000gn/T//ccyHp6tG.s 			page 80


  73:omni_resonator.h ****       }
 2479              		.loc 10 73 15 discriminator 1 view .LVU736
 2480              	.LBE979:
  61:omni_resonator.h ****         float f = root_freq_ * ratios_[k];
 2481              		.loc 10 61 7 is_stmt 1 discriminator 2 view .LVU737
  61:omni_resonator.h ****         float f = root_freq_ * ratios_[k];
 2482              		.loc 10 61 25 discriminator 1 view .LVU738
 2483 020e AED1     		bne	.L76
 2484              	.LBE982:
  75:omni_resonator.h ****       out_r[i] = sum_r * 0.8f;
 2485              		.loc 10 75 24 is_stmt 0 view .LVU739
 2486 0210 DFED147A 		vldr.32	s15, .L77+28
 2487 0214 5946     		mov	r1, fp
  75:omni_resonator.h ****       out_r[i] = sum_r * 0.8f;
 2488              		.loc 10 75 7 is_stmt 1 view .LVU740
 2489              	.LBE938:
  52:omni_resonator.h ****       float input = (in_l[i] + in_r[i]) * 0.5f;
 2490              		.loc 10 52 26 is_stmt 0 discriminator 1 view .LVU741
 2491 0216 1798     		ldr	r0, [sp, #92]
 2492              	.LBB984:
  75:omni_resonator.h ****       out_r[i] = sum_r * 0.8f;
 2493              		.loc 10 75 24 view .LVU742
 2494 0218 69EEA79A 		vmul.f32	s19, s19, s15
 2495              	.LVL145:
  76:omni_resonator.h ****     }
 2496              		.loc 10 76 24 view .LVU743
 2497 021c 68EEA78A 		vmul.f32	s17, s17, s15
 2498              	.LVL146:
  75:omni_resonator.h ****       out_r[i] = sum_r * 0.8f;
 2499              		.loc 10 75 24 view .LVU744
 2500 0220 DDE90067 		ldrd	r6, r7, [sp]
 2501 0224 DDE90232 		ldrd	r3, r2, [sp, #8]
 2502              	.LBE984:
  52:omni_resonator.h ****       float input = (in_l[i] + in_r[i]) * 0.5f;
 2503              		.loc 10 52 5 discriminator 2 view .LVU745
 2504 0228 0136     		adds	r6, r6, #1
 2505              	.LBB985:
  75:omni_resonator.h ****       out_r[i] = sum_r * 0.8f;
 2506              		.loc 10 75 16 view .LVU746
 2507 022a E3EC019A 		vstmia.32	r3!, {s19}
  76:omni_resonator.h ****     }
 2508              		.loc 10 76 7 is_stmt 1 view .LVU747
 2509              	.LBE985:
  52:omni_resonator.h ****       float input = (in_l[i] + in_r[i]) * 0.5f;
 2510              		.loc 10 52 26 is_stmt 0 discriminator 1 view .LVU748
 2511 022e B042     		cmp	r0, r6
 2512              	.LBB986:
  76:omni_resonator.h ****     }
 2513              		.loc 10 76 16 view .LVU749
 2514 0230 E7EC018A 		vstmia.32	r7!, {s17}
 2515              	.LBE986:
  52:omni_resonator.h ****       float input = (in_l[i] + in_r[i]) * 0.5f;
 2516              		.loc 10 52 5 is_stmt 1 discriminator 2 view .LVU750
 2517              	.LVL147:
  52:omni_resonator.h ****       float input = (in_l[i] + in_r[i]) * 0.5f;
 2518              		.loc 10 52 26 discriminator 1 view .LVU751
 2519 0234 02D0     		beq	.L56
ARM GAS  /var/folders/v1/156fk8j97zv9pzndh61fy7zm0000gn/T//ccyHp6tG.s 			page 81


 2520              	.LBB987:
 2521              	.LBB983:
 2522              	.LBB980:
  62:omni_resonator.h ****         if (f > 16000.0f)
 2523              		.loc 10 62 19 is_stmt 0 view .LVU752
 2524 0236 98ED008A 		vldr.32	s16, [r8]
 2525 023a 73E7     		b	.L66
 2526              	.LVL148:
 2527              	.L56:
  62:omni_resonator.h ****         if (f > 16000.0f)
 2528              		.loc 10 62 19 view .LVU753
 2529              	.LBE980:
 2530              	.LBE983:
 2531              	.LBE987:
 2532              	.LBE988:
  78:omni_resonator.h **** 
 2533              		.loc 10 78 3 view .LVU754
 2534 023c 07B0     		add	sp, sp, #28
 2535              		.cfi_def_cfa_offset 60
 2536              		@ sp needed
 2537 023e BDEC068B 		vldm	sp!, {d8-d10}
 2538              		.cfi_restore 84
 2539              		.cfi_restore 85
 2540              		.cfi_restore 82
 2541              		.cfi_restore 83
 2542              		.cfi_restore 80
 2543              		.cfi_restore 81
 2544              		.cfi_def_cfa_offset 36
 2545              	.LVL149:
  78:omni_resonator.h **** 
 2546              		.loc 10 78 3 view .LVU755
 2547 0242 BDE8F08F 		pop	{r4, r5, r6, r7, r8, r9, r10, fp, pc}
 2548              	.LVL150:
 2549              	.L78:
  78:omni_resonator.h **** 
 2550              		.loc 10 78 3 view .LVU756
 2551 0246 00BF     		.align	2
 2552              	.L77:
 2553 0248 00007042 		.word	1114636288
 2554 024c 00001042 		.word	1108344832
 2555 0250 00008A42 		.word	1116340224
 2556 0254 0000DC43 		.word	1138491392
 2557 0258 00000000 		.word	0
 2558 025c 00000842 		.word	1107820544
 2559 0260 BA494C3E 		.word	1045187002
 2560 0264 CDCC4C3F 		.word	1061997773
 2561 0268 00007A46 		.word	1182400512
 2562 026c A4707D3F 		.word	1065185444
 2563 0270 AE47813F 		.word	1065437102
 2564 0274 00000000 		.word	_ZZN19OmniResonatorEngine12ProcessBlockEPKfS1_PfS2_jS1_fffE4prev
 2565              		.cfi_endproc
 2566              	.LFE3755:
 2568              		.section	.text._ZN3oam6legacy16LegacyMonoEngineC2Ev,"axG",%progbits,_ZN3oam6legacy16LegacyMonoEngi
 2569              		.align	1
 2570              		.p2align 2,,3
 2571              		.weak	_ZN3oam6legacy16LegacyMonoEngineC2Ev
 2572              		.syntax unified
ARM GAS  /var/folders/v1/156fk8j97zv9pzndh61fy7zm0000gn/T//ccyHp6tG.s 			page 82


 2573              		.thumb
 2574              		.thumb_func
 2576              	_ZN3oam6legacy16LegacyMonoEngineC2Ev:
 2577              	.LVL151:
 2578              	.LFB4983:
 165:legacy_engine.h **** public:
 2579              		.loc 11 165 7 is_stmt 1 view -0
 2580              		.cfi_startproc
 2581              		@ args = 0, pretend = 0, frame = 0
 2582              		@ frame_needed = 0, uses_anonymous_args = 0
 2583              	.LBB989:
 165:legacy_engine.h **** public:
 2584              		.loc 11 165 7 discriminator 2 view .LVU758
 2585              	.LBE989:
 165:legacy_engine.h **** public:
 2586              		.loc 11 165 7 is_stmt 0 view .LVU759
 2587 0000 10B5     		push	{r4, lr}
 2588              		.cfi_def_cfa_offset 8
 2589              		.cfi_offset 4, -8
 2590              		.cfi_offset 14, -4
 2591 0002 00F13C03 		add	r3, r0, #60
 2592 0006 00F50774 		add	r4, r0, #540
 2593              	.L80:
 2594              	.LVL152:
 2595              	.LBB1022:
 2596              	.LBB990:
 2597              	.LBI990:
 100:legacy_engine.h **** public:
 2598              		.loc 11 100 7 is_stmt 1 view .LVU760
 2599              	.LBB991:
 2600              	.LBB992:
 2601              	.LBI992:
  88:legacy_engine.h **** public:
 2602              		.loc 11 88 7 view .LVU761
 2603              	.LBB993:
 2604              	.LBB994:
 2605              	.LBI994:
  58:legacy_engine.h **** public:
 2606              		.loc 11 58 7 view .LVU762
 2607              	.LBE994:
 2608              	.LBE993:
 2609              	.LBE992:
 2610              	.LBE991:
 2611              	.LBE990:
 165:legacy_engine.h **** public:
 2612              		.loc 11 165 7 is_stmt 0 discriminator 2 view .LVU763
 2613 000a 3C33     		adds	r3, r3, #60
 2614              	.LVL153:
 2615              	.LBB1009:
 2616              	.LBB1007:
 2617              	.LBB1004:
 2618              	.LBB1001:
 2619              	.LBB998:
 2620              	.LBB995:
  58:legacy_engine.h **** public:
 2621              		.loc 11 58 7 view .LVU764
 2622 000c 0022     		movs	r2, #0
ARM GAS  /var/folders/v1/156fk8j97zv9pzndh61fy7zm0000gn/T//ccyHp6tG.s 			page 83


 2623              	.LBE995:
 2624              	.LBE998:
 2625              	.LBE1001:
 2626              	.LBE1004:
 100:legacy_engine.h **** public:
 2627              		.loc 11 100 7 discriminator 1 view .LVU765
 2628 000e 1749     		ldr	r1, .L83
 2629 0010 4FF07E5E 		mov	lr, #1065353216
 2630              	.LBB1005:
 2631              	.LBB1002:
 2632              	.LBB999:
 2633              	.LBB996:
  58:legacy_engine.h **** public:
 2634              		.loc 11 58 7 view .LVU766
 2635 0014 DFF858C0 		ldr	ip, .L83+4
 2636              	.LBE996:
 2637              	.LBE999:
 2638              	.LBE1002:
 2639              	.LBE1005:
 2640              	.LBE1007:
 2641              	.LBE1009:
 165:legacy_engine.h **** public:
 2642              		.loc 11 165 7 discriminator 2 view .LVU767
 2643 0018 A342     		cmp	r3, r4
 2644              	.LBB1010:
 2645              	.LBB1008:
 2646              	.LBB1006:
 2647              	.LBB1003:
 2648              	.LBB1000:
 2649              	.LBB997:
  58:legacy_engine.h **** public:
 2650              		.loc 11 58 7 view .LVU768
 2651 001a 43F8782C 		str	r2, [r3, #-120]	@ float
 2652 001e 43F874CC 		str	ip, [r3, #-116]	@ float
 2653              	.LVL154:
  58:legacy_engine.h **** public:
 2654              		.loc 11 58 7 view .LVU769
 2655              	.LBE997:
 2656              	.LBE1000:
  88:legacy_engine.h **** public:
 2657              		.loc 11 88 7 discriminator 1 view .LVU770
 2658 0022 43F8702C 		str	r2, [r3, #-112]	@ float
 2659              	.LVL155:
  88:legacy_engine.h **** public:
 2660              		.loc 11 88 7 discriminator 1 view .LVU771
 2661              	.LBE1003:
 2662              	.LBE1006:
 100:legacy_engine.h **** public:
 2663              		.loc 11 100 7 discriminator 1 view .LVU772
 2664 0026 43F8642C 		str	r2, [r3, #-100]	@ float
 2665 002a 43F8602C 		str	r2, [r3, #-96]	@ float
 2666 002e 43F85C1C 		str	r1, [r3, #-92]	@ float
 2667 0032 43F8582C 		str	r2, [r3, #-88]	@ float
 2668 0036 43F8542C 		str	r2, [r3, #-84]	@ float
 2669 003a 43F8501C 		str	r1, [r3, #-80]	@ float
 2670 003e 43F848EC 		str	lr, [r3, #-72]	@ float
 2671              	.LVL156:
ARM GAS  /var/folders/v1/156fk8j97zv9pzndh61fy7zm0000gn/T//ccyHp6tG.s 			page 84


 100:legacy_engine.h **** public:
 2672              		.loc 11 100 7 discriminator 1 view .LVU773
 2673              	.LBE1008:
 2674              	.LBE1010:
 165:legacy_engine.h **** public:
 2675              		.loc 11 165 7 is_stmt 1 discriminator 2 view .LVU774
 2676 0042 E2D1     		bne	.L80
 2677              	.LVL157:
 2678              	.LBB1011:
 2679              	.LBI1011:
  88:legacy_engine.h **** public:
 2680              		.loc 11 88 7 view .LVU775
 2681              	.LBB1012:
 2682              	.LBB1013:
 2683              	.LBI1013:
  58:legacy_engine.h **** public:
 2684              		.loc 11 58 7 view .LVU776
 2685              	.LBB1014:
 2686 0044 C0F8E021 		str	r2, [r0, #480]	@ float
 2687 0048 C0F8E4C1 		str	ip, [r0, #484]	@ float
 2688              	.LVL158:
  58:legacy_engine.h **** public:
 2689              		.loc 11 58 7 is_stmt 0 view .LVU777
 2690              	.LBE1014:
 2691              	.LBE1013:
  88:legacy_engine.h **** public:
 2692              		.loc 11 88 7 discriminator 1 view .LVU778
 2693 004c C0F8E821 		str	r2, [r0, #488]	@ float
 2694              	.LVL159:
  88:legacy_engine.h **** public:
 2695              		.loc 11 88 7 discriminator 1 view .LVU779
 2696              	.LBE1012:
 2697              	.LBE1011:
 2698              	.LBB1015:
 2699              	.LBI1015:
  58:legacy_engine.h **** public:
 2700              		.loc 11 58 7 is_stmt 1 view .LVU780
 2701              	.LBB1016:
 2702 0050 C0F80822 		str	r2, [r0, #520]	@ float
 2703 0054 C0F80CC2 		str	ip, [r0, #524]	@ float
 2704              	.LVL160:
  58:legacy_engine.h **** public:
 2705              		.loc 11 58 7 is_stmt 0 view .LVU781
 2706              	.LBE1016:
 2707              	.LBE1015:
 2708              	.LBB1017:
 2709              	.LBI1017:
  58:legacy_engine.h **** public:
 2710              		.loc 11 58 7 is_stmt 1 view .LVU782
 2711              	.LBB1018:
 2712 0058 C0F81022 		str	r2, [r0, #528]	@ float
 2713 005c C0F814C2 		str	ip, [r0, #532]	@ float
 2714              	.LVL161:
  58:legacy_engine.h **** public:
 2715              		.loc 11 58 7 is_stmt 0 view .LVU783
 2716              	.LBE1018:
 2717              	.LBE1017:
ARM GAS  /var/folders/v1/156fk8j97zv9pzndh61fy7zm0000gn/T//ccyHp6tG.s 			page 85


 2718              	.LBB1019:
 2719              	.LBI1019:
  58:legacy_engine.h **** public:
 2720              		.loc 11 58 7 is_stmt 1 view .LVU784
 2721              	.LBB1020:
 2722 0060 C0F81822 		str	r2, [r0, #536]	@ float
 2723 0064 C0F81CC2 		str	ip, [r0, #540]	@ float
 2724              	.LVL162:
  58:legacy_engine.h **** public:
 2725              		.loc 11 58 7 is_stmt 0 view .LVU785
 2726              	.LBE1020:
 2727              	.LBE1019:
 2728              	.LBB1021:
 2729              	.LBI1021:
  37:../temp_time_machine/DaisyExamples/DaisySP//DaisySP-LGPL/Source/Dynamics/compressor.h ****     ~Compressor() {}
 2730              		.loc 12 37 5 is_stmt 1 view .LVU786
  37:../temp_time_machine/DaisyExamples/DaisySP//DaisySP-LGPL/Source/Dynamics/compressor.h ****     ~Compressor() {}
 2731              		.loc 12 37 5 is_stmt 0 view .LVU787
 2732              	.LBE1021:
 2733              	.LBE1022:
 165:legacy_engine.h **** public:
 2734              		.loc 11 165 7 view .LVU788
 2735 0068 10BD     		pop	{r4, pc}
 2736              	.L84:
 2737 006a 00BF     		.align	2
 2738              	.L83:
 2739 006c 000080BF 		.word	-1082130432
 2740 0070 6F12833A 		.word	981668463
 2741              		.cfi_endproc
 2742              	.LFE4983:
 2744              		.weak	_ZN3oam6legacy16LegacyMonoEngineC1Ev
 2745              		.thumb_set _ZN3oam6legacy16LegacyMonoEngineC1Ev,_ZN3oam6legacy16LegacyMonoEngineC2Ev
 2746              		.section	.text._ZN7UberFDNILi8EE12ProcessBlockEPKfS2_PfS3_jS2_fff,"axG",%progbits,_ZN7UberFDNILi8E
 2747              		.align	1
 2748              		.p2align 2,,3
 2749              		.weak	_ZN7UberFDNILi8EE12ProcessBlockEPKfS2_PfS3_jS2_fff
 2750              		.syntax unified
 2751              		.thumb
 2752              		.thumb_func
 2754              	_ZN7UberFDNILi8EE12ProcessBlockEPKfS2_PfS3_jS2_fff:
 2755              	.LVL163:
 2756              	.LFB5310:
  99:uber_fdn.h    **** public:
 100:uber_fdn.h    ****   void Init(float sample_rate, float *big_buffer) {
 101:uber_fdn.h    ****     sample_rate_ = sample_rate;
 102:uber_fdn.h    ****     // manually assign chunks
 103:uber_fdn.h    ****     for (int i = 0; i < N_LINES; i++) {
 104:uber_fdn.h    ****       // 240,000 floats each
 105:uber_fdn.h    ****       delays_[i].Init(&big_buffer[i * 240000], 240000);
 106:uber_fdn.h    ****     }
 107:uber_fdn.h    ****     mode_ = MODE_STUDIO;
 108:uber_fdn.h    **** 
 109:uber_fdn.h    ****     int diff_lens[4] = {225, 341, 441, 556};
 110:uber_fdn.h    ****     for (int i = 0; i < 4; i++) {
 111:uber_fdn.h    ****       diffusers_[i].Init();
 112:uber_fdn.h    ****       diffusers_[i].SetDelay(diff_lens[i]);
 113:uber_fdn.h    ****     }
ARM GAS  /var/folders/v1/156fk8j97zv9pzndh61fy7zm0000gn/T//ccyHp6tG.s 			page 86


 114:uber_fdn.h    **** 
 115:uber_fdn.h    ****     // Init Shimmers
 116:uber_fdn.h    ****     for (int i = 0; i < 2; i++) {
 117:uber_fdn.h    ****       shimmers_[i].Init(sample_rate);
 118:uber_fdn.h    ****       shimmers_[i].SetTransposition(12.0f);
 119:uber_fdn.h    ****       shimmers_[i].SetDelSize(1600);
 120:uber_fdn.h    ****     }
 121:uber_fdn.h    **** 
 122:uber_fdn.h    ****     // Init Modulators & Filters
 123:uber_fdn.h    ****     for (int i = 0; i < N_LINES; i++) {
 124:uber_fdn.h    ****       // LFO for Studio/Shimmer
 125:uber_fdn.h    ****       lfo_[i].Init(sample_rate);
 126:uber_fdn.h    ****       lfo_[i].SetWaveform(Oscillator::WAVE_SIN);
 127:uber_fdn.h    ****       lfo_[i].SetAmp(1.0f);
 128:uber_fdn.h    ****       lfo_[i].SetFreq(0.1f + (i * 0.05f));
 129:uber_fdn.h    **** 
 130:uber_fdn.h    ****       // Wander LFOs for Massive
 131:uber_fdn.h    ****       wander1_[i].Init(sample_rate);
 132:uber_fdn.h    ****       wander1_[i].SetFreq(0.1f + (i * 0.03f));
 133:uber_fdn.h    ****       wander1_[i].SetAmp(0.5f);
 134:uber_fdn.h    ****       wander2_[i].Init(sample_rate);
 135:uber_fdn.h    ****       wander2_[i].SetFreq(0.07f + (i * 0.041f));
 136:uber_fdn.h    ****       wander2_[i].SetAmp(0.3f);
 137:uber_fdn.h    **** 
 138:uber_fdn.h    ****       // Damping (OnePole for Studio/Shimmer)
 139:uber_fdn.h    ****       damp_lpf_[i].Init();
 140:uber_fdn.h    **** 
 141:uber_fdn.h    ****       // Resonators (SVF for Massive)
 142:uber_fdn.h    ****       resonators_[i].Init(sample_rate);
 143:uber_fdn.h    ****       resonators_[i].SetRes(0.1f);
 144:uber_fdn.h    ****     }
 145:uber_fdn.h    **** 
 146:uber_fdn.h    ****     master_decay_ = 0.5f;
 147:uber_fdn.h    ****   }
 148:uber_fdn.h    **** 
 149:uber_fdn.h    ****   void SetMode(FdnMode m) { mode_ = m; }
 150:uber_fdn.h    **** 
 151:uber_fdn.h    ****   void ProcessBlock(const float *in_l, const float *in_r, float *out_l,
 2757              		.loc 9 151 8 is_stmt 1 view -0
 2758              		.cfi_startproc
 2759              		@ args = 12, pretend = 0, frame = 128
 2760              		@ frame_needed = 0, uses_anonymous_args = 0
 2761              		.loc 9 151 8 is_stmt 0 view .LVU790
 2762 0000 2DE9F04F 		push	{r4, r5, r6, r7, r8, r9, r10, fp, lr}
 2763              		.cfi_def_cfa_offset 36
 2764              		.cfi_offset 4, -36
 2765              		.cfi_offset 5, -32
 2766              		.cfi_offset 6, -28
 2767              		.cfi_offset 7, -24
 2768              		.cfi_offset 8, -20
 2769              		.cfi_offset 9, -16
 2770              		.cfi_offset 10, -12
 2771              		.cfi_offset 11, -8
 2772              		.cfi_offset 14, -4
 152:uber_fdn.h    ****                     float *out_r, size_t size, const float *gains,
 153:uber_fdn.h    ****                     float size_param, float skew, float warp) {
 154:uber_fdn.h    ****     // Parameter setup based on mode
ARM GAS  /var/folders/v1/156fk8j97zv9pzndh61fy7zm0000gn/T//ccyHp6tG.s 			page 87


 155:uber_fdn.h    ****     float depth = 10.0f;
 156:uber_fdn.h    ****     if (mode_ == MODE_MASSIVE)
 2773              		.loc 9 156 9 view .LVU791
 2774 0004 00F58428 		add	r8, r0, #270336
 151:uber_fdn.h    ****                     float *out_r, size_t size, const float *gains,
 2775              		.loc 9 151 8 view .LVU792
 2776 0008 1D46     		mov	r5, r3
 2777 000a 8246     		mov	r10, r0
 2778 000c 0F46     		mov	r7, r1
 2779              		.loc 9 156 9 view .LVU793
 2780 000e 98F8583E 		ldrb	r3, [r8, #3672]	@ zero_extendqisi2
 2781              	.LVL164:
 151:uber_fdn.h    ****                     float *out_r, size_t size, const float *gains,
 2782              		.loc 9 151 8 view .LVU794
 2783 0012 1646     		mov	r6, r2
 2784              		.loc 9 156 5 view .LVU795
 2785 0014 022B     		cmp	r3, #2
 151:uber_fdn.h    ****                     float *out_r, size_t size, const float *gains,
 2786              		.loc 9 151 8 view .LVU796
 2787 0016 2DED088B 		vpush.64	{d8, d9, d10, d11}
 2788              		.cfi_def_cfa_offset 68
 2789              		.cfi_offset 80, -68
 2790              		.cfi_offset 81, -64
 2791              		.cfi_offset 82, -60
 2792              		.cfi_offset 83, -56
 2793              		.cfi_offset 84, -52
 2794              		.cfi_offset 85, -48
 2795              		.cfi_offset 86, -44
 2796              		.cfi_offset 87, -40
 2797 001a F0EE408A 		vmov.f32	s17, s0
 2798 001e A1B0     		sub	sp, sp, #132
 2799              		.cfi_def_cfa_offset 200
 151:uber_fdn.h    ****                     float *out_r, size_t size, const float *gains,
 2800              		.loc 9 151 8 view .LVU797
 2801 0020 B0EE609A 		vmov.f32	s18, s1
 2802              		.loc 9 156 5 view .LVU798
 2803 0024 00F0B782 		beq	.L86
 2804              	.LVL165:
 157:uber_fdn.h    ****       depth = 100.0f; // Massive drift
 158:uber_fdn.h    **** 
 159:uber_fdn.h    ****     // Shimmer Setup
 160:uber_fdn.h    ****     float shift_mix = 0.0f;
 161:uber_fdn.h    ****     if (mode_ == MODE_SHIMMER) {
 2805              		.loc 9 161 5 view .LVU799
 2806 0028 012B     		cmp	r3, #1
 2807 002a 00F0EC81 		beq	.L192
 155:uber_fdn.h    ****     if (mode_ == MODE_MASSIVE)
 2808              		.loc 9 155 11 view .LVU800
 2809 002e B2EE04AA 		vmov.f32	s20, #1.0e+1
 160:uber_fdn.h    ****     if (mode_ == MODE_SHIMMER) {
 2810              		.loc 9 160 11 view .LVU801
 2811 0032 DFED7EAA 		vldr.32	s21, .L200
 2812              	.LVL166:
 2813              	.L87:
 2814              	.LBB1066:
 162:uber_fdn.h    ****       // Sliders 7 & 8 control shimmer mix indirectly via code logic?
 163:uber_fdn.h    ****       // In Shimmer mode, sliders control feedback. We apply shimmer fixed on
ARM GAS  /var/folders/v1/156fk8j97zv9pzndh61fy7zm0000gn/T//ccyHp6tG.s 			page 88


 164:uber_fdn.h    ****       // lines 6/7. Let's hardcode effect for now or use Warp knob? Original
 165:uber_fdn.h    ****       // Shimmer used sliders 7/8 for feedback of shimmer lines. Here we use
 166:uber_fdn.h    ****       // Fixed behavior.
 167:uber_fdn.h    ****       shimmers_[0].SetTransposition(12.0f);
 168:uber_fdn.h    ****       shimmers_[1].SetTransposition(12.0f);
 169:uber_fdn.h    ****       shift_mix = 1.0f; // Always active on specific lines
 170:uber_fdn.h    ****     } else if (mode_ == MODE_MASSIVE) {
 171:uber_fdn.h    ****       // Massive logic from before
 172:uber_fdn.h    ****       if (warp > 0.6f) {
 173:uber_fdn.h    ****         shift_mix = (warp - 0.6f) * 2.5f;
 174:uber_fdn.h    ****         shimmers_[0].SetTransposition(warp > 0.85f ? 19.0f : 12.0f);
 175:uber_fdn.h    ****         shimmers_[1].SetTransposition(warp > 0.85f ? 19.02f : 12.02f);
 176:uber_fdn.h    ****       } else {
 177:uber_fdn.h    ****         // Detune only
 178:uber_fdn.h    ****         shimmers_[0].SetTransposition((warp - 0.2f) * 2.0f);
 179:uber_fdn.h    ****         shimmers_[1].SetTransposition((warp - 0.2f) * 2.0f + 0.02f);
 180:uber_fdn.h    ****         shift_mix = (warp < 0.4f) ? 0.5f : 0.0f;
 181:uber_fdn.h    ****       }
 182:uber_fdn.h    ****     }
 183:uber_fdn.h    **** 
 184:uber_fdn.h    ****     for (size_t i = 0; i < size; i++) {
 2815              		.loc 9 184 26 is_stmt 1 discriminator 1 view .LVU802
 2816 0036 339B     		ldr	r3, [sp, #204]
 2817 0038 002B     		cmp	r3, #0
 2818 003a 00F04882 		beq	.L85
 2819              	.L198:
 2820              		.loc 9 184 26 is_stmt 0 discriminator 1 view .LVU803
 2821 003e 7C4B     		ldr	r3, .L200+4
 2822 0040 42F2647E 		movw	lr, #10084
 2823 0044 7B4A     		ldr	r2, .L200+8
 2824 0046 42F6842C 		movw	ip, #10884
 2825 004a 5344     		add	r3, r10, r3
 2826 004c 42F62421 		movw	r1, #10788
 2827 0050 5244     		add	r2, r10, r2
 2828 0052 D644     		add	lr, lr, r10
 2829 0054 0A93     		str	r3, [sp, #40]
 2830 0056 D444     		add	ip, ip, r10
 2831 0058 774B     		ldr	r3, .L200+12
 2832 005a 5144     		add	r1, r1, r10
 2833 005c 0992     		str	r2, [sp, #36]
 2834 005e D346     		mov	fp, r10
 2835 0060 329A     		ldr	r2, [sp, #200]
 2836 0062 5344     		add	r3, r10, r3
 2837 0064 0595     		str	r5, [sp, #20]
 2838 0066 0492     		str	r2, [sp, #16]
 2839              		.loc 9 184 17 view .LVU804
 2840 0068 0022     		movs	r2, #0
 2841 006a CDF834C0 		str	ip, [sp, #52]
 2842 006e 0392     		str	r2, [sp, #12]
 2843 0070 0AF16002 		add	r2, r10, #96
 2844 0074 9A46     		mov	r10, r3
 2845              	.LVL167:
 2846              		.loc 9 184 17 view .LVU805
 2847 0076 0192     		str	r2, [sp, #4]
 2848 0078 CDE90667 		strd	r6, r7, [sp, #24]
 2849 007c CDE90BE1 		strd	lr, r1, [sp, #44]
 2850              	.LVL168:
ARM GAS  /var/folders/v1/156fk8j97zv9pzndh61fy7zm0000gn/T//ccyHp6tG.s 			page 89


 2851              	.L139:
 2852              	.LBB1067:
 185:uber_fdn.h    ****       float input = (in_l[i] + in_r[i]) * 0.5f;
 2853              		.loc 9 185 28 view .LVU806
 2854 0080 079B     		ldr	r3, [sp, #28]
 2855              		.loc 9 185 13 view .LVU807
 2856 0082 B6EE007A 		vmov.f32	s14, #5.0e-1
 2857 0086 5C46     		mov	r4, fp
 2858 0088 5D46     		mov	r5, fp
 2859              		.loc 9 185 28 view .LVU808
 2860 008a F3EC017A 		vldmia.32	r3!, {s15}
 2861              	.LBB1068:
 186:uber_fdn.h    ****       float diffused = input;
 187:uber_fdn.h    **** 
 188:uber_fdn.h    ****       // Diffusion
 189:uber_fdn.h    ****       for (int k = 0; k < 4; k++)
 2862              		.loc 9 189 16 view .LVU809
 2863 008e 0027     		movs	r7, #0
 2864              	.LBE1068:
 185:uber_fdn.h    ****       float input = (in_l[i] + in_r[i]) * 0.5f;
 2865              		.loc 9 185 28 view .LVU810
 2866 0090 0793     		str	r3, [sp, #28]
 185:uber_fdn.h    ****       float input = (in_l[i] + in_r[i]) * 0.5f;
 2867              		.loc 9 185 38 view .LVU811
 2868 0092 069B     		ldr	r3, [sp, #24]
 2869 0094 F3EC016A 		vldmia.32	r3!, {s13}
 185:uber_fdn.h    ****       float input = (in_l[i] + in_r[i]) * 0.5f;
 2870              		.loc 9 185 30 view .LVU812
 2871 0098 77EEA67A 		vadd.f32	s15, s15, s13
 185:uber_fdn.h    ****       float input = (in_l[i] + in_r[i]) * 0.5f;
 2872              		.loc 9 185 38 view .LVU813
 2873 009c 0693     		str	r3, [sp, #24]
 185:uber_fdn.h    ****       float input = (in_l[i] + in_r[i]) * 0.5f;
 2874              		.loc 9 185 13 view .LVU814
 2875 009e 67EE877A 		vmul.f32	s15, s15, s14
 2876              	.LVL169:
 2877              	.LBB1077:
 2878              		.loc 9 189 25 is_stmt 1 discriminator 1 view .LVU815
 2879              	.L116:
 2880              	.LBB1069:
 2881              	.LBI1069:
  57:uber_fdn.h    ****     int read_ptr = write_ptr_ - delay_len_;
 2882              		.loc 9 57 9 view .LVU816
 2883              	.LBB1070:
  58:uber_fdn.h    ****     if (read_ptr < 0)
 2884              		.loc 9 58 5 view .LVU817
  60:uber_fdn.h    ****     float buf_out = buffer_[read_ptr];
 2885              		.loc 9 60 7 view .LVU818
  58:uber_fdn.h    ****     if (read_ptr < 0)
 2886              		.loc 9 58 20 is_stmt 0 view .LVU819
 2887 00a2 D5F8C439 		ldr	r3, [r5, #2500]
  61:uber_fdn.h    ****     float out = -in + buf_out;
 2888              		.loc 9 61 11 view .LVU820
 2889 00a6 40F25A22 		movw	r2, #602
  58:uber_fdn.h    ****     if (read_ptr < 0)
 2890              		.loc 9 58 9 view .LVU821
 2891 00aa D5F8C819 		ldr	r1, [r5, #2504]
ARM GAS  /var/folders/v1/156fk8j97zv9pzndh61fy7zm0000gn/T//ccyHp6tG.s 			page 90


 2892              	.LVL170:
  59:uber_fdn.h    ****       read_ptr += 600;
 2893              		.loc 9 59 5 is_stmt 1 view .LVU822
  63:uber_fdn.h    ****     write_ptr_++;
 2894              		.loc 9 63 30 is_stmt 0 view .LVU823
 2895 00ae B0EE677A 		vmov.f32	s14, s15
  61:uber_fdn.h    ****     float out = -in + buf_out;
 2896              		.loc 9 61 11 view .LVU824
 2897 00b2 07FB02F2 		mul	r2, r7, r2
  64:uber_fdn.h    ****     if (write_ptr_ >= 600)
 2898              		.loc 9 64 15 view .LVU825
 2899 00b6 581C     		adds	r0, r3, #1
  59:uber_fdn.h    ****       read_ptr += 600;
 2900              		.loc 9 59 5 view .LVU826
 2901 00b8 591A     		subs	r1, r3, r1
 2902              	.LVL171:
  63:uber_fdn.h    ****     write_ptr_++;
 2903              		.loc 9 63 30 view .LVU827
 2904 00ba F6EE006A 		vmov.f32	s13, #5.0e-1
  63:uber_fdn.h    ****     write_ptr_++;
 2905              		.loc 9 63 25 view .LVU828
 2906 00be 1344     		add	r3, r3, r2
 2907              	.LBE1070:
 2908              	.LBE1069:
 2909              		.loc 9 189 7 discriminator 3 view .LVU829
 2910 00c0 07F10107 		add	r7, r7, #1
 2911              	.LVL172:
 2912              	.LBB1074:
 2913              	.LBB1071:
  60:uber_fdn.h    ****     float buf_out = buffer_[read_ptr];
 2914              		.loc 9 60 16 view .LVU830
 2915 00c4 48BF     		it	mi
 2916 00c6 01F51671 		addmi	r1, r1, #600
 2917              	.LVL173:
  61:uber_fdn.h    ****     float out = -in + buf_out;
 2918              		.loc 9 61 5 is_stmt 1 view .LVU831
  66:uber_fdn.h    ****     return out;
 2919              		.loc 9 66 18 is_stmt 0 view .LVU832
 2920 00ca B0F5167F 		cmp	r0, #600
  63:uber_fdn.h    ****     write_ptr_++;
 2921              		.loc 9 63 25 view .LVU833
 2922 00ce 0BEB8303 		add	r3, fp, r3, lsl #2
 2923              	.LBE1071:
 2924              	.LBE1074:
 2925              		.loc 9 189 25 discriminator 1 view .LVU834
 2926 00d2 05F66815 		addw	r5, r5, #2408
 2927              	.LBB1075:
 2928              	.LBB1072:
  61:uber_fdn.h    ****     float out = -in + buf_out;
 2929              		.loc 9 61 11 view .LVU835
 2930 00d6 0A44     		add	r2, r2, r1
  66:uber_fdn.h    ****     return out;
 2931              		.loc 9 66 18 view .LVU836
 2932 00d8 A8BF     		it	ge
 2933 00da 0020     		movge	r0, #0
 2934              	.LBE1072:
 2935              	.LBE1075:
ARM GAS  /var/folders/v1/156fk8j97zv9pzndh61fy7zm0000gn/T//ccyHp6tG.s 			page 91


 2936              		.loc 9 189 25 discriminator 1 view .LVU837
 2937 00dc 042F     		cmp	r7, #4
 2938              	.LBB1076:
 2939              	.LBB1073:
  61:uber_fdn.h    ****     float out = -in + buf_out;
 2940              		.loc 9 61 11 view .LVU838
 2941 00de 0BEB8202 		add	r2, fp, r2, lsl #2
 2942 00e2 D2ED199A 		vldr.32	s19, [r2, #100]
 2943              	.LVL174:
  62:uber_fdn.h    ****     buffer_[write_ptr_] = in + (0.5f * buf_out);
 2944              		.loc 9 62 5 is_stmt 1 view .LVU839
  63:uber_fdn.h    ****     write_ptr_++;
 2945              		.loc 9 63 30 is_stmt 0 view .LVU840
 2946 00e6 A9EEA67A 		vfma.f32	s14, s19, s13
  62:uber_fdn.h    ****     buffer_[write_ptr_] = in + (0.5f * buf_out);
 2947              		.loc 9 62 11 view .LVU841
 2948 00ea 79EEE79A 		vsub.f32	s19, s19, s15
 2949              	.LVL175:
  63:uber_fdn.h    ****     write_ptr_++;
 2950              		.loc 9 63 5 is_stmt 1 view .LVU842
  62:uber_fdn.h    ****     buffer_[write_ptr_] = in + (0.5f * buf_out);
 2951              		.loc 9 62 11 is_stmt 0 view .LVU843
 2952 00ee F0EE697A 		vmov.f32	s15, s19
 2953              	.LVL176:
  63:uber_fdn.h    ****     write_ptr_++;
 2954              		.loc 9 63 25 view .LVU844
 2955 00f2 83ED197A 		vstr.32	s14, [r3, #100]
 2956              	.LVL177:
  64:uber_fdn.h    ****     if (write_ptr_ >= 600)
 2957              		.loc 9 64 5 is_stmt 1 view .LVU845
  65:uber_fdn.h    ****       write_ptr_ = 0;
 2958              		.loc 9 65 5 view .LVU846
 2959 00f6 E865     		str	r0, [r5, #92]
  67:uber_fdn.h    ****   }
 2960              		.loc 9 67 5 view .LVU847
 2961              	.LVL178:
  67:uber_fdn.h    ****   }
 2962              		.loc 9 67 5 is_stmt 0 view .LVU848
 2963              	.LBE1073:
 2964              	.LBE1076:
 2965              		.loc 9 189 7 is_stmt 1 discriminator 3 view .LVU849
 2966              		.loc 9 189 25 discriminator 1 view .LVU850
 2967 00f8 D3D1     		bne	.L116
 2968 00fa 10A8     		add	r0, sp, #64
 2969 00fc 0094     		str	r4, [sp]
 2970 00fe 5C46     		mov	r4, fp
 2971 0100 0746     		mov	r7, r0
 2972              	.LVL179:
 2973              		.loc 9 189 25 is_stmt 0 discriminator 1 view .LVU851
 2974 0102 8146     		mov	r9, r0
 2975 0104 DDE90A65 		ldrd	r6, r5, [sp, #40]
 2976              	.L126:
 2977              	.LVL180:
 2978              		.loc 9 189 25 discriminator 1 view .LVU852
 2979              	.LBE1077:
 2980              	.LBB1078:
 2981              	.LBB1079:
ARM GAS  /var/folders/v1/156fk8j97zv9pzndh61fy7zm0000gn/T//ccyHp6tG.s 			page 92


 190:uber_fdn.h    ****         diffused = diffusers_[k].Process(diffused);
 191:uber_fdn.h    **** 
 192:uber_fdn.h    ****       // Read
 193:uber_fdn.h    ****       float delay_outs[N_LINES];
 194:uber_fdn.h    ****       for (int k = 0; k < N_LINES; k++) {
 195:uber_fdn.h    ****         // Mod
 196:uber_fdn.h    ****         float mod_val = 0.0f;
 197:uber_fdn.h    ****         if (mode_ == MODE_MASSIVE) {
 2982              		.loc 9 197 9 view .LVU853
 2983 0108 98F8583E 		ldrb	r3, [r8, #3672]	@ zero_extendqisi2
 2984 010c 022B     		cmp	r3, #2
 2985 010e 00F0F581 		beq	.L193
 198:uber_fdn.h    ****           mod_val = wander1_[k].Process() + wander2_[k].Process();
 199:uber_fdn.h    ****         } else {
 200:uber_fdn.h    ****           mod_val = lfo_[k].Process();
 2986              		.loc 9 200 36 view .LVU854
 2987 0112 A5F5B070 		sub	r0, r5, #352
 2988 0116 FFF7FEFF 		bl	_ZN7daisysp10Oscillator7ProcessEv
 2989              	.LVL181:
 2990 011a B0EE408A 		vmov.f32	s16, s0
 2991              	.LVL182:
 2992              	.L118:
 201:uber_fdn.h    ****         }
 202:uber_fdn.h    **** 
 203:uber_fdn.h    ****         // Delay Time
 204:uber_fdn.h    ****         float ratio = base_ratios_[k];
 205:uber_fdn.h    ****         float s = powf(ratio, 0.5f + skew);
 2993              		.loc 9 205 23 view .LVU855
 2994 011e F6EE000A 		vmov.f32	s1, #5.0e-1
 2995 0122 B6EC010A 		vldmia.32	r6!, {s0}
 2996              	.LVL183:
 2997              		.loc 9 205 23 view .LVU856
 2998 0126 79EE200A 		vadd.f32	s1, s18, s1
 2999 012a FFF7FEFF 		bl	powf
 3000              	.LVL184:
 206:uber_fdn.h    ****         float base_t = s * size_param * sample_rate_ * 0.15f;
 3001              		.loc 9 206 26 view .LVU857
 3002 012e 60EE287A 		vmul.f32	s15, s0, s17
 3003              		.loc 9 206 39 view .LVU858
 3004 0132 9BED006A 		vldr.32	s12, [fp]
 3005              		.loc 9 206 15 view .LVU859
 3006 0136 DFED416A 		vldr.32	s13, .L200+16
 3007              		.loc 9 206 39 view .LVU860
 3008 013a 67EE867A 		vmul.f32	s15, s15, s12
 207:uber_fdn.h    ****         if (base_t > 230000)
 208:uber_fdn.h    ****           base_t = 230000;
 209:uber_fdn.h    **** 
 210:uber_fdn.h    ****         float final_t = base_t + (mod_val * depth);
 3009              		.loc 9 210 15 view .LVU861
 3010 013e 9FED407A 		vldr.32	s14, .L200+20
 3011              	.LBB1080:
 3012              	.LBB1081:
  26:uber_fdn.h    ****       read_pos -= (float)max_len_;
 3013              		.loc 9 26 31 view .LVU862
 3014 0142 A068     		ldr	r0, [r4, #8]
 3015              	.LBE1081:
 3016              	.LBE1080:
ARM GAS  /var/folders/v1/156fk8j97zv9pzndh61fy7zm0000gn/T//ccyHp6tG.s 			page 93


 206:uber_fdn.h    ****         float base_t = s * size_param * sample_rate_ * 0.15f;
 3017              		.loc 9 206 15 view .LVU863
 3018 0144 67EEA67A 		vmul.f32	s15, s15, s13
 3019              	.LVL185:
 3020              		.loc 9 210 15 view .LVU864
 3021 0148 F4EEC77A 		vcmpe.f32	s15, s14
 3022 014c F1EE10FA 		vmrs	APSR_nzcv, FPSCR
 3023 0150 37FE277A 		vselgt.f32	s14, s14, s15
 3024 0154 A8EE0A7A 		vfma.f32	s14, s16, s20
 3025              	.LVL186:
 3026              	.LBB1085:
 3027              	.LBI1080:
  21:uber_fdn.h    ****     // Linear Interpolation
 3028              		.loc 9 21 9 is_stmt 1 view .LVU865
 3029              	.LBB1082:
  23:uber_fdn.h    ****     while (read_pos < 0.0f)
 3030              		.loc 9 23 5 view .LVU866
  23:uber_fdn.h    ****     while (read_pos < 0.0f)
 3031              		.loc 9 23 22 is_stmt 0 view .LVU867
 3032 0158 D4ED037A 		vldr.32	s15, [r4, #12]	@ int
 3033              	.LVL187:
  23:uber_fdn.h    ****     while (read_pos < 0.0f)
 3034              		.loc 9 23 22 view .LVU868
 3035 015c F8EEE77A 		vcvt.f32.s32	s15, s15
  23:uber_fdn.h    ****     while (read_pos < 0.0f)
 3036              		.loc 9 23 11 view .LVU869
 3037 0160 77EEC77A 		vsub.f32	s15, s15, s14
 3038              	.LVL188:
  24:uber_fdn.h    ****       read_pos += (float)max_len_;
 3039              		.loc 9 24 5 is_stmt 1 view .LVU870
  24:uber_fdn.h    ****       read_pos += (float)max_len_;
 3040              		.loc 9 24 21 view .LVU871
  25:uber_fdn.h    ****     while (read_pos >= (float)max_len_)
 3041              		.loc 9 25 19 is_stmt 0 view .LVU872
 3042 0164 07EE100A 		vmov	s14, r0	@ int
 3043              	.LVL189:
  25:uber_fdn.h    ****     while (read_pos >= (float)max_len_)
 3044              		.loc 9 25 19 view .LVU873
 3045 0168 B8EEC77A 		vcvt.f32.s32	s14, s14
  24:uber_fdn.h    ****       read_pos += (float)max_len_;
 3046              		.loc 9 24 21 view .LVU874
 3047 016c F5EEC07A 		vcmpe.f32	s15, #0
 3048 0170 F1EE10FA 		vmrs	APSR_nzcv, FPSCR
 3049              	.LVL190:
  24:uber_fdn.h    ****       read_pos += (float)max_len_;
 3050              		.loc 9 24 21 view .LVU875
 3051 0174 0DD5     		bpl	.L190
 3052              	.L121:
  25:uber_fdn.h    ****     while (read_pos >= (float)max_len_)
 3053              		.loc 9 25 7 is_stmt 1 view .LVU876
  25:uber_fdn.h    ****     while (read_pos >= (float)max_len_)
 3054              		.loc 9 25 16 is_stmt 0 view .LVU877
 3055 0176 77EE877A 		vadd.f32	s15, s15, s14
 3056              	.LVL191:
  24:uber_fdn.h    ****       read_pos += (float)max_len_;
 3057              		.loc 9 24 21 is_stmt 1 view .LVU878
 3058 017a F5EEC07A 		vcmpe.f32	s15, #0
ARM GAS  /var/folders/v1/156fk8j97zv9pzndh61fy7zm0000gn/T//ccyHp6tG.s 			page 94


 3059 017e F1EE10FA 		vmrs	APSR_nzcv, FPSCR
 3060 0182 F8D4     		bmi	.L121
  26:uber_fdn.h    ****       read_pos -= (float)max_len_;
 3061              		.loc 9 26 21 view .LVU879
 3062 0184 F4EEC77A 		vcmpe.f32	s15, s14
 3063 0188 F1EE10FA 		vmrs	APSR_nzcv, FPSCR
 3064 018c 06DB     		blt	.L194
 3065              	.L124:
  27:uber_fdn.h    **** 
 3066              		.loc 9 27 7 view .LVU880
  27:uber_fdn.h    **** 
 3067              		.loc 9 27 16 is_stmt 0 view .LVU881
 3068 018e 77EEC77A 		vsub.f32	s15, s15, s14
 3069              	.LVL192:
 3070              	.L190:
  26:uber_fdn.h    ****       read_pos -= (float)max_len_;
 3071              		.loc 9 26 21 is_stmt 1 view .LVU882
 3072 0192 F4EEC77A 		vcmpe.f32	s15, s14
 3073 0196 F1EE10FA 		vmrs	APSR_nzcv, FPSCR
 3074 019a F8DA     		bge	.L124
 3075              	.L194:
  29:uber_fdn.h    ****     float frac = read_pos - idx;
 3076              		.loc 9 29 5 view .LVU883
  29:uber_fdn.h    ****     float frac = read_pos - idx;
 3077              		.loc 9 29 9 is_stmt 0 view .LVU884
 3078 019c BDEEE77A 		vcvt.s32.f32	s14, s15
 3079              	.LBE1082:
 3080              	.LBE1085:
 3081              	.LBE1079:
 194:uber_fdn.h    ****         // Mod
 3082              		.loc 9 194 25 discriminator 1 view .LVU885
 3083 01a0 2C35     		adds	r5, r5, #44
 3084 01a2 0C34     		adds	r4, r4, #12
 3085              	.LBB1088:
 3086              	.LBB1086:
 3087              	.LBB1083:
  29:uber_fdn.h    ****     float frac = read_pos - idx;
 3088              		.loc 9 29 9 view .LVU886
 3089 01a4 17EE103A 		vmov	r3, s14	@ int
 3090              	.LVL193:
  30:uber_fdn.h    ****     int idx2 = idx + 1;
 3091              		.loc 9 30 5 is_stmt 1 view .LVU887
  30:uber_fdn.h    ****     int idx2 = idx + 1;
 3092              		.loc 9 30 27 is_stmt 0 view .LVU888
 3093 01a8 B8EEC77A 		vcvt.f32.s32	s14, s14
  31:uber_fdn.h    ****     if (idx2 >= max_len_)
 3094              		.loc 9 31 9 view .LVU889
 3095 01ac 591C     		adds	r1, r3, #1
  30:uber_fdn.h    ****     int idx2 = idx + 1;
 3096              		.loc 9 30 11 view .LVU890
 3097 01ae 77EEC77A 		vsub.f32	s15, s15, s14
 3098              	.LVL194:
  31:uber_fdn.h    ****     if (idx2 >= max_len_)
 3099              		.loc 9 31 5 is_stmt 1 view .LVU891
  32:uber_fdn.h    ****       idx2 = 0;
 3100              		.loc 9 32 5 view .LVU892
  35:uber_fdn.h    ****   }
ARM GAS  /var/folders/v1/156fk8j97zv9pzndh61fy7zm0000gn/T//ccyHp6tG.s 			page 95


 3101              		.loc 9 35 5 view .LVU893
  32:uber_fdn.h    ****       idx2 = 0;
 3102              		.loc 9 32 5 is_stmt 0 view .LVU894
 3103 01b2 8142     		cmp	r1, r0
  35:uber_fdn.h    ****   }
 3104              		.loc 9 35 47 view .LVU895
 3105 01b4 B4BF     		ite	lt
 3106 01b6 8800     		lsllt	r0, r1, #2
 3107 01b8 0020     		movge	r0, #0
  35:uber_fdn.h    ****   }
 3108              		.loc 9 35 12 view .LVU896
 3109 01ba 54F8081C 		ldr	r1, [r4, #-8]
 3110              	.LBE1083:
 3111              	.LBE1086:
 3112              	.LBE1088:
 194:uber_fdn.h    ****         // Mod
 3113              		.loc 9 194 25 discriminator 1 view .LVU897
 3114 01be B245     		cmp	r10, r6
 3115              	.LBB1089:
 3116              	.LBB1087:
 3117              	.LBB1084:
  35:uber_fdn.h    ****   }
 3118              		.loc 9 35 23 view .LVU898
 3119 01c0 01EB8303 		add	r3, r1, r3, lsl #2
 3120              	.LVL195:
  35:uber_fdn.h    ****   }
 3121              		.loc 9 35 47 view .LVU899
 3122 01c4 0144     		add	r1, r1, r0
  35:uber_fdn.h    ****   }
 3123              		.loc 9 35 23 view .LVU900
 3124 01c6 93ED007A 		vldr.32	s14, [r3]
  35:uber_fdn.h    ****   }
 3125              		.loc 9 35 49 view .LVU901
 3126 01ca D1ED006A 		vldr.32	s13, [r1]
 3127              	.LVL196:
  35:uber_fdn.h    ****   }
 3128              		.loc 9 35 49 view .LVU902
 3129 01ce 76EEC76A 		vsub.f32	s13, s13, s14
  35:uber_fdn.h    ****   }
 3130              		.loc 9 35 63 view .LVU903
 3131 01d2 A7EEA67A 		vfma.f32	s14, s15, s13
 3132              	.LVL197:
  35:uber_fdn.h    ****   }
 3133              		.loc 9 35 63 view .LVU904
 3134              	.LBE1084:
 3135              	.LBE1087:
 211:uber_fdn.h    ****         delay_outs[k] = delays_[k].Read(final_t);
 3136              		.loc 9 211 23 discriminator 1 view .LVU905
 3137 01d6 A7EC017A 		vstmia.32	r7!, {s14}
 3138              	.LBE1089:
 194:uber_fdn.h    ****         // Mod
 3139              		.loc 9 194 7 is_stmt 1 discriminator 2 view .LVU906
 194:uber_fdn.h    ****         // Mod
 3140              		.loc 9 194 25 discriminator 1 view .LVU907
 3141 01da 95D1     		bne	.L126
 3142              	.LBE1078:
 212:uber_fdn.h    ****       }
ARM GAS  /var/folders/v1/156fk8j97zv9pzndh61fy7zm0000gn/T//ccyHp6tG.s 			page 96


 213:uber_fdn.h    **** 
 214:uber_fdn.h    ****       // Mix
 215:uber_fdn.h    ****       float sum = 0.0f;
 3143              		.loc 9 215 13 is_stmt 0 view .LVU908
 3144 01dc 009C     		ldr	r4, [sp]
 3145 01de 4846     		mov	r0, r9
 3146 01e0 DFED127A 		vldr.32	s15, .L200
 3147 01e4 10AB     		add	r3, sp, #64
 3148 01e6 18AD     		add	r5, sp, #96
 3149              	.L127:
 3150              	.LVL198:
 3151              	.LBB1091:
 216:uber_fdn.h    ****       for (int k = 0; k < N_LINES; k++)
 217:uber_fdn.h    ****         sum += delay_outs[k];
 3152              		.loc 9 217 26 view .LVU909
 3153 01e8 B3EC017A 		vldmia.32	r3!, {s14}
 216:uber_fdn.h    ****       for (int k = 0; k < N_LINES; k++)
 3154              		.loc 9 216 25 discriminator 1 view .LVU910
 3155 01ec 9D42     		cmp	r5, r3
 3156              		.loc 9 217 13 view .LVU911
 3157 01ee 77EE877A 		vadd.f32	s15, s15, s14
 3158              	.LVL199:
 216:uber_fdn.h    ****       for (int k = 0; k < N_LINES; k++)
 3159              		.loc 9 216 7 is_stmt 1 discriminator 3 view .LVU912
 216:uber_fdn.h    ****       for (int k = 0; k < N_LINES; k++)
 3160              		.loc 9 216 25 discriminator 1 view .LVU913
 3161 01f2 F9D1     		bne	.L127
 3162              	.LBE1091:
 218:uber_fdn.h    ****       sum *= 0.25f;
 3163              		.loc 9 218 11 is_stmt 0 view .LVU914
 3164 01f4 B5EE007A 		vmov.f32	s14, #2.5e-1
 3165 01f8 18AA     		add	r2, sp, #96
 3166 01fa 1346     		mov	r3, r2
 3167 01fc 27EE877A 		vmul.f32	s14, s15, s14
 3168              	.LVL200:
 3169              	.LBB1092:
 219:uber_fdn.h    **** 
 220:uber_fdn.h    ****       float matrix_out[N_LINES];
 221:uber_fdn.h    ****       for (int k = 0; k < N_LINES; k++)
 3170              		.loc 9 221 25 is_stmt 1 discriminator 1 view .LVU915
 3171              	.L128:
 222:uber_fdn.h    ****         matrix_out[k] = delay_outs[k] - sum;
 3172              		.loc 9 222 35 is_stmt 0 view .LVU916
 3173 0200 F0EC017A 		vldmia.32	r0!, {s15}
 3174              		.loc 9 222 39 view .LVU917
 3175 0204 77EEC77A 		vsub.f32	s15, s15, s14
 221:uber_fdn.h    ****         matrix_out[k] = delay_outs[k] - sum;
 3176              		.loc 9 221 25 discriminator 1 view .LVU918
 3177 0208 8542     		cmp	r5, r0
 3178              		.loc 9 222 23 view .LVU919
 3179 020a E3EC017A 		vstmia.32	r3!, {s15}
 221:uber_fdn.h    ****         matrix_out[k] = delay_outs[k] - sum;
 3180              		.loc 9 221 7 is_stmt 1 discriminator 3 view .LVU920
 221:uber_fdn.h    ****         matrix_out[k] = delay_outs[k] - sum;
 3181              		.loc 9 221 25 discriminator 1 view .LVU921
 3182 020e F7D1     		bne	.L128
 3183 0210 349B     		ldr	r3, [sp, #208]
ARM GAS  /var/folders/v1/156fk8j97zv9pzndh61fy7zm0000gn/T//ccyHp6tG.s 			page 97


 3184              	.LBE1092:
 3185              	.LBB1093:
 223:uber_fdn.h    **** 
 224:uber_fdn.h    ****       // Feedback
 225:uber_fdn.h    ****       for (int k = 0; k < N_LINES; k++) {
 3186              		.loc 9 225 16 is_stmt 0 view .LVU922
 3187 0212 4FF00009 		mov	r9, #0
 3188 0216 CDF808B0 		str	fp, [sp, #8]
 3189 021a 9346     		mov	fp, r2
 3190 021c CDF820A0 		str	r10, [sp, #32]
 3191 0220 9A46     		mov	r10, r3
 3192 0222 099E     		ldr	r6, [sp, #36]
 3193 0224 DDE90C57 		ldrd	r5, r7, [sp, #48]
 3194 0228 74E0     		b	.L138
 3195              	.L201:
 3196 022a 00BF     		.align	2
 3197              	.L200:
 3198 022c 00000000 		.word	0
 3199 0230 5C2E0400 		.word	274012
 3200 0234 9428F4FF 		.word	-776044
 3201 0238 7C2E0400 		.word	274044
 3202 023c 9A99193E 		.word	1041865114
 3203 0240 009C6048 		.word	1214290944
 3204 0244 0000FA45 		.word	1174011904
 3205 0248 0000FA44 		.word	1157234688
 3206 024c DB0FC9C0 		.word	-1060565029
 3207 0250 00803B47 		.word	1195081728
 3208 0254 A4707D3F 		.word	1065185444
 3209 0258 48E17A3F 		.word	1065017672
 3210 025c 0000A042 		.word	1117782016
 3211 0260 3333333F 		.word	1060320051
 3212 0264 CDCCCC3D 		.word	1036831949
 3213 0268 CDCC4C3F 		.word	1061997773
 3214              	.LVL201:
 3215              	.L196:
 3216              	.LBB1094:
 3217              	.LBB1095:
 226:uber_fdn.h    ****         float fb = gains[k] * master_decay_;
 227:uber_fdn.h    ****         if (fb > 0.99f)
 228:uber_fdn.h    ****           fb = 0.99f;
 229:uber_fdn.h    ****         if (mode_ == MODE_MASSIVE && master_decay_ > 0.98f)
 230:uber_fdn.h    ****           fb = 1.0f;
 231:uber_fdn.h    **** 
 232:uber_fdn.h    ****         float next = matrix_out[k] * fb;
 233:uber_fdn.h    ****         if (mode_ != MODE_MASSIVE || master_decay_ <= 0.98f)
 234:uber_fdn.h    ****           next += diffused * 0.25f;
 235:uber_fdn.h    **** 
 236:uber_fdn.h    ****         // Tone Shaping
 237:uber_fdn.h    ****         if (mode_ == MODE_MASSIVE) {
 238:uber_fdn.h    ****           float freq = 80.0f * powf(2.0f, k); // Octaves
 239:uber_fdn.h    ****           resonators_[k].SetFreq(freq);
 240:uber_fdn.h    ****           resonators_[k].SetRes(0.1f + (gains[k] * 0.7f));
 241:uber_fdn.h    ****           resonators_[k].Process(next);
 242:uber_fdn.h    ****           next = (resonators_[k].Low() * 0.5f) + (resonators_[k].Band() * 0.8f);
 243:uber_fdn.h    ****         } else {
 244:uber_fdn.h    ****           // Studio/Shimmer uses LPF
 245:uber_fdn.h    ****           float co = 2000.0f + (gains[k] * 8000.0f);
ARM GAS  /var/folders/v1/156fk8j97zv9pzndh61fy7zm0000gn/T//ccyHp6tG.s 			page 98


 3218              		.loc 9 245 17 view .LVU923
 3219 026c 5FED0B5A 		vldr.32	s11, .L200+24
 3220              	.LBE1095:
 234:uber_fdn.h    **** 
 3221              		.loc 9 234 28 view .LVU924
 3222 0270 B5EE00BA 		vmov.f32	s22, #2.5e-1
 3223              	.LBB1120:
 3224              		.loc 9 245 17 view .LVU925
 3225 0274 1FED0C7A 		vldr.32	s14, .L200+28
 3226              	.LBB1096:
 3227              	.LBB1097:
  83:uber_fdn.h    ****     b1_ = b1;
 3228              		.loc 9 83 40 view .LVU926
 3229 0278 1FED0C6A 		vldr.32	s12, .L200+32
 3230              	.LBE1097:
 3231              	.LBE1096:
 3232              		.loc 9 245 17 view .LVU927
 3233 027c A6EEA57A 		vfma.f32	s14, s13, s11
 3234              	.LVL202:
 3235              	.LBB1105:
 3236              	.LBI1096:
  82:uber_fdn.h    ****     float b1 = expf(-2.0f * 3.1415927f * freq / 48000.0f);
 3237              		.loc 9 82 8 is_stmt 1 view .LVU928
 3238              	.LBB1098:
  83:uber_fdn.h    ****     b1_ = b1;
 3239              		.loc 9 83 5 view .LVU929
  83:uber_fdn.h    ****     b1_ = b1;
 3240              		.loc 9 83 20 is_stmt 0 view .LVU930
 3241 0280 1FED0D0A 		vldr.32	s0, .L200+36
 3242              	.LBE1098:
 3243              	.LBE1105:
 3244              	.LBE1120:
 234:uber_fdn.h    **** 
 3245              		.loc 9 234 28 view .LVU931
 3246 0284 29EE8BBA 		vmul.f32	s22, s19, s22
 234:uber_fdn.h    **** 
 3247              		.loc 9 234 16 view .LVU932
 3248 0288 A7EE88BA 		vfma.f32	s22, s15, s16
 3249              	.LBB1121:
 3250              	.LBB1106:
 3251              	.LBB1099:
  83:uber_fdn.h    ****     b1_ = b1;
 3252              		.loc 9 83 40 view .LVU933
 3253 028c 27EE067A 		vmul.f32	s14, s14, s12
 3254              	.LVL203:
  83:uber_fdn.h    ****     b1_ = b1;
 3255              		.loc 9 83 20 view .LVU934
 3256 0290 87EE000A 		vdiv.f32	s0, s14, s0
 3257 0294 FFF7FEFF 		bl	expf
 3258              	.LVL204:
  83:uber_fdn.h    ****     b1_ = b1;
 3259              		.loc 9 83 20 view .LVU935
 3260              	.LBE1099:
 3261              	.LBE1106:
 3262              	.LBB1107:
 3263              	.LBB1108:
  88:uber_fdn.h    ****     return out_;
ARM GAS  /var/folders/v1/156fk8j97zv9pzndh61fy7zm0000gn/T//ccyHp6tG.s 			page 99


 3264              		.loc 9 88 31 view .LVU936
 3265 0298 95ED028A 		vldr.32	s16, [r5, #8]
 3266              	.LVL205:
  88:uber_fdn.h    ****     return out_;
 3267              		.loc 9 88 31 view .LVU937
 3268              	.LBE1108:
 3269              	.LBE1107:
 3270              	.LBB1112:
 3271              	.LBB1100:
  84:uber_fdn.h    ****     a0_ = 1.0f - b1;
 3272              		.loc 9 84 5 is_stmt 1 view .LVU938
 3273              	.LBE1100:
 3274              	.LBE1112:
 3275              	.LBE1121:
 3276              	.LBB1122:
 246:uber_fdn.h    ****           damp_lpf_[k].SetFreq(co);
 247:uber_fdn.h    ****           next = damp_lpf_[k].Process(next);
 248:uber_fdn.h    ****         }
 249:uber_fdn.h    **** 
 250:uber_fdn.h    ****         // Shimmer Logic
 251:uber_fdn.h    ****         if (mode_ == MODE_SHIMMER) {
 3277              		.loc 9 251 9 is_stmt 0 view .LVU939
 3278 029c 0099     		ldr	r1, [sp]
 3279              	.LBE1122:
 3280              	.LBB1125:
 3281              	.LBB1113:
 3282              	.LBB1101:
  84:uber_fdn.h    ****     a0_ = 1.0f - b1;
 3283              		.loc 9 84 9 view .LVU940
 3284 029e 85ED010A 		vstr.32	s0, [r5, #4]
  85:uber_fdn.h    ****   }
 3285              		.loc 9 85 5 is_stmt 1 view .LVU941
 3286              	.LBE1101:
 3287              	.LBE1113:
 3288              	.LBE1125:
 3289              	.LBB1126:
 3290              		.loc 9 251 9 is_stmt 0 view .LVU942
 3291 02a2 0129     		cmp	r1, #1
 3292              	.LBE1126:
 3293              	.LBB1127:
 3294              	.LBB1114:
 3295              	.LBB1102:
  85:uber_fdn.h    ****   }
 3296              		.loc 9 85 16 view .LVU943
 3297 02a4 F7EE007A 		vmov.f32	s15, #1.0e+0
 3298              	.LBE1102:
 3299              	.LBE1114:
 3300              	.LBB1115:
 3301              	.LBB1109:
  88:uber_fdn.h    ****     return out_;
 3302              		.loc 9 88 31 view .LVU944
 3303 02a8 20EE088A 		vmul.f32	s16, s0, s16
 3304              	.LBE1109:
 3305              	.LBE1115:
 3306              	.LBB1116:
 3307              	.LBB1103:
  85:uber_fdn.h    ****   }
ARM GAS  /var/folders/v1/156fk8j97zv9pzndh61fy7zm0000gn/T//ccyHp6tG.s 			page 100


 3308              		.loc 9 85 16 view .LVU945
 3309 02ac 77EEC07A 		vsub.f32	s15, s15, s0
 3310              	.LBE1103:
 3311              	.LBE1116:
 3312              	.LBB1117:
 3313              	.LBB1110:
  88:uber_fdn.h    ****     return out_;
 3314              		.loc 9 88 23 view .LVU946
 3315 02b0 A7EE8B8A 		vfma.f32	s16, s15, s22
 3316              	.LBE1110:
 3317              	.LBE1117:
 3318              	.LBB1118:
 3319              	.LBB1104:
  85:uber_fdn.h    ****   }
 3320              		.loc 9 85 9 view .LVU947
 3321 02b4 C5ED007A 		vstr.32	s15, [r5]
 3322              	.LVL206:
  85:uber_fdn.h    ****   }
 3323              		.loc 9 85 9 view .LVU948
 3324              	.LBE1104:
 3325              	.LBE1118:
 3326              	.LBB1119:
 3327              	.LBI1107:
  87:uber_fdn.h    ****     out_ = (in * a0_) + (out_ * b1_);
 3328              		.loc 9 87 9 is_stmt 1 view .LVU949
 3329              	.LBB1111:
  88:uber_fdn.h    ****     return out_;
 3330              		.loc 9 88 5 view .LVU950
  88:uber_fdn.h    ****     return out_;
 3331              		.loc 9 88 10 is_stmt 0 view .LVU951
 3332 02b8 85ED028A 		vstr.32	s16, [r5, #8]
  89:uber_fdn.h    ****   }
 3333              		.loc 9 89 5 is_stmt 1 view .LVU952
 3334              	.LVL207:
  89:uber_fdn.h    ****   }
 3335              		.loc 9 89 5 is_stmt 0 view .LVU953
 3336              	.LBE1111:
 3337              	.LBE1119:
 247:uber_fdn.h    ****         }
 3338              		.loc 9 247 16 discriminator 1 view .LVU954
 3339 02bc 8DED0F8A 		vstr.32	s16, [sp, #60]
 3340              	.LBE1127:
 3341              	.LBB1128:
 3342              		.loc 9 251 9 view .LVU955
 3343 02c0 00F00A81 		beq	.L130
 3344              	.LVL208:
 3345              	.L131:
 3346              		.loc 9 251 9 view .LVU956
 3347              	.LBE1128:
 3348              	.LBB1129:
 3349              	.LBI1129:
 252:uber_fdn.h    ****           if (k == 6 || k == 7) {
 253:uber_fdn.h    ****             float s = shimmers_[k - 6].Process(next);
 254:uber_fdn.h    ****             // Mix 50/50
 255:uber_fdn.h    ****             next = (next * 0.5f) + (s * 0.5f);
 256:uber_fdn.h    ****           }
 257:uber_fdn.h    ****         } else if (mode_ == MODE_MASSIVE && shift_mix > 0.0f) {
ARM GAS  /var/folders/v1/156fk8j97zv9pzndh61fy7zm0000gn/T//ccyHp6tG.s 			page 101


 258:uber_fdn.h    ****           if (k == 3)
 259:uber_fdn.h    ****             next = (next * (1.0f - shift_mix)) +
 260:uber_fdn.h    ****                    (shimmers_[0].Process(next) * shift_mix);
 261:uber_fdn.h    ****           if (k == 7)
 262:uber_fdn.h    ****             next = (next * (1.0f - shift_mix)) +
 263:uber_fdn.h    ****                    (shimmers_[1].Process(next) * shift_mix);
 264:uber_fdn.h    ****         }
 265:uber_fdn.h    **** 
 266:uber_fdn.h    ****         next = SoftLimit(next);
 267:uber_fdn.h    ****         delays_[k].Write(next);
 268:uber_fdn.h    ****       }
 269:uber_fdn.h    **** 
 270:uber_fdn.h    ****       // Output
 271:uber_fdn.h    ****       float l = delay_outs[0] - delay_outs[2] + delay_outs[4] - delay_outs[6];
 272:uber_fdn.h    ****       float r = delay_outs[1] - delay_outs[3] + delay_outs[5] - delay_outs[7];
 273:uber_fdn.h    ****       out_l[i] = l * 0.25f;
 274:uber_fdn.h    ****       out_r[i] = r * 0.25f;
 275:uber_fdn.h    ****     }
 276:uber_fdn.h    ****   }
 277:uber_fdn.h    **** 
 278:uber_fdn.h    ****   void SetDecay(float d) { master_decay_ = d; }
 279:uber_fdn.h    **** 
 280:uber_fdn.h    **** private:
 281:uber_fdn.h    ****   float sample_rate_;
 282:uber_fdn.h    ****   OmniDelay delays_[N_LINES];
 283:uber_fdn.h    ****   OmniAllpass diffusers_[4];
 284:uber_fdn.h    **** 
 285:uber_fdn.h    ****   // Shared LFOs? No, keep separate for character
 286:uber_fdn.h    ****   Oscillator lfo_[N_LINES];
 287:uber_fdn.h    ****   Oscillator wander1_[N_LINES];
 288:uber_fdn.h    ****   Oscillator wander2_[N_LINES];
 289:uber_fdn.h    **** 
 290:uber_fdn.h    ****   OmniOnePole damp_lpf_[N_LINES];
 291:uber_fdn.h    ****   Svf resonators_[N_LINES];
 292:uber_fdn.h    **** 
 293:uber_fdn.h    ****   PitchShifter shimmers_[2];
 294:uber_fdn.h    **** 
 295:uber_fdn.h    ****   float master_decay_;
 296:uber_fdn.h    ****   FdnMode mode_;
 297:uber_fdn.h    **** 
 298:uber_fdn.h    ****   const float base_ratios_[8] = {1.000f, 1.137f, 1.289f, 1.458f,
 299:uber_fdn.h    ****                                  1.632f, 1.815f, 2.053f, 2.311f};
 300:uber_fdn.h    **** 
 301:uber_fdn.h    ****   float SoftLimit(float x) {
 3350              		.loc 9 301 9 is_stmt 1 view .LVU957
 3351              	.LBB1130:
 302:uber_fdn.h    ****     return x * (27.0f + x * x) / (27.0f + 9.0f * x * x);
 3352              		.loc 9 302 23 is_stmt 0 view .LVU958
 3353 02c4 F3EE0B7A 		vmov.f32	s15, #2.7e+1
 3354              	.LBE1130:
 3355              	.LBE1129:
 3356              	.LBB1138:
 3357              	.LBB1139:
  16:uber_fdn.h    ****     write_ptr_++;
 3358              		.loc 9 16 13 view .LVU959
 3359 02c8 E168     		ldr	r1, [r4, #12]
 3360              	.LBE1139:
ARM GAS  /var/folders/v1/156fk8j97zv9pzndh61fy7zm0000gn/T//ccyHp6tG.s 			page 102


 3361              	.LBE1138:
 3362              	.LBB1145:
 3363              	.LBB1131:
 3364              		.loc 9 302 48 view .LVU960
 3365 02ca F2EE026A 		vmov.f32	s13, #9.0e+0
 3366              	.LBE1131:
 3367              	.LBE1145:
 3368              	.LBB1146:
 3369              	.LBB1140:
  16:uber_fdn.h    ****     write_ptr_++;
 3370              		.loc 9 16 25 view .LVU961
 3371 02ce 6068     		ldr	r0, [r4, #4]
 3372              	.LBE1140:
 3373              	.LBE1146:
 3374              	.LBE1094:
 225:uber_fdn.h    ****         float fb = gains[k] * master_decay_;
 3375              		.loc 9 225 25 discriminator 1 view .LVU962
 3376 02d0 019B     		ldr	r3, [sp, #4]
 3377 02d2 06F50036 		add	r6, r6, #131072
 3378              	.LBB1167:
 3379              	.LBB1147:
 3380              	.LBB1132:
 3381              		.loc 9 302 23 view .LVU963
 3382 02d6 B0EE677A 		vmov.f32	s14, s15
 3383              	.LBE1132:
 3384              	.LBE1147:
 3385              	.LBB1148:
 3386              	.LBB1141:
  16:uber_fdn.h    ****     write_ptr_++;
 3387              		.loc 9 16 25 view .LVU964
 3388 02da 00EB8100 		add	r0, r0, r1, lsl #2
 3389              	.LBE1141:
 3390              	.LBE1148:
 3391              	.LBB1149:
 3392              	.LBB1133:
 3393              		.loc 9 302 48 view .LVU965
 3394 02de 68EE266A 		vmul.f32	s13, s16, s13
 3395              	.LBE1133:
 3396              	.LBE1149:
 3397              	.LBB1150:
 3398              	.LBB1142:
  17:uber_fdn.h    ****     if (write_ptr_ >= max_len_)
 3399              		.loc 9 17 15 view .LVU966
 3400 02e2 0131     		adds	r1, r1, #1
 3401              	.LBE1142:
 3402              	.LBE1150:
 3403              	.LBE1167:
 225:uber_fdn.h    ****         float fb = gains[k] * master_decay_;
 3404              		.loc 9 225 7 discriminator 2 view .LVU967
 3405 02e4 09F10109 		add	r9, r9, #1
 3406              	.LVL209:
 225:uber_fdn.h    ****         float fb = gains[k] * master_decay_;
 3407              		.loc 9 225 25 discriminator 1 view .LVU968
 3408 02e8 4C37     		adds	r7, r7, #76
 3409              	.LBB1168:
 3410              	.LBB1151:
 3411              	.LBB1134:
ARM GAS  /var/folders/v1/156fk8j97zv9pzndh61fy7zm0000gn/T//ccyHp6tG.s 			page 103


 3412              		.loc 9 302 23 view .LVU969
 3413 02ea A8EE087A 		vfma.f32	s14, s16, s16
 3414              	.LBE1134:
 3415              	.LBE1151:
 3416              	.LBE1168:
 225:uber_fdn.h    ****         float fb = gains[k] * master_decay_;
 3417              		.loc 9 225 25 discriminator 1 view .LVU970
 3418 02ee 0C35     		adds	r5, r5, #12
 3419              	.LBB1169:
 3420              	.LBB1152:
 3421              	.LBB1135:
 3422              		.loc 9 302 41 view .LVU971
 3423 02f0 E6EE887A 		vfma.f32	s15, s13, s16
 3424              	.LVL210:
 3425              		.loc 9 302 41 view .LVU972
 3426              	.LBE1135:
 3427              	.LBE1152:
 3428              	.LBE1169:
 225:uber_fdn.h    ****         float fb = gains[k] * master_decay_;
 3429              		.loc 9 225 25 discriminator 1 view .LVU973
 3430 02f4 B836     		adds	r6, r6, #184
 3431              	.LBB1170:
 3432              	.LBB1153:
 3433              	.LBB1136:
 3434              		.loc 9 302 14 view .LVU974
 3435 02f6 27EE087A 		vmul.f32	s14, s14, s16
 3436              	.LVL211:
 3437              		.loc 9 302 14 view .LVU975
 3438              	.LBE1136:
 3439              	.LBE1153:
 3440              	.LBB1154:
 3441              	.LBI1138:
  15:uber_fdn.h    ****     buffer_[write_ptr_] = sample;
 3442              		.loc 9 15 8 is_stmt 1 view .LVU976
 3443              	.LBB1143:
  16:uber_fdn.h    ****     write_ptr_++;
 3444              		.loc 9 16 5 view .LVU977
 3445              	.LBE1143:
 3446              	.LBE1154:
 3447              	.LBB1155:
 3448              	.LBB1137:
 3449              		.loc 9 302 55 is_stmt 0 view .LVU978
 3450 02fa C7EE276A 		vdiv.f32	s13, s14, s15
 3451              	.LVL212:
 3452              		.loc 9 302 55 view .LVU979
 3453              	.LBE1137:
 3454              	.LBE1155:
 3455              	.LBB1156:
 3456              	.LBB1144:
  16:uber_fdn.h    ****     write_ptr_++;
 3457              		.loc 9 16 25 view .LVU980
 3458 02fe C0ED006A 		vstr.32	s13, [r0]
  17:uber_fdn.h    ****     if (write_ptr_ >= max_len_)
 3459              		.loc 9 17 5 is_stmt 1 view .LVU981
  18:uber_fdn.h    ****       write_ptr_ = 0;
 3460              		.loc 9 18 5 view .LVU982
 3461 0302 A068     		ldr	r0, [r4, #8]
ARM GAS  /var/folders/v1/156fk8j97zv9pzndh61fy7zm0000gn/T//ccyHp6tG.s 			page 104


  19:uber_fdn.h    ****   }
 3462              		.loc 9 19 18 is_stmt 0 view .LVU983
 3463 0304 8142     		cmp	r1, r0
 3464 0306 A8BF     		it	ge
 3465 0308 0021     		movge	r1, #0
 3466 030a 44F80C1F 		str	r1, [r4, #12]!
 3467              	.LVL213:
  19:uber_fdn.h    ****   }
 3468              		.loc 9 19 18 view .LVU984
 3469              	.LBE1144:
 3470              	.LBE1156:
 3471              	.LBE1170:
 225:uber_fdn.h    ****         float fb = gains[k] * master_decay_;
 3472              		.loc 9 225 7 is_stmt 1 discriminator 2 view .LVU985
 225:uber_fdn.h    ****         float fb = gains[k] * master_decay_;
 3473              		.loc 9 225 25 discriminator 1 view .LVU986
 3474 030e 9C42     		cmp	r4, r3
 3475 0310 00F00081 		beq	.L195
 3476              	.LVL214:
 3477              	.L138:
 3478              	.LBB1171:
 226:uber_fdn.h    ****         if (fb > 0.99f)
 3479              		.loc 9 226 31 is_stmt 0 view .LVU987
 3480 0314 08F65461 		addw	r1, r8, #3668
 226:uber_fdn.h    ****         if (fb > 0.99f)
 3481              		.loc 9 226 27 view .LVU988
 3482 0318 FAEC016A 		vldmia.32	r10!, {s13}
 3483 031c 5FED337A 		vldr.32	s15, .L200+40
 226:uber_fdn.h    ****         if (fb > 0.99f)
 3484              		.loc 9 226 31 view .LVU989
 3485 0320 91ED006A 		vldr.32	s12, [r1]
 229:uber_fdn.h    ****           fb = 1.0f;
 3486              		.loc 9 229 13 view .LVU990
 3487 0324 98F8581E 		ldrb	r1, [r8, #3672]	@ zero_extendqisi2
 226:uber_fdn.h    ****         if (fb > 0.99f)
 3488              		.loc 9 226 15 view .LVU991
 3489 0328 26EE867A 		vmul.f32	s14, s13, s12
 3490              	.LVL215:
 232:uber_fdn.h    ****         if (mode_ != MODE_MASSIVE || master_decay_ <= 0.98f)
 3491              		.loc 9 232 32 view .LVU992
 3492 032c BBEC018A 		vldmia.32	fp!, {s16}
 229:uber_fdn.h    ****           fb = 1.0f;
 3493              		.loc 9 229 9 view .LVU993
 3494 0330 0091     		str	r1, [sp]
 3495 0332 B4EEE77A 		vcmpe.f32	s14, s15
 3496 0336 F1EE10FA 		vmrs	APSR_nzcv, FPSCR
 3497 033a 77FE877A 		vselgt.f32	s15, s15, s14
 3498              	.LVL216:
 229:uber_fdn.h    ****           fb = 1.0f;
 3499              		.loc 9 229 9 view .LVU994
 3500 033e 0229     		cmp	r1, #2
 3501 0340 94D1     		bne	.L196
 229:uber_fdn.h    ****           fb = 1.0f;
 3502              		.loc 9 229 35 discriminator 1 view .LVU995
 3503 0342 1FED3B7A 		vldr.32	s14, .L200+44
 3504 0346 B4EEC76A 		vcmpe.f32	s12, s14
 3505 034a F1EE10FA 		vmrs	APSR_nzcv, FPSCR
ARM GAS  /var/folders/v1/156fk8j97zv9pzndh61fy7zm0000gn/T//ccyHp6tG.s 			page 105


 3506 034e 06DC     		bgt	.L132
 232:uber_fdn.h    ****         if (mode_ != MODE_MASSIVE || master_decay_ <= 0.98f)
 3507              		.loc 9 232 36 view .LVU996
 3508 0350 28EE278A 		vmul.f32	s16, s16, s15
 233:uber_fdn.h    ****           next += diffused * 0.25f;
 3509              		.loc 9 233 35 discriminator 1 view .LVU997
 3510 0354 03D8     		bhi	.L132
 234:uber_fdn.h    **** 
 3511              		.loc 9 234 16 view .LVU998
 3512 0356 F5EE007A 		vmov.f32	s15, #2.5e-1
 3513              	.LVL217:
 234:uber_fdn.h    **** 
 3514              		.loc 9 234 16 view .LVU999
 3515 035a A9EEA78A 		vfma.f32	s16, s19, s15
 3516              	.L132:
 3517              	.LVL218:
 3518              	.LBB1157:
 238:uber_fdn.h    ****           resonators_[k].SetFreq(freq);
 3519              		.loc 9 238 36 view .LVU1000
 3520 035e 07EE909A 		vmov	s15, r9	@ int
 3521 0362 B0EE000A 		vmov.f32	s0, #2.0e+0
 3522 0366 F8EEE70A 		vcvt.f32.s32	s1, s15
 3523 036a FFF7FEFF 		bl	powf
 3524              	.LVL219:
 238:uber_fdn.h    ****           resonators_[k].SetFreq(freq);
 3525              		.loc 9 238 17 discriminator 1 view .LVU1001
 3526 036e 5FED457A 		vldr.32	s15, .L200+48
 239:uber_fdn.h    ****           resonators_[k].SetRes(0.1f + (gains[k] * 0.7f));
 3527              		.loc 9 239 33 view .LVU1002
 3528 0372 3846     		mov	r0, r7
 3529 0374 20EE270A 		vmul.f32	s0, s0, s15
 3530              	.LVL220:
 239:uber_fdn.h    ****           resonators_[k].SetRes(0.1f + (gains[k] * 0.7f));
 3531              		.loc 9 239 33 view .LVU1003
 3532 0378 FFF7FEFF 		bl	_ZN7daisysp3Svf7SetFreqEf
 3533              	.LVL221:
 240:uber_fdn.h    ****           resonators_[k].Process(next);
 3534              		.loc 9 240 32 view .LVU1004
 3535 037c 5FED487A 		vldr.32	s15, .L200+52
 3536 0380 1AED017A 		vldr.32	s14, [r10, #-4]
 3537 0384 3846     		mov	r0, r7
 3538 0386 1FED490A 		vldr.32	s0, .L200+56
 3539 038a A7EE270A 		vfma.f32	s0, s14, s15
 3540 038e FFF7FEFF 		bl	_ZN7daisysp3Svf6SetResEf
 3541              	.LVL222:
 241:uber_fdn.h    ****           next = (resonators_[k].Low() * 0.5f) + (resonators_[k].Band() * 0.8f);
 3542              		.loc 9 241 33 view .LVU1005
 3543 0392 B0EE480A 		vmov.f32	s0, s16
 3544 0396 3846     		mov	r0, r7
 3545 0398 FFF7FEFF 		bl	_ZN7daisysp3Svf7ProcessEf
 3546              	.LVL223:
 3547              	.LBB1158:
 3548              	.LBI1158:
  60:../temp_time_machine/DaisyExamples/DaisySP//Source/Filters/svf.h ****     /** highpass output
 3549              		.loc 16 60 18 is_stmt 1 view .LVU1006
 3550              	.LBB1159:
  60:../temp_time_machine/DaisyExamples/DaisySP//Source/Filters/svf.h ****     /** highpass output
ARM GAS  /var/folders/v1/156fk8j97zv9pzndh61fy7zm0000gn/T//ccyHp6tG.s 			page 106


 3551              		.loc 16 60 26 view .LVU1007
 3552              	.LBE1159:
 3553              	.LBE1158:
 3554              	.LBB1160:
 3555              	.LBI1160:
 3556              		.loc 16 68 18 view .LVU1008
 3557              	.LBB1161:
 3558              		.loc 16 68 27 view .LVU1009
 3559              	.LBE1161:
 3560              	.LBE1160:
 242:uber_fdn.h    ****         } else {
 3561              		.loc 9 242 73 is_stmt 0 discriminator 2 view .LVU1010
 3562 039c 5FED4E6A 		vldr.32	s13, .L200+60
 3563 03a0 97ED0E8A 		vldr.32	s16, [r7, #56]
 242:uber_fdn.h    ****         } else {
 3564              		.loc 9 242 48 discriminator 2 view .LVU1011
 3565 03a4 F6EE007A 		vmov.f32	s15, #5.0e-1
 3566 03a8 97ED0C7A 		vldr.32	s14, [r7, #48]
 242:uber_fdn.h    ****         } else {
 3567              		.loc 9 242 73 discriminator 2 view .LVU1012
 3568 03ac 28EE268A 		vmul.f32	s16, s16, s13
 3569              	.LBE1157:
 3570              	.LBB1162:
 251:uber_fdn.h    ****           if (k == 6 || k == 7) {
 3571              		.loc 9 251 13 view .LVU1013
 3572 03b0 98F8581E 		ldrb	r1, [r8, #3672]	@ zero_extendqisi2
 251:uber_fdn.h    ****           if (k == 6 || k == 7) {
 3573              		.loc 9 251 9 view .LVU1014
 3574 03b4 0129     		cmp	r1, #1
 3575              	.LBE1162:
 3576              	.LBB1163:
 242:uber_fdn.h    ****         } else {
 3577              		.loc 9 242 48 discriminator 2 view .LVU1015
 3578 03b6 A7EE278A 		vfma.f32	s16, s14, s15
 242:uber_fdn.h    ****         } else {
 3579              		.loc 9 242 16 discriminator 2 view .LVU1016
 3580 03ba 8DED0F8A 		vstr.32	s16, [sp, #60]
 3581              	.LBE1163:
 3582              	.LBB1164:
 251:uber_fdn.h    ****           if (k == 6 || k == 7) {
 3583              		.loc 9 251 9 view .LVU1017
 3584 03be 00F08B80 		beq	.L130
 257:uber_fdn.h    ****           if (k == 3)
 3585              		.loc 9 257 16 view .LVU1018
 3586 03c2 0229     		cmp	r1, #2
 3587 03c4 7FF47EAF 		bne	.L131
 257:uber_fdn.h    ****           if (k == 3)
 3588              		.loc 9 257 42 discriminator 1 view .LVU1019
 3589 03c8 F5EEC0AA 		vcmpe.f32	s21, #0
 3590 03cc F1EE10FA 		vmrs	APSR_nzcv, FPSCR
 3591 03d0 7FF778AF 		ble	.L131
 258:uber_fdn.h    ****             next = (next * (1.0f - shift_mix)) +
 3592              		.loc 9 258 11 view .LVU1020
 3593 03d4 B9F1030F 		cmp	r9, #3
 3594 03d8 00F0D680 		beq	.L197
 261:uber_fdn.h    ****             next = (next * (1.0f - shift_mix)) +
 3595              		.loc 9 261 11 view .LVU1021
ARM GAS  /var/folders/v1/156fk8j97zv9pzndh61fy7zm0000gn/T//ccyHp6tG.s 			page 107


 3596 03dc B9F1070F 		cmp	r9, #7
 3597 03e0 7FF470AF 		bne	.L131
 262:uber_fdn.h    ****                    (shimmers_[1].Process(next) * shift_mix);
 3598              		.loc 9 262 34 view .LVU1022
 3599 03e4 B7EE00BA 		vmov.f32	s22, #1.0e+0
 263:uber_fdn.h    ****         }
 3600              		.loc 9 263 41 view .LVU1023
 3601 03e8 8248     		ldr	r0, .L202
 262:uber_fdn.h    ****                    (shimmers_[1].Process(next) * shift_mix);
 3602              		.loc 9 262 34 view .LVU1024
 3603 03ea 3BEE6ABA 		vsub.f32	s22, s22, s21
 3604              	.L191:
 263:uber_fdn.h    ****         }
 3605              		.loc 9 263 41 view .LVU1025
 3606 03ee 029B     		ldr	r3, [sp, #8]
 3607 03f0 0FA9     		add	r1, sp, #60
 3608 03f2 1844     		add	r0, r0, r3
 3609 03f4 FFF7FEFF 		bl	_ZN7daisysp12PitchShifter7ProcessERf
 3610              	.LVL224:
 263:uber_fdn.h    ****         }
 3611              		.loc 9 263 48 discriminator 1 view .LVU1026
 3612 03f8 60EE2A7A 		vmul.f32	s15, s0, s21
 262:uber_fdn.h    ****                    (shimmers_[1].Process(next) * shift_mix);
 3613              		.loc 9 262 48 view .LVU1027
 3614 03fc E8EE0B7A 		vfma.f32	s15, s16, s22
 3615 0400 B0EE678A 		vmov.f32	s16, s15
 3616 0404 5EE7     		b	.L131
 3617              	.LVL225:
 3618              	.L192:
 262:uber_fdn.h    ****                    (shimmers_[1].Process(next) * shift_mix);
 3619              		.loc 9 262 48 view .LVU1028
 3620              	.LBE1164:
 3621              	.LBE1171:
 3622              	.LBE1093:
 3623              	.LBE1067:
 3624              	.LBE1066:
 3625              	.LBB1182:
 3626              	.LBI1182:
 144:../temp_time_machine/DaisyExamples/DaisySP//Source/Effects/pitchshifter.h **** 
 145:../temp_time_machine/DaisyExamples/DaisySP//Source/Effects/pitchshifter.h ****     /** sets transposition in semitones
 146:../temp_time_machine/DaisyExamples/DaisySP//Source/Effects/pitchshifter.h ****     */
 147:../temp_time_machine/DaisyExamples/DaisySP//Source/Effects/pitchshifter.h ****     void SetTransposition(const float &transpose)
 3627              		.loc 13 147 10 is_stmt 1 view .LVU1029
 3628              	.LBB1183:
 148:../temp_time_machine/DaisyExamples/DaisySP//Source/Effects/pitchshifter.h ****     {
 149:../temp_time_machine/DaisyExamples/DaisySP//Source/Effects/pitchshifter.h ****         float   ratio;
 3629              		.loc 13 149 9 view .LVU1030
 150:../temp_time_machine/DaisyExamples/DaisySP//Source/Effects/pitchshifter.h ****         uint8_t idx;
 3630              		.loc 13 150 9 view .LVU1031
 151:../temp_time_machine/DaisyExamples/DaisySP//Source/Effects/pitchshifter.h ****         if(transpose_ != transpose || force_recalc_)
 3631              		.loc 13 151 9 view .LVU1032
 3632              		.loc 13 151 12 is_stmt 0 view .LVU1033
 3633 0406 7C4B     		ldr	r3, .L202+4
 3634              		.loc 13 151 9 view .LVU1034
 3635 0408 F2EE087A 		vmov.f32	s15, #1.2e+1
 3636 040c 00F50834 		add	r4, r0, #139264
 3637              		.loc 13 151 12 view .LVU1035
ARM GAS  /var/folders/v1/156fk8j97zv9pzndh61fy7zm0000gn/T//ccyHp6tG.s 			page 108


 3638 0410 0344     		add	r3, r3, r0
 3639              		.loc 13 151 9 view .LVU1036
 3640 0412 93ED187A 		vldr.32	s14, [r3, #96]
 3641              		.loc 13 151 12 view .LVU1037
 3642 0416 00F50053 		add	r3, r0, #8192
 3643              		.loc 13 151 9 view .LVU1038
 3644 041a B4EE677A 		vcmp.f32	s14, s15
 3645 041e F1EE10FA 		vmrs	APSR_nzcv, FPSCR
 3646 0422 00F0E080 		beq	.L185
 3647              	.LVL226:
 3648              	.L88:
 152:../temp_time_machine/DaisyExamples/DaisySP//Source/Effects/pitchshifter.h ****         {
 153:../temp_time_machine/DaisyExamples/DaisySP//Source/Effects/pitchshifter.h ****             transpose_ = transpose;
 3649              		.loc 13 153 13 is_stmt 1 view .LVU1039
 3650              		.loc 13 153 24 is_stmt 0 view .LVU1040
 3651 0426 DFF8F091 		ldr	r9, .L202+36
 154:../temp_time_machine/DaisyExamples/DaisySP//Source/Effects/pitchshifter.h ****             idx        = (uint8_t)fabsf(transpose);
 155:../temp_time_machine/DaisyExamples/DaisySP//Source/Effects/pitchshifter.h ****             ratio      = semitone_ratios_[idx % 12];
 156:../temp_time_machine/DaisyExamples/DaisySP//Source/Effects/pitchshifter.h ****             ratio *= (uint8_t)(fabsf(transpose) / 12) + 1;
 157:../temp_time_machine/DaisyExamples/DaisySP//Source/Effects/pitchshifter.h ****             if(transpose > 0.0f)
 158:../temp_time_machine/DaisyExamples/DaisySP//Source/Effects/pitchshifter.h ****             {
 159:../temp_time_machine/DaisyExamples/DaisySP//Source/Effects/pitchshifter.h ****                 shift_up_ = true;
 160:../temp_time_machine/DaisyExamples/DaisySP//Source/Effects/pitchshifter.h ****             }
 161:../temp_time_machine/DaisyExamples/DaisySP//Source/Effects/pitchshifter.h ****             else
 162:../temp_time_machine/DaisyExamples/DaisySP//Source/Effects/pitchshifter.h ****             {
 163:../temp_time_machine/DaisyExamples/DaisySP//Source/Effects/pitchshifter.h ****                 shift_up_ = false;
 164:../temp_time_machine/DaisyExamples/DaisySP//Source/Effects/pitchshifter.h ****             }
 165:../temp_time_machine/DaisyExamples/DaisySP//Source/Effects/pitchshifter.h ****             mod_freq_ = ((ratio - 1.0f) * sr_) / del_size_;
 3652              		.loc 13 165 33 view .LVU1041
 3653 042a F0EE006A 		vmov.f32	s13, #2.0e+0
 3654 042e FFEE007A 		vmov.f32	s15, #-1.0e+0
 3655 0432 9FED720A 		vldr.32	s0, .L202+8
 3656              	.LVL227:
 153:../temp_time_machine/DaisyExamples/DaisySP//Source/Effects/pitchshifter.h ****             idx        = (uint8_t)fabsf(transpose);
 3657              		.loc 13 153 24 view .LVU1042
 3658 0436 9944     		add	r9, r9, r3
 3659              		.loc 13 165 48 view .LVU1043
 3660 0438 D4F8043D 		ldr	r3, [r4, #3332]
 166:../temp_time_machine/DaisyExamples/DaisySP//Source/Effects/pitchshifter.h ****             if(mod_freq_ < 0.0f)
 167:../temp_time_machine/DaisyExamples/DaisySP//Source/Effects/pitchshifter.h ****             {
 168:../temp_time_machine/DaisyExamples/DaisySP//Source/Effects/pitchshifter.h ****                 mod_freq_ = 0.0f;
 169:../temp_time_machine/DaisyExamples/DaisySP//Source/Effects/pitchshifter.h ****             }
 170:../temp_time_machine/DaisyExamples/DaisySP//Source/Effects/pitchshifter.h ****             phs_[0].SetFreq(mod_freq_);
 3661              		.loc 13 170 28 view .LVU1044
 3662 043c 7048     		ldr	r0, .L202+12
 3663              	.LVL228:
 3664              		.loc 13 170 28 view .LVU1045
 3665 043e 42F6E44B 		movw	fp, #11492
 155:../temp_time_machine/DaisyExamples/DaisySP//Source/Effects/pitchshifter.h ****             ratio *= (uint8_t)(fabsf(transpose) / 12) + 1;
 3666              		.loc 13 155 24 view .LVU1046
 3667 0442 99ED226A 		vldr.32	s12, [r9, #136]
 165:../temp_time_machine/DaisyExamples/DaisySP//Source/Effects/pitchshifter.h ****             if(mod_freq_ < 0.0f)
 3668              		.loc 13 165 41 view .LVU1047
 3669 0446 99ED0A7A 		vldr.32	s14, [r9, #40]
 3670              		.loc 13 170 28 view .LVU1048
 3671 044a 5044     		add	r0, r0, r10
 165:../temp_time_machine/DaisyExamples/DaisySP//Source/Effects/pitchshifter.h ****             if(mod_freq_ < 0.0f)
ARM GAS  /var/folders/v1/156fk8j97zv9pzndh61fy7zm0000gn/T//ccyHp6tG.s 			page 109


 3672              		.loc 13 165 33 view .LVU1049
 3673 044c E6EE267A 		vfma.f32	s15, s12, s13
 3674              		.loc 13 170 28 view .LVU1050
 3675 0450 D344     		add	fp, fp, r10
 165:../temp_time_machine/DaisyExamples/DaisySP//Source/Effects/pitchshifter.h ****             if(mod_freq_ < 0.0f)
 3676              		.loc 13 165 41 view .LVU1051
 3677 0452 67EE877A 		vmul.f32	s15, s15, s14
 165:../temp_time_machine/DaisyExamples/DaisySP//Source/Effects/pitchshifter.h ****             if(mod_freq_ < 0.0f)
 3678              		.loc 13 165 48 view .LVU1052
 3679 0456 07EE103A 		vmov	s14, r3	@ int
 153:../temp_time_machine/DaisyExamples/DaisySP//Source/Effects/pitchshifter.h ****             idx        = (uint8_t)fabsf(transpose);
 3680              		.loc 13 153 24 view .LVU1053
 3681 045a 6A4B     		ldr	r3, .L202+16
 165:../temp_time_machine/DaisyExamples/DaisySP//Source/Effects/pitchshifter.h ****             if(mod_freq_ < 0.0f)
 3682              		.loc 13 165 48 view .LVU1054
 3683 045c B8EE477A 		vcvt.f32.u32	s14, s14
 153:../temp_time_machine/DaisyExamples/DaisySP//Source/Effects/pitchshifter.h ****             idx        = (uint8_t)fabsf(transpose);
 3684              		.loc 13 153 24 view .LVU1055
 3685 0460 C9F86030 		str	r3, [r9, #96]	@ float
 154:../temp_time_machine/DaisyExamples/DaisySP//Source/Effects/pitchshifter.h ****             ratio      = semitone_ratios_[idx % 12];
 3686              		.loc 13 154 13 is_stmt 1 view .LVU1056
 3687              	.LVL229:
 155:../temp_time_machine/DaisyExamples/DaisySP//Source/Effects/pitchshifter.h ****             ratio *= (uint8_t)(fabsf(transpose) / 12) + 1;
 3688              		.loc 13 155 13 view .LVU1057
 156:../temp_time_machine/DaisyExamples/DaisySP//Source/Effects/pitchshifter.h ****             if(transpose > 0.0f)
 3689              		.loc 13 156 13 view .LVU1058
 157:../temp_time_machine/DaisyExamples/DaisySP//Source/Effects/pitchshifter.h ****             {
 3690              		.loc 13 157 13 view .LVU1059
 159:../temp_time_machine/DaisyExamples/DaisySP//Source/Effects/pitchshifter.h ****             }
 3691              		.loc 13 159 17 view .LVU1060
 159:../temp_time_machine/DaisyExamples/DaisySP//Source/Effects/pitchshifter.h ****             }
 3692              		.loc 13 159 27 is_stmt 0 view .LVU1061
 3693 0464 0123     		movs	r3, #1
 165:../temp_time_machine/DaisyExamples/DaisySP//Source/Effects/pitchshifter.h ****             if(mod_freq_ < 0.0f)
 3694              		.loc 13 165 48 view .LVU1062
 3695 0466 C7EE876A 		vdiv.f32	s13, s15, s14
 159:../temp_time_machine/DaisyExamples/DaisySP//Source/Effects/pitchshifter.h ****             }
 3696              		.loc 13 159 27 view .LVU1063
 3697 046a 84F8103D 		strb	r3, [r4, #3344]
 165:../temp_time_machine/DaisyExamples/DaisySP//Source/Effects/pitchshifter.h ****             if(mod_freq_ < 0.0f)
 3698              		.loc 13 165 13 is_stmt 1 view .LVU1064
 166:../temp_time_machine/DaisyExamples/DaisySP//Source/Effects/pitchshifter.h ****             {
 3699              		.loc 13 166 13 view .LVU1065
 3700 046e F4EEC06A 		vcmpe.f32	s13, s0
 3701 0472 F1EE10FA 		vmrs	APSR_nzcv, FPSCR
 3702 0476 58BF     		it	pl
 3703 0478 B0EE660A 		vmovpl.f32	s0, s13
 3704 047c 89ED070A 		vstr.32	s0, [r9, #28]
 3705              		.loc 13 170 13 view .LVU1066
 3706              		.loc 13 170 28 is_stmt 0 view .LVU1067
 3707 0480 FFF7FEFF 		bl	_ZN7daisysp6Phasor7SetFreqEf
 3708              	.LVL230:
 171:../temp_time_machine/DaisyExamples/DaisySP//Source/Effects/pitchshifter.h ****             phs_[1].SetFreq(mod_freq_);
 3709              		.loc 13 171 13 is_stmt 1 view .LVU1068
 3710              		.loc 13 171 28 is_stmt 0 view .LVU1069
 3711 0484 6048     		ldr	r0, .L202+20
 3712 0486 99ED070A 		vldr.32	s0, [r9, #28]
ARM GAS  /var/folders/v1/156fk8j97zv9pzndh61fy7zm0000gn/T//ccyHp6tG.s 			page 110


 3713 048a 5844     		add	r0, r0, fp
 3714 048c FFF7FEFF 		bl	_ZN7daisysp6Phasor7SetFreqEf
 3715              	.LVL231:
 172:../temp_time_machine/DaisyExamples/DaisySP//Source/Effects/pitchshifter.h ****             if(force_recalc_)
 3716              		.loc 13 172 13 is_stmt 1 view .LVU1070
 3717 0490 94F8083D 		ldrb	r3, [r4, #3336]	@ zero_extendqisi2
 3718 0494 13B1     		cbz	r3, .L89
 173:../temp_time_machine/DaisyExamples/DaisySP//Source/Effects/pitchshifter.h ****             {
 174:../temp_time_machine/DaisyExamples/DaisySP//Source/Effects/pitchshifter.h ****                 force_recalc_ = false;
 3719              		.loc 13 174 17 view .LVU1071
 3720              		.loc 13 174 31 is_stmt 0 view .LVU1072
 3721 0496 0023     		movs	r3, #0
 3722 0498 84F8083D 		strb	r3, [r4, #3336]
 3723              	.LVL232:
 3724              	.L89:
 3725              		.loc 13 174 31 view .LVU1073
 3726              	.LBE1183:
 3727              	.LBE1182:
 3728              	.LBB1188:
 3729              	.LBI1188:
 147:../temp_time_machine/DaisyExamples/DaisySP//Source/Effects/pitchshifter.h ****     {
 3730              		.loc 13 147 10 is_stmt 1 view .LVU1074
 3731              	.LBB1189:
 149:../temp_time_machine/DaisyExamples/DaisySP//Source/Effects/pitchshifter.h ****         uint8_t idx;
 3732              		.loc 13 149 9 view .LVU1075
 150:../temp_time_machine/DaisyExamples/DaisySP//Source/Effects/pitchshifter.h ****         if(transpose_ != transpose || force_recalc_)
 3733              		.loc 13 150 9 view .LVU1076
 151:../temp_time_machine/DaisyExamples/DaisySP//Source/Effects/pitchshifter.h ****         {
 3734              		.loc 13 151 9 view .LVU1077
 151:../temp_time_machine/DaisyExamples/DaisySP//Source/Effects/pitchshifter.h ****         {
 3735              		.loc 13 151 12 is_stmt 0 view .LVU1078
 3736 049c 5B4B     		ldr	r3, .L202+24
 151:../temp_time_machine/DaisyExamples/DaisySP//Source/Effects/pitchshifter.h ****         {
 3737              		.loc 13 151 9 view .LVU1079
 3738 049e F2EE087A 		vmov.f32	s15, #1.2e+1
 151:../temp_time_machine/DaisyExamples/DaisySP//Source/Effects/pitchshifter.h ****         {
 3739              		.loc 13 151 12 view .LVU1080
 3740 04a2 2344     		add	r3, r3, r4
 151:../temp_time_machine/DaisyExamples/DaisySP//Source/Effects/pitchshifter.h ****         {
 3741              		.loc 13 151 9 view .LVU1081
 3742 04a4 93ED187A 		vldr.32	s14, [r3, #96]
 3743 04a8 B4EE677A 		vcmp.f32	s14, s15
 3744 04ac F1EE10FA 		vmrs	APSR_nzcv, FPSCR
 3745 04b0 40F0AB81 		bne	.L91
 151:../temp_time_machine/DaisyExamples/DaisySP//Source/Effects/pitchshifter.h ****         {
 3746              		.loc 13 151 36 discriminator 1 view .LVU1082
 3747 04b4 98F8C03D 		ldrb	r3, [r8, #3520]	@ zero_extendqisi2
 3748 04b8 002B     		cmp	r3, #0
 3749 04ba 40F0A681 		bne	.L91
 3750              	.L92:
 3751              	.LBE1189:
 3752              	.LBE1188:
 3753              	.LBB1191:
 184:uber_fdn.h    ****       float input = (in_l[i] + in_r[i]) * 0.5f;
 3754              		.loc 9 184 26 discriminator 1 view .LVU1083
 3755 04be 339B     		ldr	r3, [sp, #204]
 3756              	.LBE1191:
ARM GAS  /var/folders/v1/156fk8j97zv9pzndh61fy7zm0000gn/T//ccyHp6tG.s 			page 111


 155:uber_fdn.h    ****     if (mode_ == MODE_MASSIVE)
 3757              		.loc 9 155 11 view .LVU1084
 3758 04c0 B2EE04AA 		vmov.f32	s20, #1.0e+1
 169:uber_fdn.h    ****     } else if (mode_ == MODE_MASSIVE) {
 3759              		.loc 9 169 17 view .LVU1085
 3760 04c4 F7EE00AA 		vmov.f32	s21, #1.0e+0
 3761              	.LVL233:
 3762              	.LBB1192:
 184:uber_fdn.h    ****       float input = (in_l[i] + in_r[i]) * 0.5f;
 3763              		.loc 9 184 26 is_stmt 1 discriminator 1 view .LVU1086
 3764 04c8 002B     		cmp	r3, #0
 3765 04ca 7FF4B8AD 		bne	.L198
 3766              	.LVL234:
 3767              	.L85:
 184:uber_fdn.h    ****       float input = (in_l[i] + in_r[i]) * 0.5f;
 3768              		.loc 9 184 26 is_stmt 0 discriminator 1 view .LVU1087
 3769              	.LBE1192:
 276:uber_fdn.h    **** 
 3770              		.loc 9 276 3 view .LVU1088
 3771 04ce 21B0     		add	sp, sp, #132
 3772              		.cfi_remember_state
 3773              		.cfi_def_cfa_offset 68
 3774              		@ sp needed
 3775 04d0 BDEC088B 		vldm	sp!, {d8-d11}
 3776              		.cfi_restore 86
 3777              		.cfi_restore 87
 3778              		.cfi_restore 84
 3779              		.cfi_restore 85
 3780              		.cfi_restore 82
 3781              		.cfi_restore 83
 3782              		.cfi_restore 80
 3783              		.cfi_restore 81
 3784              		.cfi_def_cfa_offset 36
 3785              	.LVL235:
 276:uber_fdn.h    **** 
 3786              		.loc 9 276 3 view .LVU1089
 3787 04d4 BDE8F08F 		pop	{r4, r5, r6, r7, r8, r9, r10, fp, pc}
 3788              	.LVL236:
 3789              	.L130:
 3790              		.cfi_restore_state
 3791              	.LBB1193:
 3792              	.LBB1177:
 3793              	.LBB1174:
 3794              	.LBB1172:
 3795              	.LBB1165:
 3796              	.LBB1123:
 252:uber_fdn.h    ****             float s = shimmers_[k - 6].Process(next);
 3797              		.loc 9 252 11 view .LVU1090
 3798 04d8 A9F10601 		sub	r1, r9, #6
 3799 04dc 0129     		cmp	r1, #1
 3800 04de 3FF6F1AE 		bhi	.L131
 3801              	.LBB1124:
 253:uber_fdn.h    ****             // Mix 50/50
 3802              		.loc 9 253 47 view .LVU1091
 3803 04e2 0FA9     		add	r1, sp, #60
 3804 04e4 3046     		mov	r0, r6
 3805 04e6 FFF7FEFF 		bl	_ZN7daisysp12PitchShifter7ProcessERf
ARM GAS  /var/folders/v1/156fk8j97zv9pzndh61fy7zm0000gn/T//ccyHp6tG.s 			page 112


 3806              	.LVL237:
 255:uber_fdn.h    ****           }
 3807              		.loc 9 255 39 view .LVU1092
 3808 04ea B6EE007A 		vmov.f32	s14, #5.0e-1
 3809 04ee 60EE077A 		vmul.f32	s15, s0, s14
 255:uber_fdn.h    ****           }
 3810              		.loc 9 255 34 view .LVU1093
 3811 04f2 E8EE077A 		vfma.f32	s15, s16, s14
 3812 04f6 B0EE678A 		vmov.f32	s16, s15
 3813              	.LBE1124:
 3814 04fa E3E6     		b	.L131
 3815              	.LVL238:
 3816              	.L193:
 255:uber_fdn.h    ****           }
 3817              		.loc 9 255 34 view .LVU1094
 3818              	.LBE1123:
 3819              	.LBE1165:
 3820              	.LBE1172:
 3821              	.LBE1174:
 3822              	.LBB1175:
 3823              	.LBB1090:
 198:uber_fdn.h    ****         } else {
 3824              		.loc 9 198 40 view .LVU1095
 3825 04fc 2846     		mov	r0, r5
 3826 04fe FFF7FEFF 		bl	_ZN7daisysp10Oscillator7ProcessEv
 3827              	.LVL239:
 3828 0502 B0EE408A 		vmov.f32	s16, s0
 198:uber_fdn.h    ****         } else {
 3829              		.loc 9 198 64 discriminator 1 view .LVU1096
 3830 0506 05F5B070 		add	r0, r5, #352
 3831 050a FFF7FEFF 		bl	_ZN7daisysp10Oscillator7ProcessEv
 3832              	.LVL240:
 198:uber_fdn.h    ****         } else {
 3833              		.loc 9 198 19 discriminator 2 view .LVU1097
 3834 050e 38EE008A 		vadd.f32	s16, s16, s0
 3835              	.LVL241:
 198:uber_fdn.h    ****         } else {
 3836              		.loc 9 198 19 discriminator 2 view .LVU1098
 3837 0512 04E6     		b	.L118
 3838              	.LVL242:
 3839              	.L195:
 198:uber_fdn.h    ****         } else {
 3840              		.loc 9 198 19 discriminator 2 view .LVU1099
 3841              	.LBE1090:
 3842              	.LBE1175:
 271:uber_fdn.h    ****       float r = delay_outs[1] - delay_outs[3] + delay_outs[5] - delay_outs[7];
 3843              		.loc 9 271 31 view .LVU1100
 3844 0514 9DED126A 		vldr.32	s12, [sp, #72]
 3845 0518 9DED107A 		vldr.32	s14, [sp, #64]
 272:uber_fdn.h    ****       out_l[i] = l * 0.25f;
 3846              		.loc 9 272 31 view .LVU1101
 3847 051c DDED136A 		vldr.32	s13, [sp, #76]
 271:uber_fdn.h    ****       float r = delay_outs[1] - delay_outs[3] + delay_outs[5] - delay_outs[7];
 3848              		.loc 9 271 31 view .LVU1102
 3849 0520 37EE467A 		vsub.f32	s14, s14, s12
 272:uber_fdn.h    ****       out_l[i] = l * 0.25f;
 3850              		.loc 9 272 31 view .LVU1103
ARM GAS  /var/folders/v1/156fk8j97zv9pzndh61fy7zm0000gn/T//ccyHp6tG.s 			page 113


 3851 0524 DDED117A 		vldr.32	s15, [sp, #68]
 271:uber_fdn.h    ****       float r = delay_outs[1] - delay_outs[3] + delay_outs[5] - delay_outs[7];
 3852              		.loc 9 271 47 view .LVU1104
 3853 0528 9DED145A 		vldr.32	s10, [sp, #80]
 272:uber_fdn.h    ****       out_l[i] = l * 0.25f;
 3854              		.loc 9 272 31 view .LVU1105
 3855 052c 77EEE67A 		vsub.f32	s15, s15, s13
 272:uber_fdn.h    ****       out_l[i] = l * 0.25f;
 3856              		.loc 9 272 47 view .LVU1106
 3857 0530 DDED156A 		vldr.32	s13, [sp, #84]
 271:uber_fdn.h    ****       float r = delay_outs[1] - delay_outs[3] + delay_outs[5] - delay_outs[7];
 3858              		.loc 9 271 47 view .LVU1107
 3859 0534 37EE057A 		vadd.f32	s14, s14, s10
 271:uber_fdn.h    ****       float r = delay_outs[1] - delay_outs[3] + delay_outs[5] - delay_outs[7];
 3860              		.loc 9 271 13 view .LVU1108
 3861 0538 9DED166A 		vldr.32	s12, [sp, #88]
 272:uber_fdn.h    ****       out_l[i] = l * 0.25f;
 3862              		.loc 9 272 13 view .LVU1109
 3863 053c DDED175A 		vldr.32	s11, [sp, #92]
 272:uber_fdn.h    ****       out_l[i] = l * 0.25f;
 3864              		.loc 9 272 47 view .LVU1110
 3865 0540 77EEA67A 		vadd.f32	s15, s15, s13
 273:uber_fdn.h    ****       out_r[i] = r * 0.25f;
 3866              		.loc 9 273 16 view .LVU1111
 3867 0544 059A     		ldr	r2, [sp, #20]
 273:uber_fdn.h    ****       out_r[i] = r * 0.25f;
 3868              		.loc 9 273 20 view .LVU1112
 3869 0546 F5EE006A 		vmov.f32	s13, #2.5e-1
 3870              	.LBE1177:
 184:uber_fdn.h    ****       float input = (in_l[i] + in_r[i]) * 0.5f;
 3871              		.loc 9 184 5 discriminator 2 view .LVU1113
 3872 054a 039B     		ldr	r3, [sp, #12]
 3873              	.LBB1178:
 271:uber_fdn.h    ****       float r = delay_outs[1] - delay_outs[3] + delay_outs[5] - delay_outs[7];
 3874              		.loc 9 271 13 view .LVU1114
 3875 054c 37EE467A 		vsub.f32	s14, s14, s12
 272:uber_fdn.h    ****       out_l[i] = l * 0.25f;
 3876              		.loc 9 272 31 view .LVU1115
 3877 0550 DDF808B0 		ldr	fp, [sp, #8]
 272:uber_fdn.h    ****       out_l[i] = l * 0.25f;
 3878              		.loc 9 272 13 view .LVU1116
 3879 0554 77EEE57A 		vsub.f32	s15, s15, s11
 3880              	.LBE1178:
 184:uber_fdn.h    ****       float input = (in_l[i] + in_r[i]) * 0.5f;
 3881              		.loc 9 184 5 discriminator 2 view .LVU1117
 3882 0558 0133     		adds	r3, r3, #1
 3883              	.LBB1179:
 272:uber_fdn.h    ****       out_l[i] = l * 0.25f;
 3884              		.loc 9 272 31 view .LVU1118
 3885 055a DDF820A0 		ldr	r10, [sp, #32]
 3886              	.LVL243:
 273:uber_fdn.h    ****       out_r[i] = r * 0.25f;
 3887              		.loc 9 273 20 view .LVU1119
 3888 055e 27EE267A 		vmul.f32	s14, s14, s13
 3889              	.LBE1179:
 184:uber_fdn.h    ****       float input = (in_l[i] + in_r[i]) * 0.5f;
 3890              		.loc 9 184 5 discriminator 2 view .LVU1120
ARM GAS  /var/folders/v1/156fk8j97zv9pzndh61fy7zm0000gn/T//ccyHp6tG.s 			page 114


 3891 0562 0393     		str	r3, [sp, #12]
 3892              	.LVL244:
 3893              	.LBB1180:
 274:uber_fdn.h    ****     }
 3894              		.loc 9 274 20 view .LVU1121
 3895 0564 67EEA67A 		vmul.f32	s15, s15, s13
 3896              	.LVL245:
 273:uber_fdn.h    ****       out_r[i] = r * 0.25f;
 3897              		.loc 9 273 16 view .LVU1122
 3898 0568 A2EC017A 		vstmia.32	r2!, {s14}
 3899 056c 0592     		str	r2, [sp, #20]
 274:uber_fdn.h    ****     }
 3900              		.loc 9 274 16 view .LVU1123
 3901 056e 049A     		ldr	r2, [sp, #16]
 3902 0570 E2EC017A 		vstmia.32	r2!, {s15}
 3903 0574 0492     		str	r2, [sp, #16]
 3904              	.LBE1180:
 184:uber_fdn.h    ****       float input = (in_l[i] + in_r[i]) * 0.5f;
 3905              		.loc 9 184 5 is_stmt 1 discriminator 2 view .LVU1124
 3906              	.LVL246:
 184:uber_fdn.h    ****       float input = (in_l[i] + in_r[i]) * 0.5f;
 3907              		.loc 9 184 26 discriminator 1 view .LVU1125
 3908 0576 339A     		ldr	r2, [sp, #204]
 3909 0578 9A42     		cmp	r2, r3
 3910 057a 7FF481AD 		bne	.L139
 3911              	.LBE1193:
 276:uber_fdn.h    **** 
 3912              		.loc 9 276 3 is_stmt 0 view .LVU1126
 3913 057e 21B0     		add	sp, sp, #132
 3914              		.cfi_remember_state
 3915              		.cfi_def_cfa_offset 68
 3916              		@ sp needed
 3917 0580 BDEC088B 		vldm	sp!, {d8-d11}
 3918              		.cfi_restore 86
 3919              		.cfi_restore 87
 3920              		.cfi_restore 84
 3921              		.cfi_restore 85
 3922              		.cfi_restore 82
 3923              		.cfi_restore 83
 3924              		.cfi_restore 80
 3925              		.cfi_restore 81
 3926              		.cfi_def_cfa_offset 36
 3927              	.LVL247:
 276:uber_fdn.h    **** 
 3928              		.loc 9 276 3 view .LVU1127
 3929 0584 BDE8F08F 		pop	{r4, r5, r6, r7, r8, r9, r10, fp, pc}
 3930              	.LVL248:
 3931              	.L197:
 3932              		.cfi_restore_state
 3933              	.LBB1194:
 3934              	.LBB1181:
 3935              	.LBB1176:
 3936              	.LBB1173:
 3937              	.LBB1166:
 259:uber_fdn.h    ****                    (shimmers_[0].Process(next) * shift_mix);
 3938              		.loc 9 259 34 view .LVU1128
 3939 0588 B7EE00BA 		vmov.f32	s22, #1.0e+0
ARM GAS  /var/folders/v1/156fk8j97zv9pzndh61fy7zm0000gn/T//ccyHp6tG.s 			page 115


 260:uber_fdn.h    ****           if (k == 7)
 3940              		.loc 9 260 41 view .LVU1129
 3941 058c 42F6E440 		movw	r0, #11492
 259:uber_fdn.h    ****                    (shimmers_[0].Process(next) * shift_mix);
 3942              		.loc 9 259 34 view .LVU1130
 3943 0590 3BEE6ABA 		vsub.f32	s22, s22, s21
 3944 0594 2BE7     		b	.L191
 3945              	.LVL249:
 3946              	.L86:
 259:uber_fdn.h    ****                    (shimmers_[0].Process(next) * shift_mix);
 3947              		.loc 9 259 34 view .LVU1131
 3948              	.LBE1166:
 3949              	.LBE1173:
 3950              	.LBE1176:
 3951              	.LBE1181:
 3952              	.LBE1194:
 172:uber_fdn.h    ****         shift_mix = (warp - 0.6f) * 2.5f;
 3953              		.loc 9 172 7 view .LVU1132
 3954 0596 9FED1E7A 		vldr.32	s14, .L202+28
 3955 059a F0EE419A 		vmov.f32	s19, s2
 3956              	.LBB1195:
 3957              	.LBB1184:
 151:../temp_time_machine/DaisyExamples/DaisySP//Source/Effects/pitchshifter.h ****         {
 3958              		.loc 13 151 12 view .LVU1133
 3959 059e 164B     		ldr	r3, .L202+4
 3960              	.LBE1184:
 3961              	.LBE1195:
 172:uber_fdn.h    ****         shift_mix = (warp - 0.6f) * 2.5f;
 3962              		.loc 9 172 7 view .LVU1134
 3963 05a0 B4EEC71A 		vcmpe.f32	s2, s14
 3964              	.LBB1196:
 3965              	.LBB1185:
 151:../temp_time_machine/DaisyExamples/DaisySP//Source/Effects/pitchshifter.h ****         {
 3966              		.loc 13 151 12 view .LVU1135
 3967 05a4 0344     		add	r3, r3, r0
 3968              	.LBE1185:
 3969              	.LBE1196:
 172:uber_fdn.h    ****         shift_mix = (warp - 0.6f) * 2.5f;
 3970              		.loc 9 172 7 view .LVU1136
 3971 05a6 F1EE10FA 		vmrs	APSR_nzcv, FPSCR
 3972              	.LBB1197:
 3973              	.LBB1186:
 151:../temp_time_machine/DaisyExamples/DaisySP//Source/Effects/pitchshifter.h ****         {
 3974              		.loc 13 151 12 view .LVU1137
 3975 05aa D3ED187A 		vldr.32	s15, [r3, #96]
 3976 05ae 00F50053 		add	r3, r0, #8192
 3977              	.LBE1186:
 3978              	.LBE1197:
 172:uber_fdn.h    ****         shift_mix = (warp - 0.6f) * 2.5f;
 3979              		.loc 9 172 7 view .LVU1138
 3980 05b2 35DD     		ble	.L186
 3981              	.LVL250:
 174:uber_fdn.h    ****         shimmers_[1].SetTransposition(warp > 0.85f ? 19.02f : 12.02f);
 3982              		.loc 9 174 52 view .LVU1139
 3983 05b4 9FED177A 		vldr.32	s14, .L202+32
 3984 05b8 B4EEC71A 		vcmpe.f32	s2, s14
 3985 05bc F1EE10FA 		vmrs	APSR_nzcv, FPSCR
ARM GAS  /var/folders/v1/156fk8j97zv9pzndh61fy7zm0000gn/T//ccyHp6tG.s 			page 116


 3986 05c0 00F36081 		bgt	.L96
 3987              	.LVL251:
 3988              	.LBB1198:
 3989              	.LBI1198:
 147:../temp_time_machine/DaisyExamples/DaisySP//Source/Effects/pitchshifter.h ****     {
 3990              		.loc 13 147 10 is_stmt 1 view .LVU1140
 3991              	.LBB1199:
 149:../temp_time_machine/DaisyExamples/DaisySP//Source/Effects/pitchshifter.h ****         uint8_t idx;
 3992              		.loc 13 149 9 view .LVU1141
 150:../temp_time_machine/DaisyExamples/DaisySP//Source/Effects/pitchshifter.h ****         if(transpose_ != transpose || force_recalc_)
 3993              		.loc 13 150 9 view .LVU1142
 151:../temp_time_machine/DaisyExamples/DaisySP//Source/Effects/pitchshifter.h ****         {
 3994              		.loc 13 151 9 view .LVU1143
 3995 05c4 B2EE087A 		vmov.f32	s14, #1.2e+1
 3996 05c8 F4EE477A 		vcmp.f32	s15, s14
 3997 05cc F1EE10FA 		vmrs	APSR_nzcv, FPSCR
 3998 05d0 40F0E081 		bne	.L142
 151:../temp_time_machine/DaisyExamples/DaisySP//Source/Effects/pitchshifter.h ****         {
 3999              		.loc 13 151 39 is_stmt 0 discriminator 1 view .LVU1144
 4000 05d4 00F50834 		add	r4, r0, #139264
 151:../temp_time_machine/DaisyExamples/DaisySP//Source/Effects/pitchshifter.h ****         {
 4001              		.loc 13 151 36 discriminator 1 view .LVU1145
 4002 05d8 94F8082D 		ldrb	r2, [r4, #3336]	@ zero_extendqisi2
 4003              	.LVL252:
 151:../temp_time_machine/DaisyExamples/DaisySP//Source/Effects/pitchshifter.h ****         {
 4004              		.loc 13 151 36 discriminator 1 view .LVU1146
 4005 05dc 002A     		cmp	r2, #0
 4006 05de 00F0DF81 		beq	.L101
 4007 05e2 0020     		movs	r0, #0
 4008              	.LVL253:
 151:../temp_time_machine/DaisyExamples/DaisySP//Source/Effects/pitchshifter.h ****         {
 4009              		.loc 13 151 36 discriminator 1 view .LVU1147
 4010 05e4 5CE1     		b	.L97
 4011              	.LVL254:
 4012              	.L185:
 151:../temp_time_machine/DaisyExamples/DaisySP//Source/Effects/pitchshifter.h ****         {
 4013              		.loc 13 151 36 discriminator 1 view .LVU1148
 4014              	.LBE1199:
 4015              	.LBE1198:
 4016              	.LBB1203:
 4017              	.LBB1187:
 4018 05e6 94F8082D 		ldrb	r2, [r4, #3336]	@ zero_extendqisi2
 4019              	.LVL255:
 151:../temp_time_machine/DaisyExamples/DaisySP//Source/Effects/pitchshifter.h ****         {
 4020              		.loc 13 151 36 discriminator 1 view .LVU1149
 4021 05ea 002A     		cmp	r2, #0
 4022 05ec 3FF456AF 		beq	.L89
 4023 05f0 19E7     		b	.L88
 4024              	.L203:
 4025 05f2 00BF     		.align	2
 4026              	.L202:
 4027 05f4 9C2D0200 		.word	142748
 4028 05f8 E42C0200 		.word	142564
 4029 05fc 00000000 		.word	0
 4030 0600 142D0200 		.word	142612
 4031 0604 00004041 		.word	1094713344
 4032 0608 40000200 		.word	131136
ARM GAS  /var/folders/v1/156fk8j97zv9pzndh61fy7zm0000gn/T//ccyHp6tG.s 			page 117


 4033 060c 9C0D0200 		.word	134556
 4034 0610 9A99193F 		.word	1058642330
 4035 0614 9A99593F 		.word	1062836634
 4036 0618 E40C0200 		.word	134372
 4037 061c CDCC4C3E 		.word	1045220557
 4038              	.LVL256:
 4039              	.L186:
 151:../temp_time_machine/DaisyExamples/DaisySP//Source/Effects/pitchshifter.h ****         {
 4040              		.loc 13 151 36 discriminator 1 view .LVU1150
 4041              	.LBE1187:
 4042              	.LBE1203:
 178:uber_fdn.h    ****         shimmers_[1].SetTransposition((warp - 0.2f) * 2.0f + 0.02f);
 4043              		.loc 9 178 45 view .LVU1151
 4044 0620 1FED028A 		vldr.32	s16, .L202+40
 4045 0624 00F50834 		add	r4, r0, #139264
 4046 0628 31EE488A 		vsub.f32	s16, s2, s16
 178:uber_fdn.h    ****         shimmers_[1].SetTransposition((warp - 0.2f) * 2.0f + 0.02f);
 4047              		.loc 9 178 53 view .LVU1152
 4048 062c 38EE088A 		vadd.f32	s16, s16, s16
 4049              	.LVL257:
 4050              	.LBB1204:
 4051              	.LBI1204:
 147:../temp_time_machine/DaisyExamples/DaisySP//Source/Effects/pitchshifter.h ****     {
 4052              		.loc 13 147 10 is_stmt 1 view .LVU1153
 4053              	.LBB1205:
 149:../temp_time_machine/DaisyExamples/DaisySP//Source/Effects/pitchshifter.h ****         uint8_t idx;
 4054              		.loc 13 149 9 view .LVU1154
 150:../temp_time_machine/DaisyExamples/DaisySP//Source/Effects/pitchshifter.h ****         if(transpose_ != transpose || force_recalc_)
 4055              		.loc 13 150 9 view .LVU1155
 151:../temp_time_machine/DaisyExamples/DaisySP//Source/Effects/pitchshifter.h ****         {
 4056              		.loc 13 151 9 view .LVU1156
 4057 0630 B4EE678A 		vcmp.f32	s16, s15
 4058 0634 F1EE10FA 		vmrs	APSR_nzcv, FPSCR
 4059 0638 00F0A681 		beq	.L187
 4060              	.LVL258:
 4061              	.L106:
 153:../temp_time_machine/DaisyExamples/DaisySP//Source/Effects/pitchshifter.h ****             idx        = (uint8_t)fabsf(transpose);
 4062              		.loc 13 153 13 view .LVU1157
 154:../temp_time_machine/DaisyExamples/DaisySP//Source/Effects/pitchshifter.h ****             ratio      = semitone_ratios_[idx % 12];
 4063              		.loc 13 154 40 is_stmt 0 view .LVU1158
 4064 063c F0EEC87A 		vabs.f32	s15, s16
 155:../temp_time_machine/DaisyExamples/DaisySP//Source/Effects/pitchshifter.h ****             ratio *= (uint8_t)(fabsf(transpose) / 12) + 1;
 4065              		.loc 13 155 47 view .LVU1159
 4066 0640 D948     		ldr	r0, .L204
 4067              	.LVL259:
 156:../temp_time_machine/DaisyExamples/DaisySP//Source/Effects/pitchshifter.h ****             if(transpose > 0.0f)
 4068              		.loc 13 156 49 view .LVU1160
 4069 0642 B2EE086A 		vmov.f32	s12, #1.2e+1
 153:../temp_time_machine/DaisyExamples/DaisySP//Source/Effects/pitchshifter.h ****             idx        = (uint8_t)fabsf(transpose);
 4070              		.loc 13 153 24 view .LVU1161
 4071 0646 03F6E443 		addw	r3, r3, #3300
 165:../temp_time_machine/DaisyExamples/DaisySP//Source/Effects/pitchshifter.h ****             if(mod_freq_ < 0.0f)
 4072              		.loc 13 165 33 view .LVU1162
 4073 064a BFEE007A 		vmov.f32	s14, #-1.0e+0
 4074 064e 9FEDD70A 		vldr.32	s0, .L204+4
 4075              	.LVL260:
 153:../temp_time_machine/DaisyExamples/DaisySP//Source/Effects/pitchshifter.h ****             idx        = (uint8_t)fabsf(transpose);
ARM GAS  /var/folders/v1/156fk8j97zv9pzndh61fy7zm0000gn/T//ccyHp6tG.s 			page 118


 4076              		.loc 13 153 24 view .LVU1163
 4077 0652 03F50039 		add	r9, r3, #131072
 157:../temp_time_machine/DaisyExamples/DaisySP//Source/Effects/pitchshifter.h ****             {
 4078              		.loc 13 157 13 view .LVU1164
 4079 0656 B5EEC08A 		vcmpe.f32	s16, #0
 156:../temp_time_machine/DaisyExamples/DaisySP//Source/Effects/pitchshifter.h ****             if(transpose > 0.0f)
 4080              		.loc 13 156 49 view .LVU1165
 4081 065a C7EE866A 		vdiv.f32	s13, s15, s12
 170:../temp_time_machine/DaisyExamples/DaisySP//Source/Effects/pitchshifter.h ****             phs_[1].SetFreq(mod_freq_);
 4082              		.loc 13 170 28 view .LVU1166
 4083 065e 42F6E44B 		movw	fp, #11492
 4084 0662 D344     		add	fp, fp, r10
 154:../temp_time_machine/DaisyExamples/DaisySP//Source/Effects/pitchshifter.h ****             ratio      = semitone_ratios_[idx % 12];
 4085              		.loc 13 154 24 view .LVU1167
 4086 0664 FCEEE77A 		vcvt.u32.f32	s15, s15
 157:../temp_time_machine/DaisyExamples/DaisySP//Source/Effects/pitchshifter.h ****             {
 4087              		.loc 13 157 13 view .LVU1168
 4088 0668 F1EE10FA 		vmrs	APSR_nzcv, FPSCR
 154:../temp_time_machine/DaisyExamples/DaisySP//Source/Effects/pitchshifter.h ****             ratio      = semitone_ratios_[idx % 12];
 4089              		.loc 13 154 24 view .LVU1169
 4090 066c CDED007A 		vstr.32	s15, [sp]	@ int
 155:../temp_time_machine/DaisyExamples/DaisySP//Source/Effects/pitchshifter.h ****             ratio *= (uint8_t)(fabsf(transpose) / 12) + 1;
 4091              		.loc 13 155 47 view .LVU1170
 4092 0670 9DF80020 		ldrb	r2, [sp]	@ zero_extendqisi2
 4093 0674 A0FB02C0 		umull	ip, r0, r0, r2
 4094 0678 4FEAD000 		lsr	r0, r0, #3
 4095 067c 00EB4000 		add	r0, r0, r0, lsl #1
 156:../temp_time_machine/DaisyExamples/DaisySP//Source/Effects/pitchshifter.h ****             if(transpose > 0.0f)
 4096              		.loc 13 156 22 view .LVU1171
 4097 0680 FCEEE67A 		vcvt.u32.f32	s15, s13
 165:../temp_time_machine/DaisyExamples/DaisySP//Source/Effects/pitchshifter.h ****             if(mod_freq_ < 0.0f)
 4098              		.loc 13 165 41 view .LVU1172
 4099 0684 D9ED0A6A 		vldr.32	s13, [r9, #40]
 155:../temp_time_machine/DaisyExamples/DaisySP//Source/Effects/pitchshifter.h ****             ratio *= (uint8_t)(fabsf(transpose) / 12) + 1;
 4100              		.loc 13 155 47 view .LVU1173
 4101 0688 A2EB8002 		sub	r2, r2, r0, lsl #2
 155:../temp_time_machine/DaisyExamples/DaisySP//Source/Effects/pitchshifter.h ****             ratio *= (uint8_t)(fabsf(transpose) / 12) + 1;
 4102              		.loc 13 155 24 view .LVU1174
 4103 068c 48F22200 		movw	r0, #32802
 4104 0690 50FA82F2 		uxtab	r2, r0, r2
 156:../temp_time_machine/DaisyExamples/DaisySP//Source/Effects/pitchshifter.h ****             if(transpose > 0.0f)
 4105              		.loc 13 156 22 view .LVU1175
 4106 0694 CDED017A 		vstr.32	s15, [sp, #4]	@ int
 170:../temp_time_machine/DaisyExamples/DaisySP//Source/Effects/pitchshifter.h ****             phs_[1].SetFreq(mod_freq_);
 4107              		.loc 13 170 28 view .LVU1176
 4108 0698 C548     		ldr	r0, .L204+8
 155:../temp_time_machine/DaisyExamples/DaisySP//Source/Effects/pitchshifter.h ****             ratio *= (uint8_t)(fabsf(transpose) / 12) + 1;
 4109              		.loc 13 155 24 view .LVU1177
 4110 069a 03EB8202 		add	r2, r3, r2, lsl #2
 165:../temp_time_machine/DaisyExamples/DaisySP//Source/Effects/pitchshifter.h ****             if(mod_freq_ < 0.0f)
 4111              		.loc 13 165 48 view .LVU1178
 4112 069e D4F8043D 		ldr	r3, [r4, #3332]
 170:../temp_time_machine/DaisyExamples/DaisySP//Source/Effects/pitchshifter.h ****             phs_[1].SetFreq(mod_freq_);
 4113              		.loc 13 170 28 view .LVU1179
 4114 06a2 5044     		add	r0, r0, r10
 155:../temp_time_machine/DaisyExamples/DaisySP//Source/Effects/pitchshifter.h ****             ratio *= (uint8_t)(fabsf(transpose) / 12) + 1;
 4115              		.loc 13 155 24 view .LVU1180
ARM GAS  /var/folders/v1/156fk8j97zv9pzndh61fy7zm0000gn/T//ccyHp6tG.s 			page 119


 4116 06a4 92ED006A 		vldr.32	s12, [r2]
 156:../temp_time_machine/DaisyExamples/DaisySP//Source/Effects/pitchshifter.h ****             if(transpose > 0.0f)
 4117              		.loc 13 156 22 view .LVU1181
 4118 06a8 9DF80420 		ldrb	r2, [sp, #4]	@ zero_extendqisi2
 153:../temp_time_machine/DaisyExamples/DaisySP//Source/Effects/pitchshifter.h ****             idx        = (uint8_t)fabsf(transpose);
 4119              		.loc 13 153 24 view .LVU1182
 4120 06ac 89ED188A 		vstr.32	s16, [r9, #96]
 154:../temp_time_machine/DaisyExamples/DaisySP//Source/Effects/pitchshifter.h ****             ratio      = semitone_ratios_[idx % 12];
 4121              		.loc 13 154 13 is_stmt 1 view .LVU1183
 4122              	.LVL261:
 155:../temp_time_machine/DaisyExamples/DaisySP//Source/Effects/pitchshifter.h ****             ratio *= (uint8_t)(fabsf(transpose) / 12) + 1;
 4123              		.loc 13 155 13 view .LVU1184
 156:../temp_time_machine/DaisyExamples/DaisySP//Source/Effects/pitchshifter.h ****             if(transpose > 0.0f)
 4124              		.loc 13 156 13 view .LVU1185
 157:../temp_time_machine/DaisyExamples/DaisySP//Source/Effects/pitchshifter.h ****             {
 4125              		.loc 13 157 13 view .LVU1186
 156:../temp_time_machine/DaisyExamples/DaisySP//Source/Effects/pitchshifter.h ****             if(transpose > 0.0f)
 4126              		.loc 13 156 55 is_stmt 0 view .LVU1187
 4127 06b0 02F10102 		add	r2, r2, #1
 156:../temp_time_machine/DaisyExamples/DaisySP//Source/Effects/pitchshifter.h ****             if(transpose > 0.0f)
 4128              		.loc 13 156 19 view .LVU1188
 4129 06b4 07EE902A 		vmov	s15, r2	@ int
 4130 06b8 F8EEE77A 		vcvt.f32.s32	s15, s15
 165:../temp_time_machine/DaisyExamples/DaisySP//Source/Effects/pitchshifter.h ****             if(mod_freq_ < 0.0f)
 4131              		.loc 13 165 33 view .LVU1189
 4132 06bc A6EE277A 		vfma.f32	s14, s12, s15
 165:../temp_time_machine/DaisyExamples/DaisySP//Source/Effects/pitchshifter.h ****             if(mod_freq_ < 0.0f)
 4133              		.loc 13 165 41 view .LVU1190
 4134 06c0 67EE267A 		vmul.f32	s15, s14, s13
 165:../temp_time_machine/DaisyExamples/DaisySP//Source/Effects/pitchshifter.h ****             if(mod_freq_ < 0.0f)
 4135              		.loc 13 165 48 view .LVU1191
 4136 06c4 07EE103A 		vmov	s14, r3	@ int
 157:../temp_time_machine/DaisyExamples/DaisySP//Source/Effects/pitchshifter.h ****             {
 4137              		.loc 13 157 13 view .LVU1192
 4138 06c8 CCBF     		ite	gt
 4139 06ca 0123     		movgt	r3, #1
 4140 06cc 0023     		movle	r3, #0
 165:../temp_time_machine/DaisyExamples/DaisySP//Source/Effects/pitchshifter.h ****             if(mod_freq_ < 0.0f)
 4141              		.loc 13 165 48 view .LVU1193
 4142 06ce B8EE477A 		vcvt.f32.u32	s14, s14
 157:../temp_time_machine/DaisyExamples/DaisySP//Source/Effects/pitchshifter.h ****             {
 4143              		.loc 13 157 13 view .LVU1194
 4144 06d2 84F8103D 		strb	r3, [r4, #3344]
 165:../temp_time_machine/DaisyExamples/DaisySP//Source/Effects/pitchshifter.h ****             if(mod_freq_ < 0.0f)
 4145              		.loc 13 165 13 is_stmt 1 view .LVU1195
 166:../temp_time_machine/DaisyExamples/DaisySP//Source/Effects/pitchshifter.h ****             {
 4146              		.loc 13 166 13 view .LVU1196
 165:../temp_time_machine/DaisyExamples/DaisySP//Source/Effects/pitchshifter.h ****             if(mod_freq_ < 0.0f)
 4147              		.loc 13 165 48 is_stmt 0 view .LVU1197
 4148 06d6 C7EE876A 		vdiv.f32	s13, s15, s14
 4149 06da F4EEC06A 		vcmpe.f32	s13, s0
 4150 06de F1EE10FA 		vmrs	APSR_nzcv, FPSCR
 4151 06e2 58BF     		it	pl
 4152 06e4 B0EE660A 		vmovpl.f32	s0, s13
 4153 06e8 89ED070A 		vstr.32	s0, [r9, #28]
 170:../temp_time_machine/DaisyExamples/DaisySP//Source/Effects/pitchshifter.h ****             phs_[1].SetFreq(mod_freq_);
 4154              		.loc 13 170 13 is_stmt 1 view .LVU1198
ARM GAS  /var/folders/v1/156fk8j97zv9pzndh61fy7zm0000gn/T//ccyHp6tG.s 			page 120


 170:../temp_time_machine/DaisyExamples/DaisySP//Source/Effects/pitchshifter.h ****             phs_[1].SetFreq(mod_freq_);
 4155              		.loc 13 170 28 is_stmt 0 view .LVU1199
 4156 06ec FFF7FEFF 		bl	_ZN7daisysp6Phasor7SetFreqEf
 4157              	.LVL262:
 171:../temp_time_machine/DaisyExamples/DaisySP//Source/Effects/pitchshifter.h ****             if(force_recalc_)
 4158              		.loc 13 171 13 is_stmt 1 view .LVU1200
 171:../temp_time_machine/DaisyExamples/DaisySP//Source/Effects/pitchshifter.h ****             if(force_recalc_)
 4159              		.loc 13 171 28 is_stmt 0 view .LVU1201
 4160 06f0 B048     		ldr	r0, .L204+12
 4161 06f2 99ED070A 		vldr.32	s0, [r9, #28]
 4162 06f6 5844     		add	r0, r0, fp
 4163 06f8 FFF7FEFF 		bl	_ZN7daisysp6Phasor7SetFreqEf
 4164              	.LVL263:
 172:../temp_time_machine/DaisyExamples/DaisySP//Source/Effects/pitchshifter.h ****             {
 4165              		.loc 13 172 13 is_stmt 1 view .LVU1202
 4166 06fc 94F8083D 		ldrb	r3, [r4, #3336]	@ zero_extendqisi2
 4167 0700 13B1     		cbz	r3, .L107
 4168              		.loc 13 174 17 view .LVU1203
 4169              		.loc 13 174 31 is_stmt 0 view .LVU1204
 4170 0702 0023     		movs	r3, #0
 4171 0704 84F8083D 		strb	r3, [r4, #3336]
 4172              	.LVL264:
 4173              	.L107:
 4174              		.loc 13 174 31 view .LVU1205
 4175              	.LBE1205:
 4176              	.LBE1204:
 4177              	.LBB1207:
 4178              	.LBB1208:
 151:../temp_time_machine/DaisyExamples/DaisySP//Source/Effects/pitchshifter.h ****         {
 4179              		.loc 13 151 12 view .LVU1206
 4180 0708 AB4B     		ldr	r3, .L204+16
 4181              	.LBE1208:
 4182              	.LBE1207:
 179:uber_fdn.h    ****         shift_mix = (warp < 0.4f) ? 0.5f : 0.0f;
 4183              		.loc 9 179 60 view .LVU1207
 4184 070a DFEDAC7A 		vldr.32	s15, .L204+20
 4185              	.LBB1212:
 4186              	.LBB1209:
 151:../temp_time_machine/DaisyExamples/DaisySP//Source/Effects/pitchshifter.h ****         {
 4187              		.loc 13 151 12 view .LVU1208
 4188 070e 2344     		add	r3, r3, r4
 4189              	.LBE1209:
 4190              	.LBE1212:
 179:uber_fdn.h    ****         shift_mix = (warp < 0.4f) ? 0.5f : 0.0f;
 4191              		.loc 9 179 60 view .LVU1209
 4192 0710 38EE278A 		vadd.f32	s16, s16, s15
 4193              	.LVL265:
 4194              	.LBB1213:
 4195              	.LBI1207:
 147:../temp_time_machine/DaisyExamples/DaisySP//Source/Effects/pitchshifter.h ****     {
 4196              		.loc 13 147 10 is_stmt 1 view .LVU1210
 4197              	.LBB1210:
 149:../temp_time_machine/DaisyExamples/DaisySP//Source/Effects/pitchshifter.h ****         uint8_t idx;
 4198              		.loc 13 149 9 view .LVU1211
 150:../temp_time_machine/DaisyExamples/DaisySP//Source/Effects/pitchshifter.h ****         if(transpose_ != transpose || force_recalc_)
 4199              		.loc 13 150 9 view .LVU1212
 151:../temp_time_machine/DaisyExamples/DaisySP//Source/Effects/pitchshifter.h ****         {
ARM GAS  /var/folders/v1/156fk8j97zv9pzndh61fy7zm0000gn/T//ccyHp6tG.s 			page 121


 4200              		.loc 13 151 9 view .LVU1213
 4201 0714 D3ED187A 		vldr.32	s15, [r3, #96]
 4202 0718 B4EE678A 		vcmp.f32	s16, s15
 4203 071c F1EE10FA 		vmrs	APSR_nzcv, FPSCR
 4204 0720 00F02C81 		beq	.L199
 4205              	.L109:
 153:../temp_time_machine/DaisyExamples/DaisySP//Source/Effects/pitchshifter.h ****             idx        = (uint8_t)fabsf(transpose);
 4206              		.loc 13 153 13 view .LVU1214
 154:../temp_time_machine/DaisyExamples/DaisySP//Source/Effects/pitchshifter.h ****             ratio      = semitone_ratios_[idx % 12];
 4207              		.loc 13 154 40 is_stmt 0 view .LVU1215
 4208 0724 F0EEC87A 		vabs.f32	s15, s16
 155:../temp_time_machine/DaisyExamples/DaisySP//Source/Effects/pitchshifter.h ****             ratio *= (uint8_t)(fabsf(transpose) / 12) + 1;
 4209              		.loc 13 155 47 view .LVU1216
 4210 0728 9F4A     		ldr	r2, .L204
 156:../temp_time_machine/DaisyExamples/DaisySP//Source/Effects/pitchshifter.h ****             if(transpose > 0.0f)
 4211              		.loc 13 156 49 view .LVU1217
 4212 072a B2EE086A 		vmov.f32	s12, #1.2e+1
 153:../temp_time_machine/DaisyExamples/DaisySP//Source/Effects/pitchshifter.h ****             idx        = (uint8_t)fabsf(transpose);
 4213              		.loc 13 153 24 view .LVU1218
 4214 072e 04F69C54 		addw	r4, r4, #3484
 165:../temp_time_machine/DaisyExamples/DaisySP//Source/Effects/pitchshifter.h ****             if(mod_freq_ < 0.0f)
 4215              		.loc 13 165 33 view .LVU1219
 4216 0732 BFEE007A 		vmov.f32	s14, #-1.0e+0
 4217 0736 9FED9D0A 		vldr.32	s0, .L204+4
 157:../temp_time_machine/DaisyExamples/DaisySP//Source/Effects/pitchshifter.h ****             {
 4218              		.loc 13 157 13 view .LVU1220
 4219 073a B5EEC08A 		vcmpe.f32	s16, #0
 170:../temp_time_machine/DaisyExamples/DaisySP//Source/Effects/pitchshifter.h ****             phs_[1].SetFreq(mod_freq_);
 4220              		.loc 13 170 28 view .LVU1221
 4221 073e DFF88C92 		ldr	r9, .L204+36
 156:../temp_time_machine/DaisyExamples/DaisySP//Source/Effects/pitchshifter.h ****             if(transpose > 0.0f)
 4222              		.loc 13 156 49 view .LVU1222
 4223 0742 C7EE866A 		vdiv.f32	s13, s15, s12
 170:../temp_time_machine/DaisyExamples/DaisySP//Source/Effects/pitchshifter.h ****             phs_[1].SetFreq(mod_freq_);
 4224              		.loc 13 170 28 view .LVU1223
 4225 0746 D144     		add	r9, r9, r10
 154:../temp_time_machine/DaisyExamples/DaisySP//Source/Effects/pitchshifter.h ****             ratio      = semitone_ratios_[idx % 12];
 4226              		.loc 13 154 24 view .LVU1224
 4227 0748 FCEEE77A 		vcvt.u32.f32	s15, s15
 157:../temp_time_machine/DaisyExamples/DaisySP//Source/Effects/pitchshifter.h ****             {
 4228              		.loc 13 157 13 view .LVU1225
 4229 074c F1EE10FA 		vmrs	APSR_nzcv, FPSCR
 154:../temp_time_machine/DaisyExamples/DaisySP//Source/Effects/pitchshifter.h ****             ratio      = semitone_ratios_[idx % 12];
 4230              		.loc 13 154 24 view .LVU1226
 4231 0750 CDED007A 		vstr.32	s15, [sp]	@ int
 155:../temp_time_machine/DaisyExamples/DaisySP//Source/Effects/pitchshifter.h ****             ratio *= (uint8_t)(fabsf(transpose) / 12) + 1;
 4232              		.loc 13 155 47 view .LVU1227
 4233 0754 9DF80030 		ldrb	r3, [sp]	@ zero_extendqisi2
 4234 0758 A2FB0302 		umull	r0, r2, r2, r3
 170:../temp_time_machine/DaisyExamples/DaisySP//Source/Effects/pitchshifter.h ****             phs_[1].SetFreq(mod_freq_);
 4235              		.loc 13 170 28 view .LVU1228
 4236 075c 9848     		ldr	r0, .L204+24
 155:../temp_time_machine/DaisyExamples/DaisySP//Source/Effects/pitchshifter.h ****             ratio *= (uint8_t)(fabsf(transpose) / 12) + 1;
 4237              		.loc 13 155 47 view .LVU1229
 4238 075e 4FEAD202 		lsr	r2, r2, #3
 170:../temp_time_machine/DaisyExamples/DaisySP//Source/Effects/pitchshifter.h ****             phs_[1].SetFreq(mod_freq_);
 4239              		.loc 13 170 28 view .LVU1230
ARM GAS  /var/folders/v1/156fk8j97zv9pzndh61fy7zm0000gn/T//ccyHp6tG.s 			page 122


 4240 0762 5044     		add	r0, r0, r10
 155:../temp_time_machine/DaisyExamples/DaisySP//Source/Effects/pitchshifter.h ****             ratio *= (uint8_t)(fabsf(transpose) / 12) + 1;
 4241              		.loc 13 155 47 view .LVU1231
 4242 0764 02EB4202 		add	r2, r2, r2, lsl #1
 156:../temp_time_machine/DaisyExamples/DaisySP//Source/Effects/pitchshifter.h ****             if(transpose > 0.0f)
 4243              		.loc 13 156 22 view .LVU1232
 4244 0768 FCEEE67A 		vcvt.u32.f32	s15, s13
 155:../temp_time_machine/DaisyExamples/DaisySP//Source/Effects/pitchshifter.h ****             ratio *= (uint8_t)(fabsf(transpose) / 12) + 1;
 4245              		.loc 13 155 47 view .LVU1233
 4246 076c A3EB8203 		sub	r3, r3, r2, lsl #2
 155:../temp_time_machine/DaisyExamples/DaisySP//Source/Effects/pitchshifter.h ****             ratio *= (uint8_t)(fabsf(transpose) / 12) + 1;
 4247              		.loc 13 155 24 view .LVU1234
 4248 0770 48F22202 		movw	r2, #32802
 4249 0774 52FA83F3 		uxtab	r3, r2, r3
 156:../temp_time_machine/DaisyExamples/DaisySP//Source/Effects/pitchshifter.h ****             if(transpose > 0.0f)
 4250              		.loc 13 156 22 view .LVU1235
 4251 0778 CDED017A 		vstr.32	s15, [sp, #4]	@ int
 155:../temp_time_machine/DaisyExamples/DaisySP//Source/Effects/pitchshifter.h ****             ratio *= (uint8_t)(fabsf(transpose) / 12) + 1;
 4252              		.loc 13 155 24 view .LVU1236
 4253 077c 04EB8303 		add	r3, r4, r3, lsl #2
 153:../temp_time_machine/DaisyExamples/DaisySP//Source/Effects/pitchshifter.h ****             idx        = (uint8_t)fabsf(transpose);
 4254              		.loc 13 153 24 view .LVU1237
 4255 0780 04F50034 		add	r4, r4, #131072
 155:../temp_time_machine/DaisyExamples/DaisySP//Source/Effects/pitchshifter.h ****             ratio *= (uint8_t)(fabsf(transpose) / 12) + 1;
 4256              		.loc 13 155 24 view .LVU1238
 4257 0784 93ED006A 		vldr.32	s12, [r3]
 156:../temp_time_machine/DaisyExamples/DaisySP//Source/Effects/pitchshifter.h ****             if(transpose > 0.0f)
 4258              		.loc 13 156 22 view .LVU1239
 4259 0788 9DF80430 		ldrb	r3, [sp, #4]	@ zero_extendqisi2
 165:../temp_time_machine/DaisyExamples/DaisySP//Source/Effects/pitchshifter.h ****             if(mod_freq_ < 0.0f)
 4260              		.loc 13 165 41 view .LVU1240
 4261 078c D4ED0A6A 		vldr.32	s13, [r4, #40]
 156:../temp_time_machine/DaisyExamples/DaisySP//Source/Effects/pitchshifter.h ****             if(transpose > 0.0f)
 4262              		.loc 13 156 55 view .LVU1241
 4263 0790 03F10103 		add	r3, r3, #1
 153:../temp_time_machine/DaisyExamples/DaisySP//Source/Effects/pitchshifter.h ****             idx        = (uint8_t)fabsf(transpose);
 4264              		.loc 13 153 24 view .LVU1242
 4265 0794 84ED188A 		vstr.32	s16, [r4, #96]
 154:../temp_time_machine/DaisyExamples/DaisySP//Source/Effects/pitchshifter.h ****             ratio      = semitone_ratios_[idx % 12];
 4266              		.loc 13 154 13 is_stmt 1 view .LVU1243
 4267              	.LVL266:
 155:../temp_time_machine/DaisyExamples/DaisySP//Source/Effects/pitchshifter.h ****             ratio *= (uint8_t)(fabsf(transpose) / 12) + 1;
 4268              		.loc 13 155 13 view .LVU1244
 156:../temp_time_machine/DaisyExamples/DaisySP//Source/Effects/pitchshifter.h ****             if(transpose > 0.0f)
 4269              		.loc 13 156 13 view .LVU1245
 157:../temp_time_machine/DaisyExamples/DaisySP//Source/Effects/pitchshifter.h ****             {
 4270              		.loc 13 157 13 view .LVU1246
 156:../temp_time_machine/DaisyExamples/DaisySP//Source/Effects/pitchshifter.h ****             if(transpose > 0.0f)
 4271              		.loc 13 156 19 is_stmt 0 view .LVU1247
 4272 0798 07EE903A 		vmov	s15, r3	@ int
 165:../temp_time_machine/DaisyExamples/DaisySP//Source/Effects/pitchshifter.h ****             if(mod_freq_ < 0.0f)
 4273              		.loc 13 165 48 view .LVU1248
 4274 079c D8F8BC3D 		ldr	r3, [r8, #3516]
 156:../temp_time_machine/DaisyExamples/DaisySP//Source/Effects/pitchshifter.h ****             if(transpose > 0.0f)
 4275              		.loc 13 156 19 view .LVU1249
 4276 07a0 F8EEE77A 		vcvt.f32.s32	s15, s15
 165:../temp_time_machine/DaisyExamples/DaisySP//Source/Effects/pitchshifter.h ****             if(mod_freq_ < 0.0f)
ARM GAS  /var/folders/v1/156fk8j97zv9pzndh61fy7zm0000gn/T//ccyHp6tG.s 			page 123


 4277              		.loc 13 165 33 view .LVU1250
 4278 07a4 A6EE277A 		vfma.f32	s14, s12, s15
 165:../temp_time_machine/DaisyExamples/DaisySP//Source/Effects/pitchshifter.h ****             if(mod_freq_ < 0.0f)
 4279              		.loc 13 165 41 view .LVU1251
 4280 07a8 67EE267A 		vmul.f32	s15, s14, s13
 165:../temp_time_machine/DaisyExamples/DaisySP//Source/Effects/pitchshifter.h ****             if(mod_freq_ < 0.0f)
 4281              		.loc 13 165 48 view .LVU1252
 4282 07ac 07EE103A 		vmov	s14, r3	@ int
 157:../temp_time_machine/DaisyExamples/DaisySP//Source/Effects/pitchshifter.h ****             {
 4283              		.loc 13 157 13 view .LVU1253
 4284 07b0 CCBF     		ite	gt
 4285 07b2 0123     		movgt	r3, #1
 4286 07b4 0023     		movle	r3, #0
 165:../temp_time_machine/DaisyExamples/DaisySP//Source/Effects/pitchshifter.h ****             if(mod_freq_ < 0.0f)
 4287              		.loc 13 165 48 view .LVU1254
 4288 07b6 B8EE477A 		vcvt.f32.u32	s14, s14
 157:../temp_time_machine/DaisyExamples/DaisySP//Source/Effects/pitchshifter.h ****             {
 4289              		.loc 13 157 13 view .LVU1255
 4290 07ba 88F8C83D 		strb	r3, [r8, #3528]
 165:../temp_time_machine/DaisyExamples/DaisySP//Source/Effects/pitchshifter.h ****             if(mod_freq_ < 0.0f)
 4291              		.loc 13 165 13 is_stmt 1 view .LVU1256
 166:../temp_time_machine/DaisyExamples/DaisySP//Source/Effects/pitchshifter.h ****             {
 4292              		.loc 13 166 13 view .LVU1257
 165:../temp_time_machine/DaisyExamples/DaisySP//Source/Effects/pitchshifter.h ****             if(mod_freq_ < 0.0f)
 4293              		.loc 13 165 48 is_stmt 0 view .LVU1258
 4294 07be C7EE876A 		vdiv.f32	s13, s15, s14
 4295 07c2 F4EEC06A 		vcmpe.f32	s13, s0
 4296 07c6 F1EE10FA 		vmrs	APSR_nzcv, FPSCR
 4297 07ca 58BF     		it	pl
 4298 07cc B0EE660A 		vmovpl.f32	s0, s13
 4299 07d0 84ED070A 		vstr.32	s0, [r4, #28]
 170:../temp_time_machine/DaisyExamples/DaisySP//Source/Effects/pitchshifter.h ****             phs_[1].SetFreq(mod_freq_);
 4300              		.loc 13 170 13 is_stmt 1 view .LVU1259
 170:../temp_time_machine/DaisyExamples/DaisySP//Source/Effects/pitchshifter.h ****             phs_[1].SetFreq(mod_freq_);
 4301              		.loc 13 170 28 is_stmt 0 view .LVU1260
 4302 07d4 FFF7FEFF 		bl	_ZN7daisysp6Phasor7SetFreqEf
 4303              	.LVL267:
 171:../temp_time_machine/DaisyExamples/DaisySP//Source/Effects/pitchshifter.h ****             if(force_recalc_)
 4304              		.loc 13 171 13 is_stmt 1 view .LVU1261
 171:../temp_time_machine/DaisyExamples/DaisySP//Source/Effects/pitchshifter.h ****             if(force_recalc_)
 4305              		.loc 13 171 28 is_stmt 0 view .LVU1262
 4306 07d8 7648     		ldr	r0, .L204+12
 4307 07da 94ED070A 		vldr.32	s0, [r4, #28]
 4308 07de 4844     		add	r0, r0, r9
 4309 07e0 FFF7FEFF 		bl	_ZN7daisysp6Phasor7SetFreqEf
 4310              	.LVL268:
 172:../temp_time_machine/DaisyExamples/DaisySP//Source/Effects/pitchshifter.h ****             {
 4311              		.loc 13 172 13 is_stmt 1 view .LVU1263
 4312 07e4 98F8C03D 		ldrb	r3, [r8, #3520]	@ zero_extendqisi2
 4313 07e8 13B1     		cbz	r3, .L110
 4314              		.loc 13 174 17 view .LVU1264
 4315              		.loc 13 174 31 is_stmt 0 view .LVU1265
 4316 07ea 0023     		movs	r3, #0
 4317 07ec 88F8C03D 		strb	r3, [r8, #3520]
 4318              	.LVL269:
 4319              	.L110:
 4320              		.loc 13 174 31 view .LVU1266
ARM GAS  /var/folders/v1/156fk8j97zv9pzndh61fy7zm0000gn/T//ccyHp6tG.s 			page 124


 4321              	.LBE1210:
 4322              	.LBE1213:
 180:uber_fdn.h    ****       }
 4323              		.loc 9 180 35 view .LVU1267
 4324 07f0 DFED747A 		vldr.32	s15, .L204+28
 4325 07f4 F4EEE79A 		vcmpe.f32	s19, s15
 4326 07f8 F1EE10FA 		vmrs	APSR_nzcv, FPSCR
 4327 07fc 40F1B880 		bpl	.L188
 180:uber_fdn.h    ****       }
 4328              		.loc 9 180 35 discriminator 1 view .LVU1268
 4329 0800 F6EE00AA 		vmov.f32	s21, #5.0e-1
 157:uber_fdn.h    **** 
 4330              		.loc 9 157 13 view .LVU1269
 4331 0804 9FED70AA 		vldr.32	s20, .L204+32
 4332 0808 15E4     		b	.L87
 4333              	.LVL270:
 4334              	.L91:
 4335              	.LBB1214:
 4336              	.LBB1190:
 153:../temp_time_machine/DaisyExamples/DaisySP//Source/Effects/pitchshifter.h ****             idx        = (uint8_t)fabsf(transpose);
 4337              		.loc 13 153 13 is_stmt 1 view .LVU1270
 153:../temp_time_machine/DaisyExamples/DaisySP//Source/Effects/pitchshifter.h ****             idx        = (uint8_t)fabsf(transpose);
 4338              		.loc 13 153 24 is_stmt 0 view .LVU1271
 4339 080a DFF8AC91 		ldr	r9, .L204+16
 165:../temp_time_machine/DaisyExamples/DaisySP//Source/Effects/pitchshifter.h ****             if(mod_freq_ < 0.0f)
 4340              		.loc 13 165 33 view .LVU1272
 4341 080e F0EE006A 		vmov.f32	s13, #2.0e+0
 4342 0812 FFEE007A 		vmov.f32	s15, #-1.0e+0
 165:../temp_time_machine/DaisyExamples/DaisySP//Source/Effects/pitchshifter.h ****             if(mod_freq_ < 0.0f)
 4343              		.loc 13 165 48 view .LVU1273
 4344 0816 D8F8BC3D 		ldr	r3, [r8, #3516]
 153:../temp_time_machine/DaisyExamples/DaisySP//Source/Effects/pitchshifter.h ****             idx        = (uint8_t)fabsf(transpose);
 4345              		.loc 13 153 24 view .LVU1274
 4346 081a A144     		add	r9, r9, r4
 4347 081c 9FED630A 		vldr.32	s0, .L204+4
 170:../temp_time_machine/DaisyExamples/DaisySP//Source/Effects/pitchshifter.h ****             phs_[1].SetFreq(mod_freq_);
 4348              		.loc 13 170 28 view .LVU1275
 4349 0820 6748     		ldr	r0, .L204+24
 155:../temp_time_machine/DaisyExamples/DaisySP//Source/Effects/pitchshifter.h ****             ratio *= (uint8_t)(fabsf(transpose) / 12) + 1;
 4350              		.loc 13 155 24 view .LVU1276
 4351 0822 99ED226A 		vldr.32	s12, [r9, #136]
 165:../temp_time_machine/DaisyExamples/DaisySP//Source/Effects/pitchshifter.h ****             if(mod_freq_ < 0.0f)
 4352              		.loc 13 165 41 view .LVU1277
 4353 0826 99ED0A7A 		vldr.32	s14, [r9, #40]
 170:../temp_time_machine/DaisyExamples/DaisySP//Source/Effects/pitchshifter.h ****             phs_[1].SetFreq(mod_freq_);
 4354              		.loc 13 170 28 view .LVU1278
 4355 082a 5044     		add	r0, r0, r10
 165:../temp_time_machine/DaisyExamples/DaisySP//Source/Effects/pitchshifter.h ****             if(mod_freq_ < 0.0f)
 4356              		.loc 13 165 33 view .LVU1279
 4357 082c E6EE267A 		vfma.f32	s15, s12, s13
 170:../temp_time_machine/DaisyExamples/DaisySP//Source/Effects/pitchshifter.h ****             phs_[1].SetFreq(mod_freq_);
 4358              		.loc 13 170 28 view .LVU1280
 4359 0830 664C     		ldr	r4, .L204+36
 4360 0832 5444     		add	r4, r4, r10
 165:../temp_time_machine/DaisyExamples/DaisySP//Source/Effects/pitchshifter.h ****             if(mod_freq_ < 0.0f)
 4361              		.loc 13 165 41 view .LVU1281
 4362 0834 67EE877A 		vmul.f32	s15, s15, s14
ARM GAS  /var/folders/v1/156fk8j97zv9pzndh61fy7zm0000gn/T//ccyHp6tG.s 			page 125


 165:../temp_time_machine/DaisyExamples/DaisySP//Source/Effects/pitchshifter.h ****             if(mod_freq_ < 0.0f)
 4363              		.loc 13 165 48 view .LVU1282
 4364 0838 07EE103A 		vmov	s14, r3	@ int
 153:../temp_time_machine/DaisyExamples/DaisySP//Source/Effects/pitchshifter.h ****             idx        = (uint8_t)fabsf(transpose);
 4365              		.loc 13 153 24 view .LVU1283
 4366 083c 644B     		ldr	r3, .L204+40
 165:../temp_time_machine/DaisyExamples/DaisySP//Source/Effects/pitchshifter.h ****             if(mod_freq_ < 0.0f)
 4367              		.loc 13 165 48 view .LVU1284
 4368 083e B8EE477A 		vcvt.f32.u32	s14, s14
 153:../temp_time_machine/DaisyExamples/DaisySP//Source/Effects/pitchshifter.h ****             idx        = (uint8_t)fabsf(transpose);
 4369              		.loc 13 153 24 view .LVU1285
 4370 0842 C9F86030 		str	r3, [r9, #96]	@ float
 154:../temp_time_machine/DaisyExamples/DaisySP//Source/Effects/pitchshifter.h ****             ratio      = semitone_ratios_[idx % 12];
 4371              		.loc 13 154 13 is_stmt 1 view .LVU1286
 4372              	.LVL271:
 155:../temp_time_machine/DaisyExamples/DaisySP//Source/Effects/pitchshifter.h ****             ratio *= (uint8_t)(fabsf(transpose) / 12) + 1;
 4373              		.loc 13 155 13 view .LVU1287
 156:../temp_time_machine/DaisyExamples/DaisySP//Source/Effects/pitchshifter.h ****             if(transpose > 0.0f)
 4374              		.loc 13 156 13 view .LVU1288
 157:../temp_time_machine/DaisyExamples/DaisySP//Source/Effects/pitchshifter.h ****             {
 4375              		.loc 13 157 13 view .LVU1289
 159:../temp_time_machine/DaisyExamples/DaisySP//Source/Effects/pitchshifter.h ****             }
 4376              		.loc 13 159 17 view .LVU1290
 159:../temp_time_machine/DaisyExamples/DaisySP//Source/Effects/pitchshifter.h ****             }
 4377              		.loc 13 159 27 is_stmt 0 view .LVU1291
 4378 0846 0123     		movs	r3, #1
 165:../temp_time_machine/DaisyExamples/DaisySP//Source/Effects/pitchshifter.h ****             if(mod_freq_ < 0.0f)
 4379              		.loc 13 165 48 view .LVU1292
 4380 0848 C7EE876A 		vdiv.f32	s13, s15, s14
 159:../temp_time_machine/DaisyExamples/DaisySP//Source/Effects/pitchshifter.h ****             }
 4381              		.loc 13 159 27 view .LVU1293
 4382 084c 88F8C83D 		strb	r3, [r8, #3528]
 165:../temp_time_machine/DaisyExamples/DaisySP//Source/Effects/pitchshifter.h ****             if(mod_freq_ < 0.0f)
 4383              		.loc 13 165 13 is_stmt 1 view .LVU1294
 166:../temp_time_machine/DaisyExamples/DaisySP//Source/Effects/pitchshifter.h ****             {
 4384              		.loc 13 166 13 view .LVU1295
 4385 0850 F4EEC06A 		vcmpe.f32	s13, s0
 4386 0854 F1EE10FA 		vmrs	APSR_nzcv, FPSCR
 4387 0858 58BF     		it	pl
 4388 085a B0EE660A 		vmovpl.f32	s0, s13
 4389 085e 89ED070A 		vstr.32	s0, [r9, #28]
 170:../temp_time_machine/DaisyExamples/DaisySP//Source/Effects/pitchshifter.h ****             phs_[1].SetFreq(mod_freq_);
 4390              		.loc 13 170 13 view .LVU1296
 170:../temp_time_machine/DaisyExamples/DaisySP//Source/Effects/pitchshifter.h ****             phs_[1].SetFreq(mod_freq_);
 4391              		.loc 13 170 28 is_stmt 0 view .LVU1297
 4392 0862 FFF7FEFF 		bl	_ZN7daisysp6Phasor7SetFreqEf
 4393              	.LVL272:
 171:../temp_time_machine/DaisyExamples/DaisySP//Source/Effects/pitchshifter.h ****             if(force_recalc_)
 4394              		.loc 13 171 13 is_stmt 1 view .LVU1298
 171:../temp_time_machine/DaisyExamples/DaisySP//Source/Effects/pitchshifter.h ****             if(force_recalc_)
 4395              		.loc 13 171 28 is_stmt 0 view .LVU1299
 4396 0866 5348     		ldr	r0, .L204+12
 4397 0868 99ED070A 		vldr.32	s0, [r9, #28]
 4398 086c 2044     		add	r0, r0, r4
 4399 086e FFF7FEFF 		bl	_ZN7daisysp6Phasor7SetFreqEf
 4400              	.LVL273:
 172:../temp_time_machine/DaisyExamples/DaisySP//Source/Effects/pitchshifter.h ****             {
ARM GAS  /var/folders/v1/156fk8j97zv9pzndh61fy7zm0000gn/T//ccyHp6tG.s 			page 126


 4401              		.loc 13 172 13 is_stmt 1 view .LVU1300
 4402 0872 98F8C03D 		ldrb	r3, [r8, #3520]	@ zero_extendqisi2
 4403 0876 002B     		cmp	r3, #0
 4404 0878 3FF421AE 		beq	.L92
 4405              		.loc 13 174 17 view .LVU1301
 4406              		.loc 13 174 31 is_stmt 0 view .LVU1302
 4407 087c 0023     		movs	r3, #0
 4408 087e 88F8C03D 		strb	r3, [r8, #3520]
 4409 0882 1CE6     		b	.L92
 4410              	.LVL274:
 4411              	.L96:
 4412              		.loc 13 174 31 view .LVU1303
 4413              	.LBE1190:
 4414              	.LBE1214:
 4415              	.LBB1215:
 147:../temp_time_machine/DaisyExamples/DaisySP//Source/Effects/pitchshifter.h ****     {
 4416              		.loc 13 147 10 is_stmt 1 view .LVU1304
 4417              	.LBB1200:
 149:../temp_time_machine/DaisyExamples/DaisySP//Source/Effects/pitchshifter.h ****         uint8_t idx;
 4418              		.loc 13 149 9 view .LVU1305
 150:../temp_time_machine/DaisyExamples/DaisySP//Source/Effects/pitchshifter.h ****         if(transpose_ != transpose || force_recalc_)
 4419              		.loc 13 150 9 view .LVU1306
 151:../temp_time_machine/DaisyExamples/DaisySP//Source/Effects/pitchshifter.h ****         {
 4420              		.loc 13 151 9 view .LVU1307
 4421 0884 B3EE037A 		vmov.f32	s14, #1.9e+1
 4422 0888 F4EE477A 		vcmp.f32	s15, s14
 4423 088c F1EE10FA 		vmrs	APSR_nzcv, FPSCR
 4424 0890 68D1     		bne	.L144
 151:../temp_time_machine/DaisyExamples/DaisySP//Source/Effects/pitchshifter.h ****         {
 4425              		.loc 13 151 39 is_stmt 0 discriminator 1 view .LVU1308
 4426 0892 00F50834 		add	r4, r0, #139264
 151:../temp_time_machine/DaisyExamples/DaisySP//Source/Effects/pitchshifter.h ****         {
 4427              		.loc 13 151 36 discriminator 1 view .LVU1309
 4428 0896 94F8082D 		ldrb	r2, [r4, #3336]	@ zero_extendqisi2
 4429              	.LVL275:
 151:../temp_time_machine/DaisyExamples/DaisySP//Source/Effects/pitchshifter.h ****         {
 4430              		.loc 13 151 36 discriminator 1 view .LVU1310
 4431 089a 002A     		cmp	r2, #0
 4432 089c 47D0     		beq	.L99
 4433 089e 0720     		movs	r0, #7
 4434              	.LVL276:
 4435              	.L97:
 153:../temp_time_machine/DaisyExamples/DaisySP//Source/Effects/pitchshifter.h ****             idx        = (uint8_t)fabsf(transpose);
 4436              		.loc 13 153 13 is_stmt 1 view .LVU1311
 155:../temp_time_machine/DaisyExamples/DaisySP//Source/Effects/pitchshifter.h ****             ratio *= (uint8_t)(fabsf(transpose) / 12) + 1;
 4437              		.loc 13 155 24 is_stmt 0 view .LVU1312
 4438 08a0 48F22202 		movw	r2, #32802
 153:../temp_time_machine/DaisyExamples/DaisySP//Source/Effects/pitchshifter.h ****             idx        = (uint8_t)fabsf(transpose);
 4439              		.loc 13 153 24 view .LVU1313
 4440 08a4 03F6E443 		addw	r3, r3, #3300
 165:../temp_time_machine/DaisyExamples/DaisySP//Source/Effects/pitchshifter.h ****             if(mod_freq_ < 0.0f)
 4441              		.loc 13 165 33 view .LVU1314
 4442 08a8 F0EE006A 		vmov.f32	s13, #2.0e+0
 4443 08ac 9FED3F0A 		vldr.32	s0, .L204+4
 4444              	.LVL277:
 155:../temp_time_machine/DaisyExamples/DaisySP//Source/Effects/pitchshifter.h ****             ratio *= (uint8_t)(fabsf(transpose) / 12) + 1;
 4445              		.loc 13 155 24 view .LVU1315
ARM GAS  /var/folders/v1/156fk8j97zv9pzndh61fy7zm0000gn/T//ccyHp6tG.s 			page 127


 4446 08b0 0244     		add	r2, r2, r0
 165:../temp_time_machine/DaisyExamples/DaisySP//Source/Effects/pitchshifter.h ****             if(mod_freq_ < 0.0f)
 4447              		.loc 13 165 33 view .LVU1316
 4448 08b2 BFEE007A 		vmov.f32	s14, #-1.0e+0
 153:../temp_time_machine/DaisyExamples/DaisySP//Source/Effects/pitchshifter.h ****             idx        = (uint8_t)fabsf(transpose);
 4449              		.loc 13 153 24 view .LVU1317
 4450 08b6 03F50039 		add	r9, r3, #131072
 170:../temp_time_machine/DaisyExamples/DaisySP//Source/Effects/pitchshifter.h ****             phs_[1].SetFreq(mod_freq_);
 4451              		.loc 13 170 28 view .LVU1318
 4452 08ba 3D48     		ldr	r0, .L204+8
 155:../temp_time_machine/DaisyExamples/DaisySP//Source/Effects/pitchshifter.h ****             ratio *= (uint8_t)(fabsf(transpose) / 12) + 1;
 4453              		.loc 13 155 24 view .LVU1319
 4454 08bc 03EB8202 		add	r2, r3, r2, lsl #2
 165:../temp_time_machine/DaisyExamples/DaisySP//Source/Effects/pitchshifter.h ****             if(mod_freq_ < 0.0f)
 4455              		.loc 13 165 48 view .LVU1320
 4456 08c0 D4F8043D 		ldr	r3, [r4, #3332]
 170:../temp_time_machine/DaisyExamples/DaisySP//Source/Effects/pitchshifter.h ****             phs_[1].SetFreq(mod_freq_);
 4457              		.loc 13 170 28 view .LVU1321
 4458 08c4 42F6E44B 		movw	fp, #11492
 4459 08c8 5044     		add	r0, r0, r10
 155:../temp_time_machine/DaisyExamples/DaisySP//Source/Effects/pitchshifter.h ****             ratio *= (uint8_t)(fabsf(transpose) / 12) + 1;
 4460              		.loc 13 155 24 view .LVU1322
 4461 08ca 92ED006A 		vldr.32	s12, [r2]
 153:../temp_time_machine/DaisyExamples/DaisySP//Source/Effects/pitchshifter.h ****             idx        = (uint8_t)fabsf(transpose);
 4462              		.loc 13 153 24 view .LVU1323
 4463 08ce C9ED187A 		vstr.32	s15, [r9, #96]
 154:../temp_time_machine/DaisyExamples/DaisySP//Source/Effects/pitchshifter.h ****             ratio      = semitone_ratios_[idx % 12];
 4464              		.loc 13 154 13 is_stmt 1 view .LVU1324
 4465              	.LVL278:
 155:../temp_time_machine/DaisyExamples/DaisySP//Source/Effects/pitchshifter.h ****             ratio *= (uint8_t)(fabsf(transpose) / 12) + 1;
 4466              		.loc 13 155 13 view .LVU1325
 156:../temp_time_machine/DaisyExamples/DaisySP//Source/Effects/pitchshifter.h ****             if(transpose > 0.0f)
 4467              		.loc 13 156 13 view .LVU1326
 157:../temp_time_machine/DaisyExamples/DaisySP//Source/Effects/pitchshifter.h ****             {
 4468              		.loc 13 157 13 view .LVU1327
 159:../temp_time_machine/DaisyExamples/DaisySP//Source/Effects/pitchshifter.h ****             }
 4469              		.loc 13 159 17 view .LVU1328
 170:../temp_time_machine/DaisyExamples/DaisySP//Source/Effects/pitchshifter.h ****             phs_[1].SetFreq(mod_freq_);
 4470              		.loc 13 170 28 is_stmt 0 view .LVU1329
 4471 08d2 D344     		add	fp, fp, r10
 165:../temp_time_machine/DaisyExamples/DaisySP//Source/Effects/pitchshifter.h ****             if(mod_freq_ < 0.0f)
 4472              		.loc 13 165 33 view .LVU1330
 4473 08d4 A6EE267A 		vfma.f32	s14, s12, s13
 165:../temp_time_machine/DaisyExamples/DaisySP//Source/Effects/pitchshifter.h ****             if(mod_freq_ < 0.0f)
 4474              		.loc 13 165 41 view .LVU1331
 4475 08d8 D9ED0A6A 		vldr.32	s13, [r9, #40]
 4476 08dc 67EE267A 		vmul.f32	s15, s14, s13
 165:../temp_time_machine/DaisyExamples/DaisySP//Source/Effects/pitchshifter.h ****             if(mod_freq_ < 0.0f)
 4477              		.loc 13 165 48 view .LVU1332
 4478 08e0 07EE103A 		vmov	s14, r3	@ int
 159:../temp_time_machine/DaisyExamples/DaisySP//Source/Effects/pitchshifter.h ****             }
 4479              		.loc 13 159 27 view .LVU1333
 4480 08e4 0123     		movs	r3, #1
 165:../temp_time_machine/DaisyExamples/DaisySP//Source/Effects/pitchshifter.h ****             if(mod_freq_ < 0.0f)
 4481              		.loc 13 165 48 view .LVU1334
 4482 08e6 B8EE477A 		vcvt.f32.u32	s14, s14
 159:../temp_time_machine/DaisyExamples/DaisySP//Source/Effects/pitchshifter.h ****             }
ARM GAS  /var/folders/v1/156fk8j97zv9pzndh61fy7zm0000gn/T//ccyHp6tG.s 			page 128


 4483              		.loc 13 159 27 view .LVU1335
 4484 08ea 84F8103D 		strb	r3, [r4, #3344]
 165:../temp_time_machine/DaisyExamples/DaisySP//Source/Effects/pitchshifter.h ****             if(mod_freq_ < 0.0f)
 4485              		.loc 13 165 13 is_stmt 1 view .LVU1336
 166:../temp_time_machine/DaisyExamples/DaisySP//Source/Effects/pitchshifter.h ****             {
 4486              		.loc 13 166 13 view .LVU1337
 165:../temp_time_machine/DaisyExamples/DaisySP//Source/Effects/pitchshifter.h ****             if(mod_freq_ < 0.0f)
 4487              		.loc 13 165 48 is_stmt 0 view .LVU1338
 4488 08ee C7EE876A 		vdiv.f32	s13, s15, s14
 4489 08f2 F4EEC06A 		vcmpe.f32	s13, s0
 4490 08f6 F1EE10FA 		vmrs	APSR_nzcv, FPSCR
 4491 08fa 58BF     		it	pl
 4492 08fc B0EE660A 		vmovpl.f32	s0, s13
 4493 0900 89ED070A 		vstr.32	s0, [r9, #28]
 170:../temp_time_machine/DaisyExamples/DaisySP//Source/Effects/pitchshifter.h ****             phs_[1].SetFreq(mod_freq_);
 4494              		.loc 13 170 13 is_stmt 1 view .LVU1339
 170:../temp_time_machine/DaisyExamples/DaisySP//Source/Effects/pitchshifter.h ****             phs_[1].SetFreq(mod_freq_);
 4495              		.loc 13 170 28 is_stmt 0 view .LVU1340
 4496 0904 FFF7FEFF 		bl	_ZN7daisysp6Phasor7SetFreqEf
 4497              	.LVL279:
 171:../temp_time_machine/DaisyExamples/DaisySP//Source/Effects/pitchshifter.h ****             if(force_recalc_)
 4498              		.loc 13 171 13 is_stmt 1 view .LVU1341
 171:../temp_time_machine/DaisyExamples/DaisySP//Source/Effects/pitchshifter.h ****             if(force_recalc_)
 4499              		.loc 13 171 28 is_stmt 0 view .LVU1342
 4500 0908 2A48     		ldr	r0, .L204+12
 4501 090a 99ED070A 		vldr.32	s0, [r9, #28]
 4502 090e 5844     		add	r0, r0, fp
 4503 0910 FFF7FEFF 		bl	_ZN7daisysp6Phasor7SetFreqEf
 4504              	.LVL280:
 172:../temp_time_machine/DaisyExamples/DaisySP//Source/Effects/pitchshifter.h ****             {
 4505              		.loc 13 172 13 is_stmt 1 view .LVU1343
 4506 0914 94F8083D 		ldrb	r3, [r4, #3336]	@ zero_extendqisi2
 4507 0918 13B1     		cbz	r3, .L100
 4508              		.loc 13 174 17 view .LVU1344
 4509              		.loc 13 174 31 is_stmt 0 view .LVU1345
 4510 091a 0023     		movs	r3, #0
 4511 091c 84F8083D 		strb	r3, [r4, #3336]
 4512              	.L100:
 4513              	.LVL281:
 4514              		.loc 13 174 31 view .LVU1346
 4515              	.LBE1200:
 4516              	.LBE1215:
 175:uber_fdn.h    ****       } else {
 4517              		.loc 9 175 52 view .LVU1347
 4518 0920 DFED2C7A 		vldr.32	s15, .L204+44
 4519 0924 F4EEE79A 		vcmpe.f32	s19, s15
 4520 0928 F1EE10FA 		vmrs	APSR_nzcv, FPSCR
 4521 092c 38DD     		ble	.L101
 4522              	.L99:
 175:uber_fdn.h    ****       } else {
 4523              		.loc 9 175 52 discriminator 1 view .LVU1348
 4524 092e DFED2A7A 		vldr.32	s15, .L204+48
 4525              	.L98:
 4526              	.LBB1216:
 4527              	.LBI1216:
 147:../temp_time_machine/DaisyExamples/DaisySP//Source/Effects/pitchshifter.h ****     {
 4528              		.loc 13 147 10 is_stmt 1 view .LVU1349
ARM GAS  /var/folders/v1/156fk8j97zv9pzndh61fy7zm0000gn/T//ccyHp6tG.s 			page 129


 4529              	.LVL282:
 4530              	.LBB1217:
 149:../temp_time_machine/DaisyExamples/DaisySP//Source/Effects/pitchshifter.h ****         uint8_t idx;
 4531              		.loc 13 149 9 view .LVU1350
 150:../temp_time_machine/DaisyExamples/DaisySP//Source/Effects/pitchshifter.h ****         if(transpose_ != transpose || force_recalc_)
 4532              		.loc 13 150 9 view .LVU1351
 151:../temp_time_machine/DaisyExamples/DaisySP//Source/Effects/pitchshifter.h ****         {
 4533              		.loc 13 151 9 view .LVU1352
 151:../temp_time_machine/DaisyExamples/DaisySP//Source/Effects/pitchshifter.h ****         {
 4534              		.loc 13 151 12 is_stmt 0 view .LVU1353
 4535 0932 214B     		ldr	r3, .L204+16
 4536 0934 2344     		add	r3, r3, r4
 151:../temp_time_machine/DaisyExamples/DaisySP//Source/Effects/pitchshifter.h ****         {
 4537              		.loc 13 151 9 view .LVU1354
 4538 0936 93ED187A 		vldr.32	s14, [r3, #96]
 4539 093a F4EE477A 		vcmp.f32	s15, s14
 4540 093e F1EE10FA 		vmrs	APSR_nzcv, FPSCR
 4541 0942 4FD1     		bne	.L103
 151:../temp_time_machine/DaisyExamples/DaisySP//Source/Effects/pitchshifter.h ****         {
 4542              		.loc 13 151 36 discriminator 1 view .LVU1355
 4543 0944 98F8C03D 		ldrb	r3, [r8, #3520]	@ zero_extendqisi2
 4544 0948 002B     		cmp	r3, #0
 4545 094a 4BD1     		bne	.L103
 4546              	.L104:
 4547              	.LBE1217:
 4548              	.LBE1216:
 173:uber_fdn.h    ****         shimmers_[0].SetTransposition(warp > 0.85f ? 19.0f : 12.0f);
 4549              		.loc 9 173 27 view .LVU1356
 4550 094c DFED23AA 		vldr.32	s21, .L204+52
 173:uber_fdn.h    ****         shimmers_[0].SetTransposition(warp > 0.85f ? 19.0f : 12.0f);
 4551              		.loc 9 173 19 view .LVU1357
 4552 0950 F0EE047A 		vmov.f32	s15, #2.5e+0
 157:uber_fdn.h    **** 
 4553              		.loc 9 157 13 view .LVU1358
 4554 0954 9FED1CAA 		vldr.32	s20, .L204+32
 173:uber_fdn.h    ****         shimmers_[0].SetTransposition(warp > 0.85f ? 19.0f : 12.0f);
 4555              		.loc 9 173 27 view .LVU1359
 4556 0958 79EEEAAA 		vsub.f32	s21, s19, s21
 173:uber_fdn.h    ****         shimmers_[0].SetTransposition(warp > 0.85f ? 19.0f : 12.0f);
 4557              		.loc 9 173 19 view .LVU1360
 4558 095c 6AEEA7AA 		vmul.f32	s21, s21, s15
 4559 0960 FFF769BB 		b	.L87
 4560              	.LVL283:
 4561              	.L144:
 174:uber_fdn.h    ****         shimmers_[1].SetTransposition(warp > 0.85f ? 19.02f : 12.02f);
 4562              		.loc 9 174 52 discriminator 1 view .LVU1361
 4563 0964 F0EE477A 		vmov.f32	s15, s14
 4564              	.LBB1219:
 4565              	.LBB1201:
 151:../temp_time_machine/DaisyExamples/DaisySP//Source/Effects/pitchshifter.h ****         {
 4566              		.loc 13 151 9 view .LVU1362
 4567 0968 0720     		movs	r0, #7
 4568              	.LVL284:
 151:../temp_time_machine/DaisyExamples/DaisySP//Source/Effects/pitchshifter.h ****         {
 4569              		.loc 13 151 9 view .LVU1363
 4570 096a 0AF50834 		add	r4, r10, #139264
 4571 096e 97E7     		b	.L97
ARM GAS  /var/folders/v1/156fk8j97zv9pzndh61fy7zm0000gn/T//ccyHp6tG.s 			page 130


 4572              	.LVL285:
 4573              	.L188:
 151:../temp_time_machine/DaisyExamples/DaisySP//Source/Effects/pitchshifter.h ****         {
 4574              		.loc 13 151 9 view .LVU1364
 4575              	.LBE1201:
 4576              	.LBE1219:
 157:uber_fdn.h    **** 
 4577              		.loc 9 157 13 view .LVU1365
 4578 0970 9FED15AA 		vldr.32	s20, .L204+32
 160:uber_fdn.h    ****     if (mode_ == MODE_SHIMMER) {
 4579              		.loc 9 160 11 view .LVU1366
 4580 0974 DFED0DAA 		vldr.32	s21, .L204+4
 4581 0978 FFF75DBB 		b	.L87
 4582              	.LVL286:
 4583              	.L199:
 4584              	.LBB1220:
 4585              	.LBB1211:
 151:../temp_time_machine/DaisyExamples/DaisySP//Source/Effects/pitchshifter.h ****         {
 4586              		.loc 13 151 36 discriminator 1 view .LVU1367
 4587 097c 98F8C03D 		ldrb	r3, [r8, #3520]	@ zero_extendqisi2
 4588 0980 002B     		cmp	r3, #0
 4589 0982 3FF435AF 		beq	.L110
 4590 0986 CDE6     		b	.L109
 4591              	.LVL287:
 4592              	.L187:
 151:../temp_time_machine/DaisyExamples/DaisySP//Source/Effects/pitchshifter.h ****         {
 4593              		.loc 13 151 36 discriminator 1 view .LVU1368
 4594              	.LBE1211:
 4595              	.LBE1220:
 4596              	.LBB1221:
 4597              	.LBB1206:
 4598 0988 94F8082D 		ldrb	r2, [r4, #3336]	@ zero_extendqisi2
 4599              	.LVL288:
 151:../temp_time_machine/DaisyExamples/DaisySP//Source/Effects/pitchshifter.h ****         {
 4600              		.loc 13 151 36 discriminator 1 view .LVU1369
 4601 098c 002A     		cmp	r2, #0
 4602 098e 3FF4BBAE 		beq	.L107
 4603 0992 53E6     		b	.L106
 4604              	.LVL289:
 4605              	.L142:
 151:../temp_time_machine/DaisyExamples/DaisySP//Source/Effects/pitchshifter.h ****         {
 4606              		.loc 13 151 36 discriminator 1 view .LVU1370
 4607              	.LBE1206:
 4608              	.LBE1221:
 174:uber_fdn.h    ****         shimmers_[1].SetTransposition(warp > 0.85f ? 19.02f : 12.02f);
 4609              		.loc 9 174 52 discriminator 2 view .LVU1371
 4610 0994 F0EE477A 		vmov.f32	s15, s14
 4611              	.LBB1222:
 4612              	.LBB1202:
 151:../temp_time_machine/DaisyExamples/DaisySP//Source/Effects/pitchshifter.h ****         {
 4613              		.loc 13 151 9 view .LVU1372
 4614 0998 0020     		movs	r0, #0
 4615              	.LVL290:
 151:../temp_time_machine/DaisyExamples/DaisySP//Source/Effects/pitchshifter.h ****         {
 4616              		.loc 13 151 9 view .LVU1373
 4617 099a 0AF50834 		add	r4, r10, #139264
 4618 099e 7FE7     		b	.L97
ARM GAS  /var/folders/v1/156fk8j97zv9pzndh61fy7zm0000gn/T//ccyHp6tG.s 			page 131


 4619              	.LVL291:
 4620              	.L101:
 151:../temp_time_machine/DaisyExamples/DaisySP//Source/Effects/pitchshifter.h ****         {
 4621              		.loc 13 151 9 view .LVU1374
 4622              	.LBE1202:
 4623              	.LBE1222:
 175:uber_fdn.h    ****       } else {
 4624              		.loc 9 175 52 discriminator 2 view .LVU1375
 4625 09a0 DFED0F7A 		vldr.32	s15, .L204+56
 4626 09a4 C5E7     		b	.L98
 4627              	.L205:
 4628 09a6 00BF     		.align	2
 4629              	.L204:
 4630 09a8 ABAAAAAA 		.word	-1431655765
 4631 09ac 00000000 		.word	0
 4632 09b0 142D0200 		.word	142612
 4633 09b4 40000200 		.word	131136
 4634 09b8 9C0D0200 		.word	134556
 4635 09bc 0AD7A33C 		.word	1017370378
 4636 09c0 CC2D0400 		.word	273868
 4637 09c4 CDCCCC3E 		.word	1053609165
 4638 09c8 0000C842 		.word	1120403456
 4639 09cc 9C2D0200 		.word	142748
 4640 09d0 00004041 		.word	1094713344
 4641 09d4 9A99593F 		.word	1062836634
 4642 09d8 F6289841 		.word	1100490998
 4643 09dc 9A99193F 		.word	1058642330
 4644 09e0 EC514041 		.word	1094734316
 4645              	.LVL292:
 4646              	.L103:
 4647              	.LBB1223:
 4648              	.LBB1218:
 153:../temp_time_machine/DaisyExamples/DaisySP//Source/Effects/pitchshifter.h ****             idx        = (uint8_t)fabsf(transpose);
 4649              		.loc 13 153 13 is_stmt 1 view .LVU1376
 156:../temp_time_machine/DaisyExamples/DaisySP//Source/Effects/pitchshifter.h ****             if(transpose > 0.0f)
 4650              		.loc 13 156 49 is_stmt 0 view .LVU1377
 4651 09e4 B2EE086A 		vmov.f32	s12, #1.2e+1
 155:../temp_time_machine/DaisyExamples/DaisySP//Source/Effects/pitchshifter.h ****             ratio *= (uint8_t)(fabsf(transpose) / 12) + 1;
 4652              		.loc 13 155 47 view .LVU1378
 4653 09e8 2E4A     		ldr	r2, .L206
 154:../temp_time_machine/DaisyExamples/DaisySP//Source/Effects/pitchshifter.h ****             ratio      = semitone_ratios_[idx % 12];
 4654              		.loc 13 154 24 view .LVU1379
 4655 09ea BCEEE77A 		vcvt.u32.f32	s14, s15
 153:../temp_time_machine/DaisyExamples/DaisySP//Source/Effects/pitchshifter.h ****             idx        = (uint8_t)fabsf(transpose);
 4656              		.loc 13 153 24 view .LVU1380
 4657 09ee 04F69C54 		addw	r4, r4, #3484
 4658 09f2 9FED2D0A 		vldr.32	s0, .L206+4
 156:../temp_time_machine/DaisyExamples/DaisySP//Source/Effects/pitchshifter.h ****             if(transpose > 0.0f)
 4659              		.loc 13 156 49 view .LVU1381
 4660 09f6 C7EE866A 		vdiv.f32	s13, s15, s12
 170:../temp_time_machine/DaisyExamples/DaisySP//Source/Effects/pitchshifter.h ****             phs_[1].SetFreq(mod_freq_);
 4661              		.loc 13 170 28 view .LVU1382
 4662 09fa DFF8B890 		ldr	r9, .L206+16
 154:../temp_time_machine/DaisyExamples/DaisySP//Source/Effects/pitchshifter.h ****             ratio      = semitone_ratios_[idx % 12];
 4663              		.loc 13 154 24 view .LVU1383
 4664 09fe 8DED007A 		vstr.32	s14, [sp]	@ int
 155:../temp_time_machine/DaisyExamples/DaisySP//Source/Effects/pitchshifter.h ****             ratio *= (uint8_t)(fabsf(transpose) / 12) + 1;
ARM GAS  /var/folders/v1/156fk8j97zv9pzndh61fy7zm0000gn/T//ccyHp6tG.s 			page 132


 4665              		.loc 13 155 47 view .LVU1384
 4666 0a02 9DF80030 		ldrb	r3, [sp]	@ zero_extendqisi2
 170:../temp_time_machine/DaisyExamples/DaisySP//Source/Effects/pitchshifter.h ****             phs_[1].SetFreq(mod_freq_);
 4667              		.loc 13 170 28 view .LVU1385
 4668 0a06 D144     		add	r9, r9, r10
 155:../temp_time_machine/DaisyExamples/DaisySP//Source/Effects/pitchshifter.h ****             ratio *= (uint8_t)(fabsf(transpose) / 12) + 1;
 4669              		.loc 13 155 47 view .LVU1386
 4670 0a08 A2FB0302 		umull	r0, r2, r2, r3
 170:../temp_time_machine/DaisyExamples/DaisySP//Source/Effects/pitchshifter.h ****             phs_[1].SetFreq(mod_freq_);
 4671              		.loc 13 170 28 view .LVU1387
 4672 0a0c 2748     		ldr	r0, .L206+8
 165:../temp_time_machine/DaisyExamples/DaisySP//Source/Effects/pitchshifter.h ****             if(mod_freq_ < 0.0f)
 4673              		.loc 13 165 33 view .LVU1388
 4674 0a0e BFEE007A 		vmov.f32	s14, #-1.0e+0
 155:../temp_time_machine/DaisyExamples/DaisySP//Source/Effects/pitchshifter.h ****             ratio *= (uint8_t)(fabsf(transpose) / 12) + 1;
 4675              		.loc 13 155 47 view .LVU1389
 4676 0a12 D208     		lsrs	r2, r2, #3
 170:../temp_time_machine/DaisyExamples/DaisySP//Source/Effects/pitchshifter.h ****             phs_[1].SetFreq(mod_freq_);
 4677              		.loc 13 170 28 view .LVU1390
 4678 0a14 5044     		add	r0, r0, r10
 155:../temp_time_machine/DaisyExamples/DaisySP//Source/Effects/pitchshifter.h ****             ratio *= (uint8_t)(fabsf(transpose) / 12) + 1;
 4679              		.loc 13 155 47 view .LVU1391
 4680 0a16 02EB4202 		add	r2, r2, r2, lsl #1
 4681 0a1a A3EB8203 		sub	r3, r3, r2, lsl #2
 155:../temp_time_machine/DaisyExamples/DaisySP//Source/Effects/pitchshifter.h ****             ratio *= (uint8_t)(fabsf(transpose) / 12) + 1;
 4682              		.loc 13 155 24 view .LVU1392
 4683 0a1e 48F22202 		movw	r2, #32802
 4684 0a22 52FA83F3 		uxtab	r3, r2, r3
 4685 0a26 04EB8303 		add	r3, r4, r3, lsl #2
 153:../temp_time_machine/DaisyExamples/DaisySP//Source/Effects/pitchshifter.h ****             idx        = (uint8_t)fabsf(transpose);
 4686              		.loc 13 153 24 view .LVU1393
 4687 0a2a 04F50034 		add	r4, r4, #131072
 156:../temp_time_machine/DaisyExamples/DaisySP//Source/Effects/pitchshifter.h ****             if(transpose > 0.0f)
 4688              		.loc 13 156 22 view .LVU1394
 4689 0a2e FCEEE66A 		vcvt.u32.f32	s13, s13
 155:../temp_time_machine/DaisyExamples/DaisySP//Source/Effects/pitchshifter.h ****             ratio *= (uint8_t)(fabsf(transpose) / 12) + 1;
 4690              		.loc 13 155 24 view .LVU1395
 4691 0a32 93ED006A 		vldr.32	s12, [r3]
 153:../temp_time_machine/DaisyExamples/DaisySP//Source/Effects/pitchshifter.h ****             idx        = (uint8_t)fabsf(transpose);
 4692              		.loc 13 153 24 view .LVU1396
 4693 0a36 C4ED187A 		vstr.32	s15, [r4, #96]
 156:../temp_time_machine/DaisyExamples/DaisySP//Source/Effects/pitchshifter.h ****             if(transpose > 0.0f)
 4694              		.loc 13 156 22 view .LVU1397
 4695 0a3a CDED016A 		vstr.32	s13, [sp, #4]	@ int
 4696 0a3e 9DF80430 		ldrb	r3, [sp, #4]	@ zero_extendqisi2
 165:../temp_time_machine/DaisyExamples/DaisySP//Source/Effects/pitchshifter.h ****             if(mod_freq_ < 0.0f)
 4697              		.loc 13 165 41 view .LVU1398
 4698 0a42 D4ED0A6A 		vldr.32	s13, [r4, #40]
 154:../temp_time_machine/DaisyExamples/DaisySP//Source/Effects/pitchshifter.h ****             ratio      = semitone_ratios_[idx % 12];
 4699              		.loc 13 154 13 is_stmt 1 view .LVU1399
 4700              	.LVL293:
 155:../temp_time_machine/DaisyExamples/DaisySP//Source/Effects/pitchshifter.h ****             ratio *= (uint8_t)(fabsf(transpose) / 12) + 1;
 4701              		.loc 13 155 13 view .LVU1400
 156:../temp_time_machine/DaisyExamples/DaisySP//Source/Effects/pitchshifter.h ****             if(transpose > 0.0f)
 4702              		.loc 13 156 13 view .LVU1401
 157:../temp_time_machine/DaisyExamples/DaisySP//Source/Effects/pitchshifter.h ****             {
 4703              		.loc 13 157 13 view .LVU1402
ARM GAS  /var/folders/v1/156fk8j97zv9pzndh61fy7zm0000gn/T//ccyHp6tG.s 			page 133


 159:../temp_time_machine/DaisyExamples/DaisySP//Source/Effects/pitchshifter.h ****             }
 4704              		.loc 13 159 17 view .LVU1403
 156:../temp_time_machine/DaisyExamples/DaisySP//Source/Effects/pitchshifter.h ****             if(transpose > 0.0f)
 4705              		.loc 13 156 55 is_stmt 0 view .LVU1404
 4706 0a46 0133     		adds	r3, r3, #1
 156:../temp_time_machine/DaisyExamples/DaisySP//Source/Effects/pitchshifter.h ****             if(transpose > 0.0f)
 4707              		.loc 13 156 19 view .LVU1405
 4708 0a48 07EE903A 		vmov	s15, r3	@ int
 165:../temp_time_machine/DaisyExamples/DaisySP//Source/Effects/pitchshifter.h ****             if(mod_freq_ < 0.0f)
 4709              		.loc 13 165 48 view .LVU1406
 4710 0a4c D8F8BC3D 		ldr	r3, [r8, #3516]
 156:../temp_time_machine/DaisyExamples/DaisySP//Source/Effects/pitchshifter.h ****             if(transpose > 0.0f)
 4711              		.loc 13 156 19 view .LVU1407
 4712 0a50 F8EEE77A 		vcvt.f32.s32	s15, s15
 165:../temp_time_machine/DaisyExamples/DaisySP//Source/Effects/pitchshifter.h ****             if(mod_freq_ < 0.0f)
 4713              		.loc 13 165 33 view .LVU1408
 4714 0a54 A6EE277A 		vfma.f32	s14, s12, s15
 165:../temp_time_machine/DaisyExamples/DaisySP//Source/Effects/pitchshifter.h ****             if(mod_freq_ < 0.0f)
 4715              		.loc 13 165 41 view .LVU1409
 4716 0a58 67EE267A 		vmul.f32	s15, s14, s13
 165:../temp_time_machine/DaisyExamples/DaisySP//Source/Effects/pitchshifter.h ****             if(mod_freq_ < 0.0f)
 4717              		.loc 13 165 48 view .LVU1410
 4718 0a5c 07EE103A 		vmov	s14, r3	@ int
 159:../temp_time_machine/DaisyExamples/DaisySP//Source/Effects/pitchshifter.h ****             }
 4719              		.loc 13 159 27 view .LVU1411
 4720 0a60 0123     		movs	r3, #1
 165:../temp_time_machine/DaisyExamples/DaisySP//Source/Effects/pitchshifter.h ****             if(mod_freq_ < 0.0f)
 4721              		.loc 13 165 48 view .LVU1412
 4722 0a62 B8EE477A 		vcvt.f32.u32	s14, s14
 159:../temp_time_machine/DaisyExamples/DaisySP//Source/Effects/pitchshifter.h ****             }
 4723              		.loc 13 159 27 view .LVU1413
 4724 0a66 88F8C83D 		strb	r3, [r8, #3528]
 165:../temp_time_machine/DaisyExamples/DaisySP//Source/Effects/pitchshifter.h ****             if(mod_freq_ < 0.0f)
 4725              		.loc 13 165 13 is_stmt 1 view .LVU1414
 166:../temp_time_machine/DaisyExamples/DaisySP//Source/Effects/pitchshifter.h ****             {
 4726              		.loc 13 166 13 view .LVU1415
 165:../temp_time_machine/DaisyExamples/DaisySP//Source/Effects/pitchshifter.h ****             if(mod_freq_ < 0.0f)
 4727              		.loc 13 165 48 is_stmt 0 view .LVU1416
 4728 0a6a C7EE876A 		vdiv.f32	s13, s15, s14
 4729 0a6e F4EEC06A 		vcmpe.f32	s13, s0
 4730 0a72 F1EE10FA 		vmrs	APSR_nzcv, FPSCR
 4731 0a76 58BF     		it	pl
 4732 0a78 B0EE660A 		vmovpl.f32	s0, s13
 4733 0a7c 84ED070A 		vstr.32	s0, [r4, #28]
 170:../temp_time_machine/DaisyExamples/DaisySP//Source/Effects/pitchshifter.h ****             phs_[1].SetFreq(mod_freq_);
 4734              		.loc 13 170 13 is_stmt 1 view .LVU1417
 170:../temp_time_machine/DaisyExamples/DaisySP//Source/Effects/pitchshifter.h ****             phs_[1].SetFreq(mod_freq_);
 4735              		.loc 13 170 28 is_stmt 0 view .LVU1418
 4736 0a80 FFF7FEFF 		bl	_ZN7daisysp6Phasor7SetFreqEf
 4737              	.LVL294:
 171:../temp_time_machine/DaisyExamples/DaisySP//Source/Effects/pitchshifter.h ****             if(force_recalc_)
 4738              		.loc 13 171 13 is_stmt 1 view .LVU1419
 171:../temp_time_machine/DaisyExamples/DaisySP//Source/Effects/pitchshifter.h ****             if(force_recalc_)
 4739              		.loc 13 171 28 is_stmt 0 view .LVU1420
 4740 0a84 0A48     		ldr	r0, .L206+12
 4741 0a86 94ED070A 		vldr.32	s0, [r4, #28]
 4742 0a8a 4844     		add	r0, r0, r9
ARM GAS  /var/folders/v1/156fk8j97zv9pzndh61fy7zm0000gn/T//ccyHp6tG.s 			page 134


 4743 0a8c FFF7FEFF 		bl	_ZN7daisysp6Phasor7SetFreqEf
 4744              	.LVL295:
 172:../temp_time_machine/DaisyExamples/DaisySP//Source/Effects/pitchshifter.h ****             {
 4745              		.loc 13 172 13 is_stmt 1 view .LVU1421
 4746 0a90 98F8C03D 		ldrb	r3, [r8, #3520]	@ zero_extendqisi2
 4747 0a94 002B     		cmp	r3, #0
 4748 0a96 3FF459AF 		beq	.L104
 4749              		.loc 13 174 17 view .LVU1422
 4750              		.loc 13 174 31 is_stmt 0 view .LVU1423
 4751 0a9a 0023     		movs	r3, #0
 4752 0a9c 88F8C03D 		strb	r3, [r8, #3520]
 4753 0aa0 54E7     		b	.L104
 4754              	.L207:
 4755 0aa2 00BF     		.align	2
 4756              	.L206:
 4757 0aa4 ABAAAAAA 		.word	-1431655765
 4758 0aa8 00000000 		.word	0
 4759 0aac CC2D0400 		.word	273868
 4760 0ab0 40000200 		.word	131136
 4761 0ab4 9C2D0200 		.word	142748
 4762              	.LBE1218:
 4763              	.LBE1223:
 4764              		.cfi_endproc
 4765              	.LFE5310:
 4767              		.section	.text._Z17AudioCallbackRealPKPKfPPfj,"ax",%progbits
 4768              		.align	1
 4769              		.p2align 2,,3
 4770              		.global	_Z17AudioCallbackRealPKPKfPPfj
 4771              		.syntax unified
 4772              		.thumb
 4773              		.thumb_func
 4775              	_Z17AudioCallbackRealPKPKfPPfj:
 4776              	.LVL296:
 4777              	.LFB4990:
  22:main.cpp      **** 
  23:main.cpp      **** // --- Engines ---
  24:main.cpp      **** UberFDN<8> fdn_engine;
  25:main.cpp      **** OmniResonatorEngine res_engine;
  26:main.cpp      **** oam::legacy::LegacyStereoEngine legacy_engine;
  27:main.cpp      **** 
  28:main.cpp      **** // --- State ---
  29:main.cpp      **** enum AppMode {
  30:main.cpp      ****   APP_STUDIO,
  31:main.cpp      ****   APP_SHIMMER,
  32:main.cpp      ****   APP_MASSIVE,
  33:main.cpp      ****   APP_RESONATOR,
  34:main.cpp      ****   APP_LEGACY
  35:main.cpp      **** };
  36:main.cpp      **** AppMode current_mode = APP_STUDIO;
  37:main.cpp      **** 
  38:main.cpp      **** // Controls
  39:main.cpp      **** float gains[8];
  40:main.cpp      **** float vcas[9] = {1, 1, 1, 1, 1, 1, 1, 1, 1}; // Dummy for legacy
  41:main.cpp      **** float sliders_raw[8];
  42:main.cpp      **** float dry_mix;
  43:main.cpp      **** 
  44:main.cpp      **** // Global Control Vars
ARM GAS  /var/folders/v1/156fk8j97zv9pzndh61fy7zm0000gn/T//ccyHp6tG.s 			page 135


  45:main.cpp      **** float k_time, k_mod, k_decay;
  46:main.cpp      **** 
  47:main.cpp      **** void AudioCallbackReal(AudioHandle::InputBuffer in,
  48:main.cpp      ****                        AudioHandle::OutputBuffer out, size_t size) {
 4778              		.loc 1 48 68 is_stmt 1 view -0
 4779              		.cfi_startproc
 4780              		@ args = 0, pretend = 0, frame = 8
 4781              		@ frame_needed = 0, uses_anonymous_args = 0
  49:main.cpp      ****   const float *in_l = in[0];
 4782              		.loc 1 49 3 view .LVU1425
 4783              	.LBB1235:
  50:main.cpp      ****   const float *in_r = in[1];
  51:main.cpp      ****   float *out_l = out[0];
  52:main.cpp      ****   float *out_r = out[1];
  53:main.cpp      **** 
  54:main.cpp      ****   if (current_mode == APP_RESONATOR) {
 4784              		.loc 1 54 20 is_stmt 0 view .LVU1426
 4785 0000 624B     		ldr	r3, .L232
 4786              	.LBE1235:
  48:main.cpp      ****   const float *in_l = in[0];
 4787              		.loc 1 48 68 view .LVU1427
 4788 0002 2DE9F04F 		push	{r4, r5, r6, r7, r8, r9, r10, fp, lr}
 4789              		.cfi_def_cfa_offset 36
 4790              		.cfi_offset 4, -36
 4791              		.cfi_offset 5, -32
 4792              		.cfi_offset 6, -28
 4793              		.cfi_offset 7, -24
 4794              		.cfi_offset 8, -20
 4795              		.cfi_offset 9, -16
 4796              		.cfi_offset 10, -12
 4797              		.cfi_offset 11, -8
 4798              		.cfi_offset 14, -4
 4799              	.LBB1245:
 4800              		.loc 1 54 20 view .LVU1428
 4801 0006 1B78     		ldrb	r3, [r3]	@ zero_extendqisi2
 4802              	.LBE1245:
  48:main.cpp      ****   const float *in_l = in[0];
 4803              		.loc 1 48 68 view .LVU1429
 4804 0008 0F46     		mov	r7, r1
 4805 000a 87B0     		sub	sp, sp, #28
 4806              		.cfi_def_cfa_offset 64
  48:main.cpp      ****   const float *in_l = in[0];
 4807              		.loc 1 48 68 view .LVU1430
 4808 000c 8046     		mov	r8, r0
 4809 000e 1646     		mov	r6, r2
 4810              	.LBB1246:
 4811              		.loc 1 54 3 view .LVU1431
 4812 0010 032B     		cmp	r3, #3
 4813              	.LBE1246:
  52:main.cpp      **** 
 4814              		.loc 1 52 10 view .LVU1432
 4815 0012 7D68     		ldr	r5, [r7, #4]
  50:main.cpp      ****   const float *in_r = in[1];
 4816              		.loc 1 50 16 view .LVU1433
 4817 0014 D0E90012 		ldrd	r1, r2, [r0]
 4818              	.LVL297:
  51:main.cpp      ****   float *out_r = out[1];
ARM GAS  /var/folders/v1/156fk8j97zv9pzndh61fy7zm0000gn/T//ccyHp6tG.s 			page 136


 4819              		.loc 1 51 3 is_stmt 1 view .LVU1434
  51:main.cpp      ****   float *out_r = out[1];
 4820              		.loc 1 51 10 is_stmt 0 view .LVU1435
 4821 0018 3868     		ldr	r0, [r7]
 4822              	.LVL298:
  51:main.cpp      ****   float *out_r = out[1];
 4823              		.loc 1 51 10 view .LVU1436
 4824 001a 0590     		str	r0, [sp, #20]
 4825              	.LVL299:
  52:main.cpp      **** 
 4826              		.loc 1 52 3 is_stmt 1 view .LVU1437
 4827              		.loc 1 54 3 view .LVU1438
 4828              	.LBB1247:
 4829 001c 75D0     		beq	.L230
 4830              	.LBE1247:
  55:main.cpp      ****     res_engine.ProcessBlock(in_l, in_r, out_l, out_r, size, gains, k_time,
  56:main.cpp      ****                             k_mod, k_decay);
  57:main.cpp      ****     for (size_t i = 0; i < size; i++) {
  58:main.cpp      ****       out[0][i] = (out_l[i] * (1.0f - dry_mix)) + (in[0][i] * dry_mix);
  59:main.cpp      ****       out[1][i] = (out_r[i] * (1.0f - dry_mix)) + (in[1][i] * dry_mix);
  60:main.cpp      ****     }
  61:main.cpp      ****   } else if (current_mode == APP_LEGACY) {
 4831              		.loc 1 61 10 view .LVU1439
 4832              	.LBB1248:
 4833              	.LBB1236:
 4834 001e 042B     		cmp	r3, #4
 4835 0020 43D0     		beq	.L231
 4836              	.LBB1237:
  62:main.cpp      ****     // Update legacy controls block-rate (or frame rate, acceptable)
  63:main.cpp      ****     // Note: For best quality we'd do it per sample but legacy impl did it per
  64:main.cpp      ****     // blockish We defer control update to main loop, passed via globals? We'll
  65:main.cpp      ****     // trust the main loop called UpdateControls.
  66:main.cpp      ****     legacy_engine.ProcessBlock(in_l, in_r, out_l, out_r, size);
  67:main.cpp      ****     for (size_t i = 0; i < size; i++) {
  68:main.cpp      ****       out[0][i] = out_l[i];
  69:main.cpp      ****       out[1][i] = out_r[i];
  70:main.cpp      ****     }
  71:main.cpp      ****   } else {
  72:main.cpp      ****     // FDN Modes
  73:main.cpp      ****     fdn_engine.ProcessBlock(in_l, in_r, out_l, out_r, size, gains,
 4837              		.loc 1 73 5 view .LVU1440
  74:main.cpp      ****                             0.2f + (k_time * 3.0f), 0.5f, k_mod);
 4838              		.loc 1 74 44 is_stmt 0 view .LVU1441
 4839 0022 5B4B     		ldr	r3, .L232+4
  73:main.cpp      ****                             0.2f + (k_time * 3.0f), 0.5f, k_mod);
 4840              		.loc 1 73 28 view .LVU1442
 4841 0024 F0EE087A 		vmov.f32	s15, #3.0e+0
 4842 0028 9FED5A0A 		vldr.32	s0, .L232+8
 4843 002c F6EE000A 		vmov.f32	s1, #5.0e-1
 4844 0030 059C     		ldr	r4, [sp, #20]
 4845 0032 5948     		ldr	r0, .L232+12
 4846              	.LVL300:
  73:main.cpp      ****                             0.2f + (k_time * 3.0f), 0.5f, k_mod);
 4847              		.loc 1 73 28 view .LVU1443
 4848 0034 CDE90056 		strd	r5, r6, [sp]
 4849 0038 93ED007A 		vldr.32	s14, [r3]
 4850 003c 574B     		ldr	r3, .L232+16
ARM GAS  /var/folders/v1/156fk8j97zv9pzndh61fy7zm0000gn/T//ccyHp6tG.s 			page 137


 4851 003e A7EE270A 		vfma.f32	s0, s14, s15
 4852 0042 93ED001A 		vldr.32	s2, [r3]
 4853 0046 564B     		ldr	r3, .L232+20
 4854 0048 0293     		str	r3, [sp, #8]
 4855 004a 2346     		mov	r3, r4
 4856 004c FFF7FEFF 		bl	_ZN7UberFDNILi8EE12ProcessBlockEPKfS2_PfS3_jS2_fff
 4857              	.LVL301:
  75:main.cpp      **** 
  76:main.cpp      ****     for (size_t i = 0; i < size; i++) {
 4858              		.loc 1 76 5 is_stmt 1 view .LVU1444
 4859              	.LBB1238:
 4860              		.loc 1 76 26 discriminator 1 view .LVU1445
 4861 0050 46B3     		cbz	r6, .L208
 4862 0052 2346     		mov	r3, r4
 4863 0054 5349     		ldr	r1, .L232+24
 4864 0056 2C46     		mov	r4, r5
 4865              	.LVL302:
 4866              		.loc 1 76 26 is_stmt 0 discriminator 1 view .LVU1446
 4867 0058 03EB8606 		add	r6, r3, r6, lsl #2
 4868              	.LVL303:
 4869              		.loc 1 76 26 discriminator 1 view .LVU1447
 4870 005c D8E900C5 		ldrd	ip, r5, [r8]
 4871              	.LVL304:
 4872              		.loc 1 76 26 discriminator 1 view .LVU1448
 4873 0060 D7E90002 		ldrd	r0, r2, [r7]
 4874              	.LVL305:
 4875              	.L215:
  77:main.cpp      ****       out[0][i] = (out_l[i] * (1.0f - dry_mix)) + (in[0][i] * dry_mix);
 4876              		.loc 1 77 7 is_stmt 1 view .LVU1449
 4877              		.loc 1 77 37 is_stmt 0 view .LVU1450
 4878 0064 B7EE007A 		vmov.f32	s14, #1.0e+0
 4879 0068 D1ED007A 		vldr.32	s15, [r1]
 4880              		.loc 1 77 59 view .LVU1451
 4881 006c FCEC015A 		vldmia.32	ip!, {s11}
 4882              		.loc 1 77 27 view .LVU1452
 4883 0070 B3EC016A 		vldmia.32	r3!, {s12}
 4884              		.loc 1 77 37 view .LVU1453
 4885 0074 77EE676A 		vsub.f32	s13, s14, s15
 4886              		.loc 1 77 61 view .LVU1454
 4887 0078 67EEA57A 		vmul.f32	s15, s15, s11
  76:main.cpp      ****       out[0][i] = (out_l[i] * (1.0f - dry_mix)) + (in[0][i] * dry_mix);
 4888              		.loc 1 76 26 discriminator 1 view .LVU1455
 4889 007c B342     		cmp	r3, r6
 4890              		.loc 1 77 49 view .LVU1456
 4891 007e E6EE267A 		vfma.f32	s15, s12, s13
 4892              		.loc 1 77 17 view .LVU1457
 4893 0082 E0EC017A 		vstmia.32	r0!, {s15}
  78:main.cpp      ****       out[1][i] = (out_r[i] * (1.0f - dry_mix)) + (in[1][i] * dry_mix);
 4894              		.loc 1 78 7 is_stmt 1 view .LVU1458
 4895              		.loc 1 78 37 is_stmt 0 view .LVU1459
 4896 0086 D1ED007A 		vldr.32	s15, [r1]
 4897              		.loc 1 78 59 view .LVU1460
 4898 008a B5EC016A 		vldmia.32	r5!, {s12}
 4899              		.loc 1 78 37 view .LVU1461
 4900 008e 37EE677A 		vsub.f32	s14, s14, s15
 4901              		.loc 1 78 27 view .LVU1462
 4902 0092 F4EC016A 		vldmia.32	r4!, {s13}
ARM GAS  /var/folders/v1/156fk8j97zv9pzndh61fy7zm0000gn/T//ccyHp6tG.s 			page 138


 4903              		.loc 1 78 61 view .LVU1463
 4904 0096 67EE867A 		vmul.f32	s15, s15, s12
 4905              		.loc 1 78 49 view .LVU1464
 4906 009a E6EE877A 		vfma.f32	s15, s13, s14
 4907              		.loc 1 78 17 view .LVU1465
 4908 009e E2EC017A 		vstmia.32	r2!, {s15}
  76:main.cpp      ****       out[0][i] = (out_l[i] * (1.0f - dry_mix)) + (in[0][i] * dry_mix);
 4909              		.loc 1 76 5 is_stmt 1 discriminator 3 view .LVU1466
  76:main.cpp      ****       out[0][i] = (out_l[i] * (1.0f - dry_mix)) + (in[0][i] * dry_mix);
 4910              		.loc 1 76 26 discriminator 1 view .LVU1467
 4911 00a2 DFD1     		bne	.L215
 4912              	.L208:
 4913              	.LBE1238:
 4914              	.LBE1237:
 4915              	.LBE1236:
 4916              	.LBE1248:
  79:main.cpp      ****     }
  80:main.cpp      ****   }
  81:main.cpp      **** }
 4917              		.loc 1 81 1 is_stmt 0 view .LVU1468
 4918 00a4 07B0     		add	sp, sp, #28
 4919              		.cfi_remember_state
 4920              		.cfi_def_cfa_offset 36
 4921              		@ sp needed
 4922 00a6 BDE8F08F 		pop	{r4, r5, r6, r7, r8, r9, r10, fp, pc}
 4923              	.LVL306:
 4924              	.L231:
 4925              		.cfi_restore_state
 4926              	.LBB1249:
 4927              	.LBB1242:
 4928              	.LBB1239:
 4929              	.LBB1240:
 243:legacy_engine.h **** public:
 244:legacy_engine.h ****   LegacyMonoEngine left, right;
 245:legacy_engine.h ****   float time_val;
 246:legacy_engine.h **** 
 247:legacy_engine.h ****   void Init(float sr, float *bufL, float *bufR) {
 248:legacy_engine.h ****     // Hardcoded 150s max?
 249:legacy_engine.h ****     // With 64MB split by 2, we have 32MB per ch. 32MB / 4 bytes = 8M samples.
 250:legacy_engine.h ****     // 8M / 48k = 166 seconds. Fits.
 251:legacy_engine.h ****     left.Init(sr, 150.0f, bufL);
 252:legacy_engine.h ****     right.Init(sr, 150.0f, bufR);
 253:legacy_engine.h ****   }
 254:legacy_engine.h **** 
 255:legacy_engine.h ****   // Call this once per block with control values
 256:legacy_engine.h ****   void UpdateControls(float time_knob, float skew_knob, float fb_knob,
 257:legacy_engine.h ****                       float dry_slider, const float *sliders,
 258:legacy_engine.h ****                       const float *vcas) {
 259:legacy_engine.h ****     // Logic adapted from original main.cpp
 260:legacy_engine.h ****     // Skew -> Distribution
 261:legacy_engine.h ****     float distribution = skew_knob;
 262:legacy_engine.h ****     float time =
 263:legacy_engine.h ****         time_knob * 150.0f; // Linear mapping simplification for Omnibus
 264:legacy_engine.h **** 
 265:legacy_engine.h ****     // Feedback map
 266:legacy_engine.h ****     float feedback = fb_knob * 3.0f; // 0 to 3
 267:legacy_engine.h **** 
ARM GAS  /var/folders/v1/156fk8j97zv9pzndh61fy7zm0000gn/T//ccyHp6tG.s 			page 139


 268:legacy_engine.h ****     left.Set(dry_slider * vcas[0], feedback,
 269:legacy_engine.h ****              feedback); // Blur = feedback (from original logic)
 270:legacy_engine.h ****     right.Set(dry_slider * vcas[0], feedback, feedback);
 271:legacy_engine.h **** 
 272:legacy_engine.h ****     for (int i = 1; i < 9; i++) {
 273:legacy_engine.h ****       float slider_val = sliders[i - 1];
 274:legacy_engine.h ****       float vca_val = vcas[i];
 275:legacy_engine.h ****       float amp = LegacyHelpers::minMaxSlider(
 276:legacy_engine.h ****           (1.0f - slider_val) * vca_val); // Inverting? checks original
 277:legacy_engine.h ****       // Original: minMaxSlider((1.0f - hw.GetSliderValue(i)) *
 278:legacy_engine.h ****       // hw.GetVcaValue(i)) Assuming passed sliders are raw 0..1 from
 279:legacy_engine.h ****       // hw.GetSliderValue
 280:legacy_engine.h **** 
 281:legacy_engine.h ****       float t = LegacyHelpers::spread((i / 8.0f), distribution) * time;
 282:legacy_engine.h ****       left.readHeads[i - 1].Set(t, amp, std::max(0.0f, feedback - 1.0f));
 283:legacy_engine.h ****       right.readHeads[i - 1].Set(t, amp, std::max(0.0f, feedback - 1.0f));
 284:legacy_engine.h ****     }
 285:legacy_engine.h ****   }
 286:legacy_engine.h **** 
 287:legacy_engine.h ****   void ProcessBlock(const float *inL, const float *inR, float *outL,
 288:legacy_engine.h ****                     float *outR, size_t size) {
 289:legacy_engine.h ****     for (size_t i = 0; i < size; i++) {
 4930              		.loc 11 289 26 is_stmt 1 discriminator 1 view .LVU1469
 4931 00aa 002E     		cmp	r6, #0
 4932 00ac FAD0     		beq	.L208
 4933 00ae 2B46     		mov	r3, r5
 4934 00b0 059D     		ldr	r5, [sp, #20]
 4935              	.LVL307:
 4936              		.loc 11 289 26 is_stmt 0 discriminator 1 view .LVU1470
 4937 00b2 8A46     		mov	r10, r1
 4938 00b4 9346     		mov	fp, r2
 4939 00b6 A846     		mov	r8, r5
 4940              	.LVL308:
 4941              		.loc 11 289 26 discriminator 1 view .LVU1471
 4942 00b8 1C46     		mov	r4, r3
 4943              		.loc 11 289 17 view .LVU1472
 4944 00ba 4FF00009 		mov	r9, #0
 4945              	.LVL309:
 4946              	.L213:
 290:legacy_engine.h ****       outL[i] = left.Process(inL[i]);
 4947              		.loc 11 290 7 is_stmt 1 view .LVU1473
 4948              		.loc 11 290 29 is_stmt 0 view .LVU1474
 4949 00be 3A48     		ldr	r0, .L232+28
 289:legacy_engine.h ****       outL[i] = left.Process(inL[i]);
 4950              		.loc 11 289 5 discriminator 3 view .LVU1475
 4951 00c0 09F10109 		add	r9, r9, #1
 4952              	.LVL310:
 4953              		.loc 11 290 29 view .LVU1476
 4954 00c4 BAEC010A 		vldmia.32	r10!, {s0}
 4955 00c8 0493     		str	r3, [sp, #16]
 4956 00ca FFF7FEFF 		bl	_ZN3oam6legacy16LegacyMonoEngine7ProcessEf
 4957              	.LVL311:
 291:legacy_engine.h ****       outR[i] = right.Process(inR[i]);
 4958              		.loc 11 291 30 view .LVU1477
 4959 00ce 3748     		ldr	r0, .L232+32
 290:legacy_engine.h ****       outL[i] = left.Process(inL[i]);
 4960              		.loc 11 290 15 discriminator 1 view .LVU1478
ARM GAS  /var/folders/v1/156fk8j97zv9pzndh61fy7zm0000gn/T//ccyHp6tG.s 			page 140


 4961 00d0 A5EC010A 		vstmia.32	r5!, {s0}
 4962              		.loc 11 291 7 is_stmt 1 view .LVU1479
 4963              		.loc 11 291 30 is_stmt 0 view .LVU1480
 4964 00d4 BBEC010A 		vldmia.32	fp!, {s0}
 4965 00d8 FFF7FEFF 		bl	_ZN3oam6legacy16LegacyMonoEngine7ProcessEf
 4966              	.LVL312:
 289:legacy_engine.h ****       outL[i] = left.Process(inL[i]);
 4967              		.loc 11 289 26 discriminator 1 view .LVU1481
 4968 00dc 4E45     		cmp	r6, r9
 4969 00de 049B     		ldr	r3, [sp, #16]
 4970              		.loc 11 291 15 discriminator 1 view .LVU1482
 4971 00e0 A4EC010A 		vstmia.32	r4!, {s0}
 289:legacy_engine.h ****       outL[i] = left.Process(inL[i]);
 4972              		.loc 11 289 5 is_stmt 1 discriminator 3 view .LVU1483
 4973              	.LVL313:
 289:legacy_engine.h ****       outL[i] = left.Process(inL[i]);
 4974              		.loc 11 289 26 discriminator 1 view .LVU1484
 4975 00e4 EBD1     		bne	.L213
 4976 00e6 059A     		ldr	r2, [sp, #20]
 4977 00e8 02EB8604 		add	r4, r2, r6, lsl #2
 4978 00ec D7E90012 		ldrd	r1, r2, [r7]
 4979              	.LVL314:
 4980              	.L214:
 289:legacy_engine.h ****       outL[i] = left.Process(inL[i]);
 4981              		.loc 11 289 26 is_stmt 0 discriminator 1 view .LVU1485
 4982              	.LBE1240:
 4983              	.LBE1239:
 4984              	.LBB1241:
  68:main.cpp      ****       out[1][i] = out_r[i];
 4985              		.loc 1 68 7 is_stmt 1 view .LVU1486
  68:main.cpp      ****       out[1][i] = out_r[i];
 4986              		.loc 1 68 26 is_stmt 0 view .LVU1487
 4987 00f0 58F8040B 		ldr	r0, [r8], #4	@ float
  68:main.cpp      ****       out[1][i] = out_r[i];
 4988              		.loc 1 68 17 view .LVU1488
 4989 00f4 41F8040B 		str	r0, [r1], #4	@ float
  69:main.cpp      ****     }
 4990              		.loc 1 69 7 is_stmt 1 view .LVU1489
  67:main.cpp      ****       out[0][i] = out_l[i];
 4991              		.loc 1 67 26 is_stmt 0 discriminator 1 view .LVU1490
 4992 00f8 A045     		cmp	r8, r4
  69:main.cpp      ****     }
 4993              		.loc 1 69 26 view .LVU1491
 4994 00fa 53F8040B 		ldr	r0, [r3], #4	@ float
  69:main.cpp      ****     }
 4995              		.loc 1 69 17 view .LVU1492
 4996 00fe 42F8040B 		str	r0, [r2], #4	@ float
  67:main.cpp      ****       out[0][i] = out_l[i];
 4997              		.loc 1 67 5 is_stmt 1 discriminator 3 view .LVU1493
  67:main.cpp      ****       out[0][i] = out_l[i];
 4998              		.loc 1 67 26 discriminator 1 view .LVU1494
 4999 0102 F5D1     		bne	.L214
 5000              	.LBE1241:
 5001              	.LBE1242:
 5002              	.LBE1249:
 5003              		.loc 1 81 1 is_stmt 0 view .LVU1495
 5004 0104 07B0     		add	sp, sp, #28
ARM GAS  /var/folders/v1/156fk8j97zv9pzndh61fy7zm0000gn/T//ccyHp6tG.s 			page 141


 5005              		.cfi_remember_state
 5006              		.cfi_def_cfa_offset 36
 5007              		@ sp needed
 5008 0106 BDE8F08F 		pop	{r4, r5, r6, r7, r8, r9, r10, fp, pc}
 5009              	.LVL315:
 5010              	.L230:
 5011              		.cfi_restore_state
 5012              	.LBB1250:
 5013              	.LBB1243:
  55:main.cpp      ****                             k_mod, k_decay);
 5014              		.loc 1 55 5 is_stmt 1 view .LVU1496
  55:main.cpp      ****                             k_mod, k_decay);
 5015              		.loc 1 55 28 is_stmt 0 view .LVU1497
 5016 010a 294B     		ldr	r3, .L232+36
 5017 010c 0446     		mov	r4, r0
 5018 010e CDE90056 		strd	r5, r6, [sp]
 5019 0112 93ED001A 		vldr.32	s2, [r3]
 5020 0116 214B     		ldr	r3, .L232+16
 5021 0118 D3ED000A 		vldr.32	s1, [r3]
 5022 011c 1C4B     		ldr	r3, .L232+4
 5023 011e 93ED000A 		vldr.32	s0, [r3]
 5024 0122 1F4B     		ldr	r3, .L232+20
 5025 0124 0293     		str	r3, [sp, #8]
 5026 0126 0346     		mov	r3, r0
 5027 0128 2248     		ldr	r0, .L232+40
 5028              	.LVL316:
  55:main.cpp      ****                             k_mod, k_decay);
 5029              		.loc 1 55 28 view .LVU1498
 5030 012a FFF7FEFF 		bl	_ZN19OmniResonatorEngine12ProcessBlockEPKfS1_PfS2_jS1_fff
 5031              	.LVL317:
  57:main.cpp      ****       out[0][i] = (out_l[i] * (1.0f - dry_mix)) + (in[0][i] * dry_mix);
 5032              		.loc 1 57 5 is_stmt 1 view .LVU1499
 5033              	.LBB1244:
  57:main.cpp      ****       out[0][i] = (out_l[i] * (1.0f - dry_mix)) + (in[0][i] * dry_mix);
 5034              		.loc 1 57 26 discriminator 1 view .LVU1500
 5035 012e 002E     		cmp	r6, #0
 5036 0130 B8D0     		beq	.L208
 5037              	.LVL318:
  57:main.cpp      ****       out[0][i] = (out_l[i] * (1.0f - dry_mix)) + (in[0][i] * dry_mix);
 5038              		.loc 1 57 26 is_stmt 0 discriminator 1 view .LVU1501
 5039 0132 2346     		mov	r3, r4
 5040 0134 1B49     		ldr	r1, .L232+24
 5041 0136 2C46     		mov	r4, r5
 5042              	.LVL319:
  57:main.cpp      ****       out[0][i] = (out_l[i] * (1.0f - dry_mix)) + (in[0][i] * dry_mix);
 5043              		.loc 1 57 26 discriminator 1 view .LVU1502
 5044 0138 03EB860C 		add	ip, r3, r6, lsl #2
 5045 013c D7E90002 		ldrd	r0, r2, [r7]
 5046 0140 D8E90056 		ldrd	r5, r6, [r8]
 5047              	.LVL320:
 5048              	.L211:
  58:main.cpp      ****       out[1][i] = (out_r[i] * (1.0f - dry_mix)) + (in[1][i] * dry_mix);
 5049              		.loc 1 58 7 is_stmt 1 view .LVU1503
  58:main.cpp      ****       out[1][i] = (out_r[i] * (1.0f - dry_mix)) + (in[1][i] * dry_mix);
 5050              		.loc 1 58 37 is_stmt 0 view .LVU1504
 5051 0144 B7EE007A 		vmov.f32	s14, #1.0e+0
 5052 0148 D1ED007A 		vldr.32	s15, [r1]
ARM GAS  /var/folders/v1/156fk8j97zv9pzndh61fy7zm0000gn/T//ccyHp6tG.s 			page 142


  58:main.cpp      ****       out[1][i] = (out_r[i] * (1.0f - dry_mix)) + (in[1][i] * dry_mix);
 5053              		.loc 1 58 59 view .LVU1505
 5054 014c F5EC015A 		vldmia.32	r5!, {s11}
  58:main.cpp      ****       out[1][i] = (out_r[i] * (1.0f - dry_mix)) + (in[1][i] * dry_mix);
 5055              		.loc 1 58 27 view .LVU1506
 5056 0150 B3EC016A 		vldmia.32	r3!, {s12}
  58:main.cpp      ****       out[1][i] = (out_r[i] * (1.0f - dry_mix)) + (in[1][i] * dry_mix);
 5057              		.loc 1 58 37 view .LVU1507
 5058 0154 77EE676A 		vsub.f32	s13, s14, s15
  58:main.cpp      ****       out[1][i] = (out_r[i] * (1.0f - dry_mix)) + (in[1][i] * dry_mix);
 5059              		.loc 1 58 61 view .LVU1508
 5060 0158 67EEA57A 		vmul.f32	s15, s15, s11
  57:main.cpp      ****       out[0][i] = (out_l[i] * (1.0f - dry_mix)) + (in[0][i] * dry_mix);
 5061              		.loc 1 57 26 discriminator 1 view .LVU1509
 5062 015c 9C45     		cmp	ip, r3
  58:main.cpp      ****       out[1][i] = (out_r[i] * (1.0f - dry_mix)) + (in[1][i] * dry_mix);
 5063              		.loc 1 58 49 view .LVU1510
 5064 015e E6EE267A 		vfma.f32	s15, s12, s13
  58:main.cpp      ****       out[1][i] = (out_r[i] * (1.0f - dry_mix)) + (in[1][i] * dry_mix);
 5065              		.loc 1 58 17 view .LVU1511
 5066 0162 E0EC017A 		vstmia.32	r0!, {s15}
  59:main.cpp      ****     }
 5067              		.loc 1 59 7 is_stmt 1 view .LVU1512
  59:main.cpp      ****     }
 5068              		.loc 1 59 37 is_stmt 0 view .LVU1513
 5069 0166 D1ED007A 		vldr.32	s15, [r1]
  59:main.cpp      ****     }
 5070              		.loc 1 59 59 view .LVU1514
 5071 016a B6EC016A 		vldmia.32	r6!, {s12}
  59:main.cpp      ****     }
 5072              		.loc 1 59 37 view .LVU1515
 5073 016e 37EE677A 		vsub.f32	s14, s14, s15
  59:main.cpp      ****     }
 5074              		.loc 1 59 27 view .LVU1516
 5075 0172 F4EC016A 		vldmia.32	r4!, {s13}
  59:main.cpp      ****     }
 5076              		.loc 1 59 61 view .LVU1517
 5077 0176 67EE867A 		vmul.f32	s15, s15, s12
  59:main.cpp      ****     }
 5078              		.loc 1 59 49 view .LVU1518
 5079 017a E6EE877A 		vfma.f32	s15, s13, s14
  59:main.cpp      ****     }
 5080              		.loc 1 59 17 view .LVU1519
 5081 017e E2EC017A 		vstmia.32	r2!, {s15}
  57:main.cpp      ****       out[0][i] = (out_l[i] * (1.0f - dry_mix)) + (in[0][i] * dry_mix);
 5082              		.loc 1 57 5 is_stmt 1 discriminator 3 view .LVU1520
  57:main.cpp      ****       out[0][i] = (out_l[i] * (1.0f - dry_mix)) + (in[0][i] * dry_mix);
 5083              		.loc 1 57 26 discriminator 1 view .LVU1521
 5084 0182 DFD1     		bne	.L211
 5085              	.LBE1244:
 5086              	.LBE1243:
 5087              	.LBE1250:
 5088              		.loc 1 81 1 is_stmt 0 view .LVU1522
 5089 0184 07B0     		add	sp, sp, #28
 5090              		.cfi_def_cfa_offset 36
 5091              		@ sp needed
 5092 0186 BDE8F08F 		pop	{r4, r5, r6, r7, r8, r9, r10, fp, pc}
ARM GAS  /var/folders/v1/156fk8j97zv9pzndh61fy7zm0000gn/T//ccyHp6tG.s 			page 143


 5093              	.LVL321:
 5094              	.L233:
 5095              		.loc 1 81 1 view .LVU1523
 5096 018a 00BF     		.align	2
 5097              	.L232:
 5098 018c 00000000 		.word	current_mode
 5099 0190 00000000 		.word	k_time
 5100 0194 CDCC4C3E 		.word	1045220557
 5101 0198 00000000 		.word	fdn_engine
 5102 019c 00000000 		.word	k_mod
 5103 01a0 00000000 		.word	gains
 5104 01a4 00000000 		.word	dry_mix
 5105 01a8 00000000 		.word	legacy_engine
 5106 01ac 70020000 		.word	legacy_engine+624
 5107 01b0 00000000 		.word	k_decay
 5108 01b4 00000000 		.word	res_engine
 5109              		.cfi_endproc
 5110              	.LFE4990:
 5112              		.section	.text._ZN7UberFDNILi8EE4InitEfPf,"axG",%progbits,_ZN7UberFDNILi8EE4InitEfPf,comdat
 5113              		.align	1
 5114              		.p2align 2,,3
 5115              		.weak	_ZN7UberFDNILi8EE4InitEfPf
 5116              		.syntax unified
 5117              		.thumb
 5118              		.thumb_func
 5120              	_ZN7UberFDNILi8EE4InitEfPf:
 5121              	.LVL322:
 5122              	.LFB5312:
 100:uber_fdn.h    ****     sample_rate_ = sample_rate;
 5123              		.loc 9 100 8 is_stmt 1 view -0
 5124              		.cfi_startproc
 5125              		@ args = 0, pretend = 0, frame = 32
 5126              		@ frame_needed = 0, uses_anonymous_args = 0
 100:uber_fdn.h    ****     sample_rate_ = sample_rate;
 5127              		.loc 9 100 8 is_stmt 0 view .LVU1525
 5128 0000 2DE9F04F 		push	{r4, r5, r6, r7, r8, r9, r10, fp, lr}
 5129              		.cfi_def_cfa_offset 36
 5130              		.cfi_offset 4, -36
 5131              		.cfi_offset 5, -32
 5132              		.cfi_offset 6, -28
 5133              		.cfi_offset 7, -24
 5134              		.cfi_offset 8, -20
 5135              		.cfi_offset 9, -16
 5136              		.cfi_offset 10, -12
 5137              		.cfi_offset 11, -8
 5138              		.cfi_offset 14, -4
 101:uber_fdn.h    ****     // manually assign chunks
 5139              		.loc 9 101 18 view .LVU1526
 5140 0004 0446     		mov	r4, r0
 100:uber_fdn.h    ****     sample_rate_ = sample_rate;
 5141              		.loc 9 100 8 view .LVU1527
 5142 0006 8046     		mov	r8, r0
 101:uber_fdn.h    ****     // manually assign chunks
 5143              		.loc 9 101 18 view .LVU1528
 5144 0008 0346     		mov	r3, r0
 5145 000a 6034     		adds	r4, r4, #96
 100:uber_fdn.h    ****     sample_rate_ = sample_rate;
ARM GAS  /var/folders/v1/156fk8j97zv9pzndh61fy7zm0000gn/T//ccyHp6tG.s 			page 144


 5146              		.loc 9 100 8 view .LVU1529
 5147 000c 2DED068B 		vpush.64	{d8, d9, d10}
 5148              		.cfi_def_cfa_offset 60
 5149              		.cfi_offset 80, -60
 5150              		.cfi_offset 81, -56
 5151              		.cfi_offset 82, -52
 5152              		.cfi_offset 83, -48
 5153              		.cfi_offset 84, -44
 5154              		.cfi_offset 85, -40
 5155 0010 F0EE408A 		vmov.f32	s17, s0
 5156 0014 89B0     		sub	sp, sp, #36
 5157              		.cfi_def_cfa_offset 96
 101:uber_fdn.h    ****     // manually assign chunks
 5158              		.loc 9 101 18 view .LVU1530
 5159 0016 80ED000A 		vstr.32	s0, [r0]
 5160              	.LVL323:
 5161              	.LBB1308:
 103:uber_fdn.h    ****       // 240,000 floats each
 5162              		.loc 9 103 23 is_stmt 1 discriminator 1 view .LVU1531
 5163              	.L235:
 5164              	.LBB1309:
 5165              	.LBI1309:
  10:uber_fdn.h    ****     buffer_ = buf;
 5166              		.loc 9 10 8 view .LVU1532
 5167              	.LBB1310:
  11:uber_fdn.h    ****     max_len_ = max;
 5168              		.loc 9 11 5 view .LVU1533
  12:uber_fdn.h    ****     write_ptr_ = 0;
 5169              		.loc 9 12 14 is_stmt 0 view .LVU1534
 5170 001a EA48     		ldr	r0, .L259
  13:uber_fdn.h    ****   }
 5171              		.loc 9 13 16 view .LVU1535
 5172 001c 0022     		movs	r2, #0
  11:uber_fdn.h    ****     max_len_ = max;
 5173              		.loc 9 11 13 view .LVU1536
 5174 001e 5960     		str	r1, [r3, #4]
  12:uber_fdn.h    ****     write_ptr_ = 0;
 5175              		.loc 9 12 5 is_stmt 1 view .LVU1537
 5176              	.LBE1310:
 5177              	.LBE1309:
 103:uber_fdn.h    ****       // 240,000 floats each
 5178              		.loc 9 103 23 is_stmt 0 discriminator 1 view .LVU1538
 5179 0020 01F56A21 		add	r1, r1, #958464
 5180              	.LVL324:
 5181              	.LBB1312:
 5182              	.LBB1311:
  12:uber_fdn.h    ****     write_ptr_ = 0;
 5183              		.loc 9 12 14 view .LVU1539
 5184 0024 9860     		str	r0, [r3, #8]
  13:uber_fdn.h    ****   }
 5185              		.loc 9 13 5 is_stmt 1 view .LVU1540
  13:uber_fdn.h    ****   }
 5186              		.loc 9 13 16 is_stmt 0 view .LVU1541
 5187 0026 43F80C2F 		str	r2, [r3, #12]!
 5188              	.LVL325:
  13:uber_fdn.h    ****   }
 5189              		.loc 9 13 16 view .LVU1542
ARM GAS  /var/folders/v1/156fk8j97zv9pzndh61fy7zm0000gn/T//ccyHp6tG.s 			page 145


 5190              	.LBE1311:
 5191              	.LBE1312:
 103:uber_fdn.h    ****       // 240,000 floats each
 5192              		.loc 9 103 5 is_stmt 1 discriminator 3 view .LVU1543
 103:uber_fdn.h    ****       // 240,000 floats each
 5193              		.loc 9 103 23 discriminator 1 view .LVU1544
 5194 002a A342     		cmp	r3, r4
 5195 002c 01F5C061 		add	r1, r1, #1536
 5196 0030 F3D1     		bne	.L235
 5197              	.LBE1308:
 109:uber_fdn.h    ****     for (int i = 0; i < 4; i++) {
 5198              		.loc 9 109 9 is_stmt 0 view .LVU1545
 5199 0032 0DF1100C 		add	ip, sp, #16
 5200 0036 E44B     		ldr	r3, .L259+4
 107:uber_fdn.h    **** 
 5201              		.loc 9 107 11 view .LVU1546
 5202 0038 08F5842B 		add	fp, r8, #270336
 5203 003c 42F20464 		movw	r4, #9732
 5204 0040 08F16405 		add	r5, r8, #100
 5205 0044 6646     		mov	r6, ip
 5206 0046 8BF8582E 		strb	r2, [fp, #3672]
 5207 004a 4444     		add	r4, r4, r8
 109:uber_fdn.h    ****     for (int i = 0; i < 4; i++) {
 5208              		.loc 9 109 9 view .LVU1547
 5209 004c 0FCB     		ldm	r3, {r0, r1, r2, r3}
 5210 004e 8CE80F00 		stm	ip, {r0, r1, r2, r3}
 5211              	.LVL326:
 5212              	.LBB1313:
 110:uber_fdn.h    ****       diffusers_[i].Init();
 5213              		.loc 9 110 23 is_stmt 1 discriminator 1 view .LVU1548
 5214              	.L236:
 5215              	.LBB1314:
 5216              	.LBB1315:
 5217              	.LBB1316:
  47:uber_fdn.h    ****       buffer_[i] = 0.0f;
 5218              		.loc 9 47 23 discriminator 1 view .LVU1549
  48:uber_fdn.h    ****     write_ptr_ = 0;
 5219              		.loc 9 48 18 is_stmt 0 view .LVU1550
 5220 0052 4FF41662 		mov	r2, #2400
 5221 0056 0021     		movs	r1, #0
 5222 0058 2846     		mov	r0, r5
 5223              	.LBE1316:
 5224              	.LBE1315:
 5225              	.LBE1314:
 110:uber_fdn.h    ****       diffusers_[i].Init();
 5226              		.loc 9 110 23 discriminator 1 view .LVU1551
 5227 005a 05F66815 		addw	r5, r5, #2408
 5228              	.LBB1320:
 5229              	.LBB1318:
 5230              	.LBB1317:
  48:uber_fdn.h    ****     write_ptr_ = 0;
 5231              		.loc 9 48 18 view .LVU1552
 5232 005e FFF7FEFF 		bl	memset
 5233              	.LVL327:
  48:uber_fdn.h    ****     write_ptr_ = 0;
 5234              		.loc 9 48 18 view .LVU1553
 5235              	.LBE1317:
ARM GAS  /var/folders/v1/156fk8j97zv9pzndh61fy7zm0000gn/T//ccyHp6tG.s 			page 146


  49:uber_fdn.h    ****     delay_len_ = 100;
 5236              		.loc 9 49 5 is_stmt 1 view .LVU1554
 5237              	.LBE1318:
 5238              	.LBE1320:
 5239              	.LBB1321:
 5240              	.LBB1322:
  54:uber_fdn.h    ****       delay_len_ = 599;
 5241              		.loc 9 54 5 is_stmt 0 view .LVU1555
 5242 0062 40F25723 		movw	r3, #599
 5243              	.LBE1322:
 5244              	.LBE1321:
 112:uber_fdn.h    ****     }
 5245              		.loc 9 112 29 view .LVU1556
 5246 0066 56F8041B 		ldr	r1, [r6], #4
 5247              	.LBB1324:
 5248              	.LBB1319:
  49:uber_fdn.h    ****     delay_len_ = 100;
 5249              		.loc 9 49 16 view .LVU1557
 5250 006a 0022     		movs	r2, #0
 5251              	.LBE1319:
 5252              	.LBE1324:
 5253              	.LBB1325:
 5254              	.LBB1323:
  54:uber_fdn.h    ****       delay_len_ = 599;
 5255              		.loc 9 54 5 view .LVU1558
 5256 006c 8B42     		cmp	r3, r1
 5257 006e A8BF     		it	ge
 5258 0070 0B46     		movge	r3, r1
 5259              	.LBE1323:
 5260              	.LBE1325:
 110:uber_fdn.h    ****       diffusers_[i].Init();
 5261              		.loc 9 110 23 discriminator 1 view .LVU1559
 5262 0072 A542     		cmp	r5, r4
 5263 0074 45E90223 		strd	r2, r3, [r5, #-8]
 110:uber_fdn.h    ****       diffusers_[i].Init();
 5264              		.loc 9 110 5 is_stmt 1 discriminator 3 view .LVU1560
 110:uber_fdn.h    ****       diffusers_[i].Init();
 5265              		.loc 9 110 23 discriminator 1 view .LVU1561
 5266 0078 EBD1     		bne	.L236
 5267 007a D44D     		ldr	r5, .L259+8
 5268 007c 42F6F047 		movw	r7, #11504
 5269 0080 DFF87CA3 		ldr	r10, .L259+60
 5270              	.LBE1313:
 5271              	.LBB1326:
 116:uber_fdn.h    ****       shimmers_[i].Init(sample_rate);
 5272              		.loc 9 116 14 is_stmt 0 view .LVU1562
 5273 0084 9146     		mov	r9, r2
 5274 0086 4544     		add	r5, r5, r8
 5275 0088 4744     		add	r7, r7, r8
 5276 008a C244     		add	r10, r10, r8
 5277 008c CDE902B4 		strd	fp, r4, [sp, #8]
 5278              	.L242:
 5279              	.LVL328:
 5280              	.LBB1327:
 5281              	.LBI1327:
  71:../temp_time_machine/DaisyExamples/DaisySP//Source/Effects/pitchshifter.h ****     {
 5282              		.loc 13 71 10 is_stmt 1 view .LVU1563
ARM GAS  /var/folders/v1/156fk8j97zv9pzndh61fy7zm0000gn/T//ccyHp6tG.s 			page 147


 5283              	.LBB1328:
  73:../temp_time_machine/DaisyExamples/DaisySP//Source/Effects/pitchshifter.h ****         sr_           = sr;
 5284              		.loc 13 73 9 view .LVU1564
  73:../temp_time_machine/DaisyExamples/DaisySP//Source/Effects/pitchshifter.h ****         sr_           = sr;
 5285              		.loc 13 73 23 is_stmt 0 view .LVU1565
 5286 0090 0024     		movs	r4, #0
  75:../temp_time_machine/DaisyExamples/DaisySP//Source/Effects/pitchshifter.h ****         SetSemitones();
 5287              		.loc 13 75 23 view .LVU1566
 5288 0092 CF4B     		ldr	r3, .L259+12
 5289 0094 05F14806 		add	r6, r5, #72
  74:../temp_time_machine/DaisyExamples/DaisySP//Source/Effects/pitchshifter.h ****         mod_freq_     = 5.0f;
 5290              		.loc 13 74 23 view .LVU1567
 5291 0098 45ED068A 		vstr.32	s17, [r5, #-24]
  73:../temp_time_machine/DaisyExamples/DaisySP//Source/Effects/pitchshifter.h ****         sr_           = sr;
 5292              		.loc 13 73 23 view .LVU1568
 5293 009c 05F81C4C 		strb	r4, [r5, #-28]
  74:../temp_time_machine/DaisyExamples/DaisySP//Source/Effects/pitchshifter.h ****         mod_freq_     = 5.0f;
 5294              		.loc 13 74 9 is_stmt 1 view .LVU1569
  75:../temp_time_machine/DaisyExamples/DaisySP//Source/Effects/pitchshifter.h ****         SetSemitones();
 5295              		.loc 13 75 9 view .LVU1570
  75:../temp_time_machine/DaisyExamples/DaisySP//Source/Effects/pitchshifter.h ****         SetSemitones();
 5296              		.loc 13 75 23 is_stmt 0 view .LVU1571
 5297 00a0 45F8243C 		str	r3, [r5, #-36]	@ float
  76:../temp_time_machine/DaisyExamples/DaisySP//Source/Effects/pitchshifter.h ****         for(uint8_t i = 0; i < 2; i++)
 5298              		.loc 13 76 9 is_stmt 1 view .LVU1572
 5299              	.LVL329:
 5300              	.LBB1329:
 5301              	.LBI1329:
 175:../temp_time_machine/DaisyExamples/DaisySP//Source/Effects/pitchshifter.h ****             }
 176:../temp_time_machine/DaisyExamples/DaisySP//Source/Effects/pitchshifter.h ****         }
 177:../temp_time_machine/DaisyExamples/DaisySP//Source/Effects/pitchshifter.h ****     }
 178:../temp_time_machine/DaisyExamples/DaisySP//Source/Effects/pitchshifter.h **** 
 179:../temp_time_machine/DaisyExamples/DaisySP//Source/Effects/pitchshifter.h ****     /** sets delay size changing the timbre of the pitchshifting 
 180:../temp_time_machine/DaisyExamples/DaisySP//Source/Effects/pitchshifter.h ****     */
 181:../temp_time_machine/DaisyExamples/DaisySP//Source/Effects/pitchshifter.h ****     void SetDelSize(uint32_t size)
 182:../temp_time_machine/DaisyExamples/DaisySP//Source/Effects/pitchshifter.h ****     {
 183:../temp_time_machine/DaisyExamples/DaisySP//Source/Effects/pitchshifter.h ****         del_size_     = size < SHIFT_BUFFER_SIZE ? size : SHIFT_BUFFER_SIZE;
 184:../temp_time_machine/DaisyExamples/DaisySP//Source/Effects/pitchshifter.h ****         force_recalc_ = true;
 185:../temp_time_machine/DaisyExamples/DaisySP//Source/Effects/pitchshifter.h ****         SetTransposition(transpose_);
 186:../temp_time_machine/DaisyExamples/DaisySP//Source/Effects/pitchshifter.h ****     }
 187:../temp_time_machine/DaisyExamples/DaisySP//Source/Effects/pitchshifter.h **** 
 188:../temp_time_machine/DaisyExamples/DaisySP//Source/Effects/pitchshifter.h ****     /** sets an amount of internal random modulation, kind of sounds like tape-flutter
 189:../temp_time_machine/DaisyExamples/DaisySP//Source/Effects/pitchshifter.h ****     */
 190:../temp_time_machine/DaisyExamples/DaisySP//Source/Effects/pitchshifter.h ****     inline void SetFun(float f) { fun_ = f; }
 191:../temp_time_machine/DaisyExamples/DaisySP//Source/Effects/pitchshifter.h **** 
 192:../temp_time_machine/DaisyExamples/DaisySP//Source/Effects/pitchshifter.h ****   private:
 193:../temp_time_machine/DaisyExamples/DaisySP//Source/Effects/pitchshifter.h ****     inline void SetSemitones()
 5302              		.loc 13 193 17 view .LVU1573
 194:../temp_time_machine/DaisyExamples/DaisySP//Source/Effects/pitchshifter.h ****     {
 195:../temp_time_machine/DaisyExamples/DaisySP//Source/Effects/pitchshifter.h ****         for(size_t i = 0; i < 12; i++)
 5303              		.loc 13 195 9 view .LVU1574
 5304              	.LBB1330:
 5305              		.loc 13 195 29 discriminator 1 view .LVU1575
 5306              	.L237:
 196:../temp_time_machine/DaisyExamples/DaisySP//Source/Effects/pitchshifter.h ****         {
 197:../temp_time_machine/DaisyExamples/DaisySP//Source/Effects/pitchshifter.h ****             semitone_ratios_[i] = powf(2.0f, (float)i / 12);
 5307              		.loc 13 197 13 view .LVU1576
ARM GAS  /var/folders/v1/156fk8j97zv9pzndh61fy7zm0000gn/T//ccyHp6tG.s 			page 148


 5308              		.loc 13 197 46 is_stmt 0 view .LVU1577
 5309 00a4 07EE904A 		vmov	s15, r4	@ int
 5310              		.loc 13 197 39 view .LVU1578
 5311 00a8 B2EE088A 		vmov.f32	s16, #1.2e+1
 195:../temp_time_machine/DaisyExamples/DaisySP//Source/Effects/pitchshifter.h ****         {
 5312              		.loc 13 195 9 discriminator 3 view .LVU1579
 5313 00ac 0134     		adds	r4, r4, #1
 5314              	.LVL330:
 5315              		.loc 13 197 39 view .LVU1580
 5316 00ae B0EE000A 		vmov.f32	s0, #2.0e+0
 5317              		.loc 13 197 46 view .LVU1581
 5318 00b2 F8EEE70A 		vcvt.f32.s32	s1, s15
 5319              		.loc 13 197 39 view .LVU1582
 5320 00b6 C0EE880A 		vdiv.f32	s1, s1, s16
 5321 00ba FFF7FEFF 		bl	powf
 5322              	.LVL331:
 195:../temp_time_machine/DaisyExamples/DaisySP//Source/Effects/pitchshifter.h ****         {
 5323              		.loc 13 195 29 discriminator 1 view .LVU1583
 5324 00be 0C2C     		cmp	r4, #12
 5325              		.loc 13 197 33 discriminator 1 view .LVU1584
 5326 00c0 A6EC010A 		vstmia.32	r6!, {s0}
 195:../temp_time_machine/DaisyExamples/DaisySP//Source/Effects/pitchshifter.h ****         {
 5327              		.loc 13 195 9 is_stmt 1 discriminator 3 view .LVU1585
 5328              	.LVL332:
 195:../temp_time_machine/DaisyExamples/DaisySP//Source/Effects/pitchshifter.h ****         {
 5329              		.loc 13 195 29 discriminator 1 view .LVU1586
 5330 00c4 EED1     		bne	.L237
 5331              	.LVL333:
 195:../temp_time_machine/DaisyExamples/DaisySP//Source/Effects/pitchshifter.h ****         {
 5332              		.loc 13 195 29 is_stmt 0 discriminator 1 view .LVU1587
 5333              	.LBE1330:
 5334              	.LBE1329:
 5335              	.LBB1331:
  77:../temp_time_machine/DaisyExamples/DaisySP//Source/Effects/pitchshifter.h ****         {
 5336              		.loc 13 77 30 is_stmt 1 discriminator 1 view .LVU1588
  79:../temp_time_machine/DaisyExamples/DaisySP//Source/Effects/pitchshifter.h ****             d_[i].Init();
 5337              		.loc 13 79 13 view .LVU1589
  79:../temp_time_machine/DaisyExamples/DaisySP//Source/Effects/pitchshifter.h ****             d_[i].Init();
 5338              		.loc 13 79 22 is_stmt 0 view .LVU1590
 5339 00c6 9FEDC39A 		vldr.32	s18, .L259+16
 5340              	.LBB1332:
 5341              	.LBB1333:
 5342              	.LBB1334:
  45:../temp_time_machine/DaisyExamples/DaisySP//Source/Utility/delayline.h ****     }
 5343              		.loc 14 45 20 view .LVU1591
 5344 00ca 4FF0010B 		mov	fp, #1
  44:../temp_time_machine/DaisyExamples/DaisySP//Source/Utility/delayline.h ****         delay_     = 1;
 5345              		.loc 14 44 20 view .LVU1592
 5346 00ce 0024     		movs	r4, #0
 5347              	.LBE1334:
 5348              	.LBE1333:
 5349              	.LBE1332:
  81:../temp_time_machine/DaisyExamples/DaisySP//Source/Effects/pitchshifter.h ****         }
 5350              		.loc 13 81 25 view .LVU1593
 5351 00d0 A5F11006 		sub	r6, r5, #16
 5352              	.LBB1351:
 5353              	.LBB1345:
ARM GAS  /var/folders/v1/156fk8j97zv9pzndh61fy7zm0000gn/T//ccyHp6tG.s 			page 149


 5354              	.LBB1339:
 5355              	.LBB1335:
  42:../temp_time_machine/DaisyExamples/DaisySP//Source/Utility/delayline.h ****         }
 5356              		.loc 14 42 22 view .LVU1594
 5357 00d4 4FF48032 		mov	r2, #65536
 5358 00d8 0021     		movs	r1, #0
 5359 00da 3846     		mov	r0, r7
 5360              	.LBE1335:
 5361              	.LBE1339:
 5362              	.LBE1345:
 5363              	.LBE1351:
  79:../temp_time_machine/DaisyExamples/DaisySP//Source/Effects/pitchshifter.h ****             d_[i].Init();
 5364              		.loc 13 79 22 view .LVU1595
 5365 00dc 85ED049A 		vstr.32	s18, [r5, #16]
  80:../temp_time_machine/DaisyExamples/DaisySP//Source/Effects/pitchshifter.h ****             phs_[i].Init(sr, 50, i == 0 ? 0 : PI_F);
 5366              		.loc 13 80 13 is_stmt 1 view .LVU1596
 5367              	.LVL334:
 5368              	.LBB1352:
 5369              	.LBI1332:
  35:../temp_time_machine/DaisyExamples/DaisySP//Source/Utility/delayline.h ****     /** clears buffer, sets write ptr to 0, and delay to 1 sample.
 5370              		.loc 14 35 10 view .LVU1597
 5371              	.LBB1346:
 5372              	.LBI1333:
  38:../temp_time_machine/DaisyExamples/DaisySP//Source/Utility/delayline.h ****     {
 5373              		.loc 14 38 10 view .LVU1598
 5374              	.LBB1340:
 5375              	.LBB1336:
  40:../temp_time_machine/DaisyExamples/DaisySP//Source/Utility/delayline.h ****         {
 5376              		.loc 14 40 29 discriminator 1 view .LVU1599
  42:../temp_time_machine/DaisyExamples/DaisySP//Source/Utility/delayline.h ****         }
 5377              		.loc 14 42 22 is_stmt 0 view .LVU1600
 5378 00e0 FFF7FEFF 		bl	memset
 5379              	.LVL335:
  42:../temp_time_machine/DaisyExamples/DaisySP//Source/Utility/delayline.h ****         }
 5380              		.loc 14 42 22 view .LVU1601
 5381              	.LBE1336:
 5382              	.LBE1340:
 5383              	.LBE1346:
 5384              	.LBE1352:
 5385              	.LBB1353:
 5386              	.LBB1354:
 5387              		.file 17 "../temp_time_machine/DaisyExamples/DaisySP//Source/Control/phasor.h"
   1:../temp_time_machine/DaisyExamples/DaisySP//Source/Control/phasor.h **** /*
   2:../temp_time_machine/DaisyExamples/DaisySP//Source/Control/phasor.h **** Copyright (c) 2020 Electrosmith, Corp
   3:../temp_time_machine/DaisyExamples/DaisySP//Source/Control/phasor.h **** 
   4:../temp_time_machine/DaisyExamples/DaisySP//Source/Control/phasor.h **** Use of this source code is governed by an MIT-style
   5:../temp_time_machine/DaisyExamples/DaisySP//Source/Control/phasor.h **** license that can be found in the LICENSE file or at
   6:../temp_time_machine/DaisyExamples/DaisySP//Source/Control/phasor.h **** https://opensource.org/licenses/MIT.
   7:../temp_time_machine/DaisyExamples/DaisySP//Source/Control/phasor.h **** */
   8:../temp_time_machine/DaisyExamples/DaisySP//Source/Control/phasor.h **** 
   9:../temp_time_machine/DaisyExamples/DaisySP//Source/Control/phasor.h **** #pragma once
  10:../temp_time_machine/DaisyExamples/DaisySP//Source/Control/phasor.h **** #ifndef DSY_PHASOR_H
  11:../temp_time_machine/DaisyExamples/DaisySP//Source/Control/phasor.h **** #define DSY_PHASOR_H
  12:../temp_time_machine/DaisyExamples/DaisySP//Source/Control/phasor.h **** #ifdef __cplusplus
  13:../temp_time_machine/DaisyExamples/DaisySP//Source/Control/phasor.h **** 
  14:../temp_time_machine/DaisyExamples/DaisySP//Source/Control/phasor.h **** namespace daisysp
  15:../temp_time_machine/DaisyExamples/DaisySP//Source/Control/phasor.h **** {
ARM GAS  /var/folders/v1/156fk8j97zv9pzndh61fy7zm0000gn/T//ccyHp6tG.s 			page 150


  16:../temp_time_machine/DaisyExamples/DaisySP//Source/Control/phasor.h **** /** Generates a normalized signal moving from 0-1 at the specified frequency.
  17:../temp_time_machine/DaisyExamples/DaisySP//Source/Control/phasor.h **** 
  18:../temp_time_machine/DaisyExamples/DaisySP//Source/Control/phasor.h **** \todo Selecting which channels should be initialized/included in the sequence conversion.
  19:../temp_time_machine/DaisyExamples/DaisySP//Source/Control/phasor.h **** \todo Setup a similar start function for an external mux, but that seems outside the scope of this 
  20:../temp_time_machine/DaisyExamples/DaisySP//Source/Control/phasor.h **** 
  21:../temp_time_machine/DaisyExamples/DaisySP//Source/Control/phasor.h **** */
  22:../temp_time_machine/DaisyExamples/DaisySP//Source/Control/phasor.h **** class Phasor
  23:../temp_time_machine/DaisyExamples/DaisySP//Source/Control/phasor.h **** {
  24:../temp_time_machine/DaisyExamples/DaisySP//Source/Control/phasor.h ****   public:
  25:../temp_time_machine/DaisyExamples/DaisySP//Source/Control/phasor.h ****     Phasor() {}
  26:../temp_time_machine/DaisyExamples/DaisySP//Source/Control/phasor.h ****     ~Phasor() {}
  27:../temp_time_machine/DaisyExamples/DaisySP//Source/Control/phasor.h ****     /** Initializes the Phasor module
  28:../temp_time_machine/DaisyExamples/DaisySP//Source/Control/phasor.h ****     sample rate, and freq are in Hz
  29:../temp_time_machine/DaisyExamples/DaisySP//Source/Control/phasor.h ****     initial phase is in radians
  30:../temp_time_machine/DaisyExamples/DaisySP//Source/Control/phasor.h ****     Additional Init functions have defaults when arg is not specified:
  31:../temp_time_machine/DaisyExamples/DaisySP//Source/Control/phasor.h ****     - phs = 0.0f
  32:../temp_time_machine/DaisyExamples/DaisySP//Source/Control/phasor.h ****     - freq = 1.0f
  33:../temp_time_machine/DaisyExamples/DaisySP//Source/Control/phasor.h ****     */
  34:../temp_time_machine/DaisyExamples/DaisySP//Source/Control/phasor.h ****     inline void Init(float sample_rate, float freq, float initial_phase)
  35:../temp_time_machine/DaisyExamples/DaisySP//Source/Control/phasor.h ****     {
  36:../temp_time_machine/DaisyExamples/DaisySP//Source/Control/phasor.h ****         sample_rate_ = sample_rate;
  37:../temp_time_machine/DaisyExamples/DaisySP//Source/Control/phasor.h ****         phs_         = initial_phase;
  38:../temp_time_machine/DaisyExamples/DaisySP//Source/Control/phasor.h ****         SetFreq(freq);
 5388              		.loc 17 38 16 view .LVU1602
 5389 00e4 9FEDBC0A 		vldr.32	s0, .L259+20
 5390 00e8 3046     		mov	r0, r6
 5391              	.LBE1354:
 5392              	.LBE1353:
 5393              	.LBB1358:
 5394              	.LBB1347:
 5395              	.LBB1341:
  45:../temp_time_machine/DaisyExamples/DaisySP//Source/Utility/delayline.h ****     }
 5396              		.loc 14 45 20 view .LVU1603
 5397 00ea 47E9024B 		strd	r4, fp, [r7, #-8]
 5398              	.LVL336:
  45:../temp_time_machine/DaisyExamples/DaisySP//Source/Utility/delayline.h ****     }
 5399              		.loc 14 45 20 view .LVU1604
 5400              	.LBE1341:
 5401              	.LBE1347:
 5402              	.LBE1358:
  81:../temp_time_machine/DaisyExamples/DaisySP//Source/Effects/pitchshifter.h ****         }
 5403              		.loc 13 81 13 is_stmt 1 view .LVU1605
 5404              	.LBB1359:
 5405              	.LBI1353:
  34:../temp_time_machine/DaisyExamples/DaisySP//Source/Control/phasor.h ****     {
 5406              		.loc 17 34 17 view .LVU1606
 5407              	.LBB1355:
  36:../temp_time_machine/DaisyExamples/DaisySP//Source/Control/phasor.h ****         phs_         = initial_phase;
 5408              		.loc 17 36 9 view .LVU1607
  37:../temp_time_machine/DaisyExamples/DaisySP//Source/Control/phasor.h ****         SetFreq(freq);
 5409              		.loc 17 37 9 view .LVU1608
 5410              		.loc 17 38 9 view .LVU1609
  36:../temp_time_machine/DaisyExamples/DaisySP//Source/Control/phasor.h ****         phs_         = initial_phase;
 5411              		.loc 17 36 22 is_stmt 0 view .LVU1610
 5412 00ee 45ED038A 		vstr.32	s17, [r5, #-12]
  37:../temp_time_machine/DaisyExamples/DaisySP//Source/Control/phasor.h ****         SetFreq(freq);
 5413              		.loc 17 37 22 view .LVU1611
ARM GAS  /var/folders/v1/156fk8j97zv9pzndh61fy7zm0000gn/T//ccyHp6tG.s 			page 151


 5414 00f2 05ED019A 		vstr.32	s18, [r5, #-4]
 5415              		.loc 17 38 16 view .LVU1612
 5416 00f6 FFF7FEFF 		bl	_ZN7daisysp6Phasor7SetFreqEf
 5417              	.LVL337:
 5418              		.loc 17 38 16 view .LVU1613
 5419              	.LBE1355:
 5420              	.LBE1359:
  77:../temp_time_machine/DaisyExamples/DaisySP//Source/Effects/pitchshifter.h ****         {
 5421              		.loc 13 77 9 is_stmt 1 discriminator 2 view .LVU1614
  77:../temp_time_machine/DaisyExamples/DaisySP//Source/Effects/pitchshifter.h ****         {
 5422              		.loc 13 77 30 discriminator 1 view .LVU1615
  79:../temp_time_machine/DaisyExamples/DaisySP//Source/Effects/pitchshifter.h ****             d_[i].Init();
 5423              		.loc 13 79 13 view .LVU1616
 5424              	.LBB1360:
 5425              	.LBB1348:
 5426              	.LBB1342:
 5427              	.LBB1337:
  42:../temp_time_machine/DaisyExamples/DaisySP//Source/Utility/delayline.h ****         }
 5428              		.loc 14 42 22 is_stmt 0 view .LVU1617
 5429 00fa 2146     		mov	r1, r4
 5430 00fc 4FF48032 		mov	r2, #65536
 5431 0100 5046     		mov	r0, r10
 5432              	.LBE1337:
 5433              	.LBE1342:
 5434              	.LBE1348:
 5435              	.LBE1360:
  79:../temp_time_machine/DaisyExamples/DaisySP//Source/Effects/pitchshifter.h ****             d_[i].Init();
 5436              		.loc 13 79 22 view .LVU1618
 5437 0102 85ED059A 		vstr.32	s18, [r5, #20]
  80:../temp_time_machine/DaisyExamples/DaisySP//Source/Effects/pitchshifter.h ****             phs_[i].Init(sr, 50, i == 0 ? 0 : PI_F);
 5438              		.loc 13 80 13 is_stmt 1 view .LVU1619
 5439              	.LVL338:
 5440              	.LBB1361:
  35:../temp_time_machine/DaisyExamples/DaisySP//Source/Utility/delayline.h ****     /** clears buffer, sets write ptr to 0, and delay to 1 sample.
 5441              		.loc 14 35 10 view .LVU1620
 5442              	.LBB1349:
  38:../temp_time_machine/DaisyExamples/DaisySP//Source/Utility/delayline.h ****     {
 5443              		.loc 14 38 10 view .LVU1621
 5444              	.LBB1343:
 5445              	.LBB1338:
  40:../temp_time_machine/DaisyExamples/DaisySP//Source/Utility/delayline.h ****         {
 5446              		.loc 14 40 29 discriminator 1 view .LVU1622
  42:../temp_time_machine/DaisyExamples/DaisySP//Source/Utility/delayline.h ****         }
 5447              		.loc 14 42 22 is_stmt 0 view .LVU1623
 5448 0106 FFF7FEFF 		bl	memset
 5449              	.LVL339:
  42:../temp_time_machine/DaisyExamples/DaisySP//Source/Utility/delayline.h ****         }
 5450              		.loc 14 42 22 view .LVU1624
 5451              	.LBE1338:
 5452              	.LBE1343:
 5453              	.LBE1349:
 5454              	.LBE1361:
 5455              	.LBB1362:
 5456              	.LBB1356:
  37:../temp_time_machine/DaisyExamples/DaisySP//Source/Control/phasor.h ****         SetFreq(freq);
 5457              		.loc 17 37 22 view .LVU1625
 5458 010a B44A     		ldr	r2, .L259+24
ARM GAS  /var/folders/v1/156fk8j97zv9pzndh61fy7zm0000gn/T//ccyHp6tG.s 			page 152


 5459              		.loc 17 38 16 view .LVU1626
 5460 010c 9FEDB20A 		vldr.32	s0, .L259+20
 5461 0110 2846     		mov	r0, r5
 5462              	.LBE1356:
 5463              	.LBE1362:
 5464              	.LBB1363:
 5465              	.LBB1350:
 5466              	.LBB1344:
  45:../temp_time_machine/DaisyExamples/DaisySP//Source/Utility/delayline.h ****     }
 5467              		.loc 14 45 20 view .LVU1627
 5468 0112 4AE9024B 		strd	r4, fp, [r10, #-8]
 5469              	.LVL340:
  45:../temp_time_machine/DaisyExamples/DaisySP//Source/Utility/delayline.h ****     }
 5470              		.loc 14 45 20 view .LVU1628
 5471              	.LBE1344:
 5472              	.LBE1350:
 5473              	.LBE1363:
  81:../temp_time_machine/DaisyExamples/DaisySP//Source/Effects/pitchshifter.h ****         }
 5474              		.loc 13 81 13 is_stmt 1 view .LVU1629
 5475              	.LBB1364:
  34:../temp_time_machine/DaisyExamples/DaisySP//Source/Control/phasor.h ****     {
 5476              		.loc 17 34 17 view .LVU1630
 5477              	.LBB1357:
  36:../temp_time_machine/DaisyExamples/DaisySP//Source/Control/phasor.h ****         phs_         = initial_phase;
 5478              		.loc 17 36 9 view .LVU1631
  37:../temp_time_machine/DaisyExamples/DaisySP//Source/Control/phasor.h ****         SetFreq(freq);
 5479              		.loc 17 37 22 is_stmt 0 view .LVU1632
 5480 0116 EA60     		str	r2, [r5, #12]	@ float
  36:../temp_time_machine/DaisyExamples/DaisySP//Source/Control/phasor.h ****         phs_         = initial_phase;
 5481              		.loc 17 36 22 view .LVU1633
 5482 0118 C5ED018A 		vstr.32	s17, [r5, #4]
  37:../temp_time_machine/DaisyExamples/DaisySP//Source/Control/phasor.h ****         SetFreq(freq);
 5483              		.loc 17 37 9 is_stmt 1 view .LVU1634
 5484              		.loc 17 38 9 view .LVU1635
 5485              		.loc 17 38 16 is_stmt 0 view .LVU1636
 5486 011c FFF7FEFF 		bl	_ZN7daisysp6Phasor7SetFreqEf
 5487              	.LVL341:
 5488              		.loc 17 38 16 view .LVU1637
 5489              	.LBE1357:
 5490              	.LBE1364:
  77:../temp_time_machine/DaisyExamples/DaisySP//Source/Effects/pitchshifter.h ****         {
 5491              		.loc 13 77 9 is_stmt 1 discriminator 2 view .LVU1638
  77:../temp_time_machine/DaisyExamples/DaisySP//Source/Effects/pitchshifter.h ****         {
 5492              		.loc 13 77 30 discriminator 1 view .LVU1639
 5493              	.LBE1331:
  83:../temp_time_machine/DaisyExamples/DaisySP//Source/Effects/pitchshifter.h ****         del_size_ = SHIFT_BUFFER_SIZE;
 5494              		.loc 13 83 9 view .LVU1640
  84:../temp_time_machine/DaisyExamples/DaisySP//Source/Effects/pitchshifter.h ****         SetDelSize(del_size_);
 5495              		.loc 13 84 9 view .LVU1641
 5496 0120 D5ED086A 		vldr.32	s13, [r5, #32]
 5497              	.LBB1365:
 5498              	.LBB1366:
 5499              	.LBB1367:
 5500              	.LBB1368:
 155:../temp_time_machine/DaisyExamples/DaisySP//Source/Effects/pitchshifter.h ****             ratio *= (uint8_t)(fabsf(transpose) / 12) + 1;
 5501              		.loc 13 155 47 is_stmt 0 view .LVU1642
 5502 0124 AE4A     		ldr	r2, .L259+28
ARM GAS  /var/folders/v1/156fk8j97zv9pzndh61fy7zm0000gn/T//ccyHp6tG.s 			page 153


 165:../temp_time_machine/DaisyExamples/DaisySP//Source/Effects/pitchshifter.h ****             if(mod_freq_ < 0.0f)
 5503              		.loc 13 165 33 view .LVU1643
 5504 0126 FFEE007A 		vmov.f32	s15, #-1.0e+0
 154:../temp_time_machine/DaisyExamples/DaisySP//Source/Effects/pitchshifter.h ****             ratio      = semitone_ratios_[idx % 12];
 5505              		.loc 13 154 40 view .LVU1644
 5506 012a B0EEE67A 		vabs.f32	s14, s13
 165:../temp_time_machine/DaisyExamples/DaisySP//Source/Effects/pitchshifter.h ****             if(mod_freq_ < 0.0f)
 5507              		.loc 13 165 41 view .LVU1645
 5508 012e 55ED065A 		vldr.32	s11, [r5, #-24]
 157:../temp_time_machine/DaisyExamples/DaisySP//Source/Effects/pitchshifter.h ****             {
 5509              		.loc 13 157 13 view .LVU1646
 5510 0132 F4EEC96A 		vcmpe.f32	s13, s18
 165:../temp_time_machine/DaisyExamples/DaisySP//Source/Effects/pitchshifter.h ****             if(mod_freq_ < 0.0f)
 5511              		.loc 13 165 48 view .LVU1647
 5512 0136 9FEDAB6A 		vldr.32	s12, .L259+32
 170:../temp_time_machine/DaisyExamples/DaisySP//Source/Effects/pitchshifter.h ****             phs_[1].SetFreq(mod_freq_);
 5513              		.loc 13 170 28 view .LVU1648
 5514 013a 3046     		mov	r0, r6
 5515              	.LBE1368:
 5516              	.LBE1367:
 184:../temp_time_machine/DaisyExamples/DaisySP//Source/Effects/pitchshifter.h ****         SetTransposition(transpose_);
 5517              		.loc 13 184 23 view .LVU1649
 5518 013c 05F81CBC 		strb	fp, [r5, #-28]
 5519              	.LBB1372:
 5520              	.LBB1369:
 156:../temp_time_machine/DaisyExamples/DaisySP//Source/Effects/pitchshifter.h ****             if(transpose > 0.0f)
 5521              		.loc 13 156 49 view .LVU1650
 5522 0140 C7EE086A 		vdiv.f32	s13, s14, s16
 154:../temp_time_machine/DaisyExamples/DaisySP//Source/Effects/pitchshifter.h ****             ratio      = semitone_ratios_[idx % 12];
 5523              		.loc 13 154 24 view .LVU1651
 5524 0144 BCEEC77A 		vcvt.u32.f32	s14, s14
 157:../temp_time_machine/DaisyExamples/DaisySP//Source/Effects/pitchshifter.h ****             {
 5525              		.loc 13 157 13 view .LVU1652
 5526 0148 F1EE10FA 		vmrs	APSR_nzcv, FPSCR
 154:../temp_time_machine/DaisyExamples/DaisySP//Source/Effects/pitchshifter.h ****             ratio      = semitone_ratios_[idx % 12];
 5527              		.loc 13 154 24 view .LVU1653
 5528 014c 8DED007A 		vstr.32	s14, [sp]	@ int
 155:../temp_time_machine/DaisyExamples/DaisySP//Source/Effects/pitchshifter.h ****             ratio *= (uint8_t)(fabsf(transpose) / 12) + 1;
 5529              		.loc 13 155 47 view .LVU1654
 5530 0150 9DF80030 		ldrb	r3, [sp]	@ zero_extendqisi2
 5531 0154 A2FB0312 		umull	r1, r2, r2, r3
 5532 0158 4FEAD202 		lsr	r2, r2, #3
 5533 015c 02EB4202 		add	r2, r2, r2, lsl #1
 156:../temp_time_machine/DaisyExamples/DaisySP//Source/Effects/pitchshifter.h ****             if(transpose > 0.0f)
 5534              		.loc 13 156 22 view .LVU1655
 5535 0160 BCEEE67A 		vcvt.u32.f32	s14, s13
 155:../temp_time_machine/DaisyExamples/DaisySP//Source/Effects/pitchshifter.h ****             ratio *= (uint8_t)(fabsf(transpose) / 12) + 1;
 5536              		.loc 13 155 47 view .LVU1656
 5537 0164 A3EB8203 		sub	r3, r3, r2, lsl #2
 155:../temp_time_machine/DaisyExamples/DaisySP//Source/Effects/pitchshifter.h ****             ratio *= (uint8_t)(fabsf(transpose) / 12) + 1;
 5538              		.loc 13 155 24 view .LVU1657
 5539 0168 48F22E02 		movw	r2, #32814
 5540 016c 02FB09F2 		mul	r2, r2, r9
 156:../temp_time_machine/DaisyExamples/DaisySP//Source/Effects/pitchshifter.h ****             if(transpose > 0.0f)
 5541              		.loc 13 156 22 view .LVU1658
 5542 0170 8DED017A 		vstr.32	s14, [sp, #4]	@ int
 155:../temp_time_machine/DaisyExamples/DaisySP//Source/Effects/pitchshifter.h ****             ratio *= (uint8_t)(fabsf(transpose) / 12) + 1;
ARM GAS  /var/folders/v1/156fk8j97zv9pzndh61fy7zm0000gn/T//ccyHp6tG.s 			page 154


 5543              		.loc 13 155 24 view .LVU1659
 5544 0174 52FA83F3 		uxtab	r3, r2, r3
 5545 0178 48F65A32 		movw	r2, #35674
 5546 017c 1A44     		add	r2, r2, r3
 156:../temp_time_machine/DaisyExamples/DaisySP//Source/Effects/pitchshifter.h ****             if(transpose > 0.0f)
 5547              		.loc 13 156 22 view .LVU1660
 5548 017e 9DF80430 		ldrb	r3, [sp, #4]	@ zero_extendqisi2
 156:../temp_time_machine/DaisyExamples/DaisySP//Source/Effects/pitchshifter.h ****             if(transpose > 0.0f)
 5549              		.loc 13 156 55 view .LVU1661
 5550 0182 5B44     		add	r3, r3, fp
 155:../temp_time_machine/DaisyExamples/DaisySP//Source/Effects/pitchshifter.h ****             ratio *= (uint8_t)(fabsf(transpose) / 12) + 1;
 5551              		.loc 13 155 24 view .LVU1662
 5552 0184 08EB8202 		add	r2, r8, r2, lsl #2
 156:../temp_time_machine/DaisyExamples/DaisySP//Source/Effects/pitchshifter.h ****             if(transpose > 0.0f)
 5553              		.loc 13 156 19 view .LVU1663
 5554 0188 07EE103A 		vmov	s14, r3	@ int
 155:../temp_time_machine/DaisyExamples/DaisySP//Source/Effects/pitchshifter.h ****             ratio *= (uint8_t)(fabsf(transpose) / 12) + 1;
 5555              		.loc 13 155 24 view .LVU1664
 5556 018c D2ED016A 		vldr.32	s13, [r2, #4]
 157:../temp_time_machine/DaisyExamples/DaisySP//Source/Effects/pitchshifter.h ****             {
 5557              		.loc 13 157 13 view .LVU1665
 5558 0190 CCBF     		ite	gt
 5559 0192 5B46     		movgt	r3, fp
 5560 0194 2346     		movle	r3, r4
 156:../temp_time_machine/DaisyExamples/DaisySP//Source/Effects/pitchshifter.h ****             if(transpose > 0.0f)
 5561              		.loc 13 156 19 view .LVU1666
 5562 0196 B8EEC77A 		vcvt.f32.s32	s14, s14
 157:../temp_time_machine/DaisyExamples/DaisySP//Source/Effects/pitchshifter.h ****             {
 5563              		.loc 13 157 13 view .LVU1667
 5564 019a 05F8143C 		strb	r3, [r5, #-20]
 5565              	.LBE1369:
 5566              	.LBE1372:
 5567              	.LBE1366:
 5568              	.LBE1365:
  84:../temp_time_machine/DaisyExamples/DaisySP//Source/Effects/pitchshifter.h ****         SetDelSize(del_size_);
 5569              		.loc 13 84 19 view .LVU1668
 5570 019e 4FF48043 		mov	r3, #16384
 5571              	.LBB1377:
 5572              	.LBB1375:
 5573              	.LBB1373:
 5574              	.LBB1370:
 165:../temp_time_machine/DaisyExamples/DaisySP//Source/Effects/pitchshifter.h ****             if(mod_freq_ < 0.0f)
 5575              		.loc 13 165 33 view .LVU1669
 5576 01a2 E6EE877A 		vfma.f32	s15, s13, s14
 5577              	.LBE1370:
 5578              	.LBE1373:
 5579              	.LBE1375:
 5580              	.LBE1377:
  84:../temp_time_machine/DaisyExamples/DaisySP//Source/Effects/pitchshifter.h ****         SetDelSize(del_size_);
 5581              		.loc 13 84 19 view .LVU1670
 5582 01a6 45F8203C 		str	r3, [r5, #-32]
  85:../temp_time_machine/DaisyExamples/DaisySP//Source/Effects/pitchshifter.h ****         fun_ = 0.0f;
 5583              		.loc 13 85 9 is_stmt 1 view .LVU1671
 5584              	.LVL342:
 5585              	.LBB1378:
 5586              	.LBI1365:
 181:../temp_time_machine/DaisyExamples/DaisySP//Source/Effects/pitchshifter.h ****     {
ARM GAS  /var/folders/v1/156fk8j97zv9pzndh61fy7zm0000gn/T//ccyHp6tG.s 			page 155


 5587              		.loc 13 181 10 view .LVU1672
 5588              	.LBB1376:
 183:../temp_time_machine/DaisyExamples/DaisySP//Source/Effects/pitchshifter.h ****         force_recalc_ = true;
 5589              		.loc 13 183 9 view .LVU1673
 184:../temp_time_machine/DaisyExamples/DaisySP//Source/Effects/pitchshifter.h ****         SetTransposition(transpose_);
 5590              		.loc 13 184 9 view .LVU1674
 185:../temp_time_machine/DaisyExamples/DaisySP//Source/Effects/pitchshifter.h ****     }
 5591              		.loc 13 185 9 view .LVU1675
 5592              	.LBB1374:
 5593              	.LBI1367:
 147:../temp_time_machine/DaisyExamples/DaisySP//Source/Effects/pitchshifter.h ****     {
 5594              		.loc 13 147 10 view .LVU1676
 5595              	.LBB1371:
 149:../temp_time_machine/DaisyExamples/DaisySP//Source/Effects/pitchshifter.h ****         uint8_t idx;
 5596              		.loc 13 149 9 view .LVU1677
 150:../temp_time_machine/DaisyExamples/DaisySP//Source/Effects/pitchshifter.h ****         if(transpose_ != transpose || force_recalc_)
 5597              		.loc 13 150 9 view .LVU1678
 151:../temp_time_machine/DaisyExamples/DaisySP//Source/Effects/pitchshifter.h ****         {
 5598              		.loc 13 151 9 view .LVU1679
 153:../temp_time_machine/DaisyExamples/DaisySP//Source/Effects/pitchshifter.h ****             idx        = (uint8_t)fabsf(transpose);
 5599              		.loc 13 153 13 view .LVU1680
 154:../temp_time_machine/DaisyExamples/DaisySP//Source/Effects/pitchshifter.h ****             ratio      = semitone_ratios_[idx % 12];
 5600              		.loc 13 154 13 view .LVU1681
 155:../temp_time_machine/DaisyExamples/DaisySP//Source/Effects/pitchshifter.h ****             ratio *= (uint8_t)(fabsf(transpose) / 12) + 1;
 5601              		.loc 13 155 13 view .LVU1682
 156:../temp_time_machine/DaisyExamples/DaisySP//Source/Effects/pitchshifter.h ****             if(transpose > 0.0f)
 5602              		.loc 13 156 13 view .LVU1683
 157:../temp_time_machine/DaisyExamples/DaisySP//Source/Effects/pitchshifter.h ****             {
 5603              		.loc 13 157 13 view .LVU1684
 165:../temp_time_machine/DaisyExamples/DaisySP//Source/Effects/pitchshifter.h ****             if(mod_freq_ < 0.0f)
 5604              		.loc 13 165 13 view .LVU1685
 166:../temp_time_machine/DaisyExamples/DaisySP//Source/Effects/pitchshifter.h ****             {
 5605              		.loc 13 166 13 view .LVU1686
 170:../temp_time_machine/DaisyExamples/DaisySP//Source/Effects/pitchshifter.h ****             phs_[1].SetFreq(mod_freq_);
 5606              		.loc 13 170 13 view .LVU1687
 165:../temp_time_machine/DaisyExamples/DaisySP//Source/Effects/pitchshifter.h ****             if(mod_freq_ < 0.0f)
 5607              		.loc 13 165 41 is_stmt 0 view .LVU1688
 5608 01aa 67EEA57A 		vmul.f32	s15, s15, s11
 165:../temp_time_machine/DaisyExamples/DaisySP//Source/Effects/pitchshifter.h ****             if(mod_freq_ < 0.0f)
 5609              		.loc 13 165 48 view .LVU1689
 5610 01ae 67EE867A 		vmul.f32	s15, s15, s12
 5611 01b2 F4EEC97A 		vcmpe.f32	s15, s18
 5612 01b6 F1EE10FA 		vmrs	APSR_nzcv, FPSCR
 5613 01ba 54BF     		ite	pl
 5614 01bc B0EE670A 		vmovpl.f32	s0, s15
 5615 01c0 B0EE490A 		vmovmi.f32	s0, s18
 5616 01c4 05ED090A 		vstr.32	s0, [r5, #-36]
 170:../temp_time_machine/DaisyExamples/DaisySP//Source/Effects/pitchshifter.h ****             phs_[1].SetFreq(mod_freq_);
 5617              		.loc 13 170 28 view .LVU1690
 5618 01c8 FFF7FEFF 		bl	_ZN7daisysp6Phasor7SetFreqEf
 5619              	.LVL343:
 171:../temp_time_machine/DaisyExamples/DaisySP//Source/Effects/pitchshifter.h ****             if(force_recalc_)
 5620              		.loc 13 171 13 is_stmt 1 view .LVU1691
 171:../temp_time_machine/DaisyExamples/DaisySP//Source/Effects/pitchshifter.h ****             if(force_recalc_)
 5621              		.loc 13 171 28 is_stmt 0 view .LVU1692
 5622 01cc 15ED090A 		vldr.32	s0, [r5, #-36]
 5623 01d0 2846     		mov	r0, r5
ARM GAS  /var/folders/v1/156fk8j97zv9pzndh61fy7zm0000gn/T//ccyHp6tG.s 			page 156


 5624 01d2 FFF7FEFF 		bl	_ZN7daisysp6Phasor7SetFreqEf
 5625              	.LVL344:
 172:../temp_time_machine/DaisyExamples/DaisySP//Source/Effects/pitchshifter.h ****             {
 5626              		.loc 13 172 13 is_stmt 1 view .LVU1693
 5627 01d6 15F81C3C 		ldrb	r3, [r5, #-28]	@ zero_extendqisi2
 5628 01da 0BB1     		cbz	r3, .L238
 174:../temp_time_machine/DaisyExamples/DaisySP//Source/Effects/pitchshifter.h ****             }
 5629              		.loc 13 174 17 view .LVU1694
 174:../temp_time_machine/DaisyExamples/DaisySP//Source/Effects/pitchshifter.h ****             }
 5630              		.loc 13 174 31 is_stmt 0 view .LVU1695
 5631 01dc 05F81C4C 		strb	r4, [r5, #-28]
 5632              	.L238:
 5633              	.LVL345:
 174:../temp_time_machine/DaisyExamples/DaisySP//Source/Effects/pitchshifter.h ****             }
 5634              		.loc 13 174 31 view .LVU1696
 5635              	.LBE1371:
 5636              	.LBE1374:
 5637              	.LBE1376:
 5638              	.LBE1378:
  86:../temp_time_machine/DaisyExamples/DaisySP//Source/Effects/pitchshifter.h ****     }
 5639              		.loc 13 86 9 is_stmt 1 view .LVU1697
 5640              	.LBE1328:
 5641              	.LBE1327:
 5642              	.LBB1381:
 5643              	.LBB1382:
 151:../temp_time_machine/DaisyExamples/DaisySP//Source/Effects/pitchshifter.h ****         {
 5644              		.loc 13 151 9 is_stmt 0 view .LVU1698
 5645 01e0 B2EE087A 		vmov.f32	s14, #1.2e+1
 151:../temp_time_machine/DaisyExamples/DaisySP//Source/Effects/pitchshifter.h ****         {
 5646              		.loc 13 151 12 view .LVU1699
 5647 01e4 D5ED087A 		vldr.32	s15, [r5, #32]
 5648              	.LBE1382:
 5649              	.LBE1381:
 5650              	.LBB1385:
 5651              	.LBB1379:
  86:../temp_time_machine/DaisyExamples/DaisySP//Source/Effects/pitchshifter.h ****     }
 5652              		.loc 13 86 14 view .LVU1700
 5653 01e8 0023     		movs	r3, #0
 5654              	.LBE1379:
 5655              	.LBE1385:
 5656              	.LBB1386:
 5657              	.LBB1383:
 151:../temp_time_machine/DaisyExamples/DaisySP//Source/Effects/pitchshifter.h ****         {
 5658              		.loc 13 151 9 view .LVU1701
 5659 01ea F4EE477A 		vcmp.f32	s15, s14
 5660              	.LBE1383:
 5661              	.LBE1386:
 5662              	.LBB1387:
 5663              	.LBB1380:
  86:../temp_time_machine/DaisyExamples/DaisySP//Source/Effects/pitchshifter.h ****     }
 5664              		.loc 13 86 14 view .LVU1702
 5665 01ee 6B62     		str	r3, [r5, #36]	@ float
 5666              	.LVL346:
  86:../temp_time_machine/DaisyExamples/DaisySP//Source/Effects/pitchshifter.h ****     }
 5667              		.loc 13 86 14 view .LVU1703
 5668              	.LBE1380:
 5669              	.LBE1387:
ARM GAS  /var/folders/v1/156fk8j97zv9pzndh61fy7zm0000gn/T//ccyHp6tG.s 			page 157


 5670              	.LBB1388:
 5671              	.LBI1381:
 147:../temp_time_machine/DaisyExamples/DaisySP//Source/Effects/pitchshifter.h ****     {
 5672              		.loc 13 147 10 is_stmt 1 view .LVU1704
 5673              	.LBB1384:
 149:../temp_time_machine/DaisyExamples/DaisySP//Source/Effects/pitchshifter.h ****         uint8_t idx;
 5674              		.loc 13 149 9 view .LVU1705
 150:../temp_time_machine/DaisyExamples/DaisySP//Source/Effects/pitchshifter.h ****         if(transpose_ != transpose || force_recalc_)
 5675              		.loc 13 150 9 view .LVU1706
 151:../temp_time_machine/DaisyExamples/DaisySP//Source/Effects/pitchshifter.h ****         {
 5676              		.loc 13 151 9 view .LVU1707
 5677 01f0 F1EE10FA 		vmrs	APSR_nzcv, FPSCR
 5678 01f4 02D1     		bne	.L239
 151:../temp_time_machine/DaisyExamples/DaisySP//Source/Effects/pitchshifter.h ****         {
 5679              		.loc 13 151 36 is_stmt 0 discriminator 1 view .LVU1708
 5680 01f6 15F81C3C 		ldrb	r3, [r5, #-28]	@ zero_extendqisi2
 5681 01fa 5BB3     		cbz	r3, .L240
 5682              	.L239:
 153:../temp_time_machine/DaisyExamples/DaisySP//Source/Effects/pitchshifter.h ****             idx        = (uint8_t)fabsf(transpose);
 5683              		.loc 13 153 13 is_stmt 1 view .LVU1709
 165:../temp_time_machine/DaisyExamples/DaisySP//Source/Effects/pitchshifter.h ****             if(mod_freq_ < 0.0f)
 5684              		.loc 13 165 33 is_stmt 0 view .LVU1710
 5685 01fc F0EE006A 		vmov.f32	s13, #2.0e+0
 155:../temp_time_machine/DaisyExamples/DaisySP//Source/Effects/pitchshifter.h ****             ratio *= (uint8_t)(fabsf(transpose) / 12) + 1;
 5686              		.loc 13 155 24 view .LVU1711
 5687 0200 95ED126A 		vldr.32	s12, [r5, #72]
 165:../temp_time_machine/DaisyExamples/DaisySP//Source/Effects/pitchshifter.h ****             if(mod_freq_ < 0.0f)
 5688              		.loc 13 165 33 view .LVU1712
 5689 0204 FFEE007A 		vmov.f32	s15, #-1.0e+0
 165:../temp_time_machine/DaisyExamples/DaisySP//Source/Effects/pitchshifter.h ****             if(mod_freq_ < 0.0f)
 5690              		.loc 13 165 41 view .LVU1713
 5691 0208 15ED067A 		vldr.32	s14, [r5, #-24]
 5692 020c 9FED710A 		vldr.32	s0, .L259+16
 170:../temp_time_machine/DaisyExamples/DaisySP//Source/Effects/pitchshifter.h ****             phs_[1].SetFreq(mod_freq_);
 5693              		.loc 13 170 28 view .LVU1714
 5694 0210 3046     		mov	r0, r6
 153:../temp_time_machine/DaisyExamples/DaisySP//Source/Effects/pitchshifter.h ****             idx        = (uint8_t)fabsf(transpose);
 5695              		.loc 13 153 24 view .LVU1715
 5696 0212 754B     		ldr	r3, .L259+36
 165:../temp_time_machine/DaisyExamples/DaisySP//Source/Effects/pitchshifter.h ****             if(mod_freq_ < 0.0f)
 5697              		.loc 13 165 33 view .LVU1716
 5698 0214 E6EE267A 		vfma.f32	s15, s12, s13
 153:../temp_time_machine/DaisyExamples/DaisySP//Source/Effects/pitchshifter.h ****             idx        = (uint8_t)fabsf(transpose);
 5699              		.loc 13 153 24 view .LVU1717
 5700 0218 2B62     		str	r3, [r5, #32]	@ float
 154:../temp_time_machine/DaisyExamples/DaisySP//Source/Effects/pitchshifter.h ****             ratio      = semitone_ratios_[idx % 12];
 5701              		.loc 13 154 13 is_stmt 1 view .LVU1718
 5702              	.LVL347:
 155:../temp_time_machine/DaisyExamples/DaisySP//Source/Effects/pitchshifter.h ****             ratio *= (uint8_t)(fabsf(transpose) / 12) + 1;
 5703              		.loc 13 155 13 view .LVU1719
 156:../temp_time_machine/DaisyExamples/DaisySP//Source/Effects/pitchshifter.h ****             if(transpose > 0.0f)
 5704              		.loc 13 156 13 view .LVU1720
 157:../temp_time_machine/DaisyExamples/DaisySP//Source/Effects/pitchshifter.h ****             {
 5705              		.loc 13 157 13 view .LVU1721
 159:../temp_time_machine/DaisyExamples/DaisySP//Source/Effects/pitchshifter.h ****             }
 5706              		.loc 13 159 17 view .LVU1722
 159:../temp_time_machine/DaisyExamples/DaisySP//Source/Effects/pitchshifter.h ****             }
ARM GAS  /var/folders/v1/156fk8j97zv9pzndh61fy7zm0000gn/T//ccyHp6tG.s 			page 158


 5707              		.loc 13 159 27 is_stmt 0 view .LVU1723
 5708 021a 0123     		movs	r3, #1
 5709 021c 05F8143C 		strb	r3, [r5, #-20]
 165:../temp_time_machine/DaisyExamples/DaisySP//Source/Effects/pitchshifter.h ****             if(mod_freq_ < 0.0f)
 5710              		.loc 13 165 13 is_stmt 1 view .LVU1724
 166:../temp_time_machine/DaisyExamples/DaisySP//Source/Effects/pitchshifter.h ****             {
 5711              		.loc 13 166 13 view .LVU1725
 170:../temp_time_machine/DaisyExamples/DaisySP//Source/Effects/pitchshifter.h ****             phs_[1].SetFreq(mod_freq_);
 5712              		.loc 13 170 13 view .LVU1726
 165:../temp_time_machine/DaisyExamples/DaisySP//Source/Effects/pitchshifter.h ****             if(mod_freq_ < 0.0f)
 5713              		.loc 13 165 41 is_stmt 0 view .LVU1727
 5714 0220 67EE877A 		vmul.f32	s15, s15, s14
 165:../temp_time_machine/DaisyExamples/DaisySP//Source/Effects/pitchshifter.h ****             if(mod_freq_ < 0.0f)
 5715              		.loc 13 165 48 view .LVU1728
 5716 0224 15ED087A 		vldr.32	s14, [r5, #-32]	@ int
 5717 0228 B8EE477A 		vcvt.f32.u32	s14, s14
 5718 022c C7EE876A 		vdiv.f32	s13, s15, s14
 5719 0230 F4EEC06A 		vcmpe.f32	s13, s0
 5720 0234 F1EE10FA 		vmrs	APSR_nzcv, FPSCR
 5721 0238 58BF     		it	pl
 5722 023a B0EE660A 		vmovpl.f32	s0, s13
 5723 023e 05ED090A 		vstr.32	s0, [r5, #-36]
 170:../temp_time_machine/DaisyExamples/DaisySP//Source/Effects/pitchshifter.h ****             phs_[1].SetFreq(mod_freq_);
 5724              		.loc 13 170 28 view .LVU1729
 5725 0242 FFF7FEFF 		bl	_ZN7daisysp6Phasor7SetFreqEf
 5726              	.LVL348:
 171:../temp_time_machine/DaisyExamples/DaisySP//Source/Effects/pitchshifter.h ****             if(force_recalc_)
 5727              		.loc 13 171 13 is_stmt 1 view .LVU1730
 171:../temp_time_machine/DaisyExamples/DaisySP//Source/Effects/pitchshifter.h ****             if(force_recalc_)
 5728              		.loc 13 171 28 is_stmt 0 view .LVU1731
 5729 0246 15ED090A 		vldr.32	s0, [r5, #-36]
 5730 024a 2846     		mov	r0, r5
 5731 024c FFF7FEFF 		bl	_ZN7daisysp6Phasor7SetFreqEf
 5732              	.LVL349:
 172:../temp_time_machine/DaisyExamples/DaisySP//Source/Effects/pitchshifter.h ****             {
 5733              		.loc 13 172 13 is_stmt 1 view .LVU1732
 174:../temp_time_machine/DaisyExamples/DaisySP//Source/Effects/pitchshifter.h ****             }
 5734              		.loc 13 174 17 view .LVU1733
 5735 0250 D5ED087A 		vldr.32	s15, [r5, #32]
 5736              	.LVL350:
 5737              	.L240:
 174:../temp_time_machine/DaisyExamples/DaisySP//Source/Effects/pitchshifter.h ****             }
 5738              		.loc 13 174 17 is_stmt 0 view .LVU1734
 5739              	.LBE1384:
 5740              	.LBE1388:
 5741              	.LBB1389:
 5742              	.LBI1389:
 181:../temp_time_machine/DaisyExamples/DaisySP//Source/Effects/pitchshifter.h ****     {
 5743              		.loc 13 181 10 is_stmt 1 view .LVU1735
 5744              	.LBB1390:
 183:../temp_time_machine/DaisyExamples/DaisySP//Source/Effects/pitchshifter.h ****         force_recalc_ = true;
 5745              		.loc 13 183 9 view .LVU1736
 5746              	.LBB1391:
 5747              	.LBB1392:
 154:../temp_time_machine/DaisyExamples/DaisySP//Source/Effects/pitchshifter.h ****             ratio      = semitone_ratios_[idx % 12];
 5748              		.loc 13 154 40 is_stmt 0 view .LVU1737
 5749 0254 F0EEE76A 		vabs.f32	s13, s15
ARM GAS  /var/folders/v1/156fk8j97zv9pzndh61fy7zm0000gn/T//ccyHp6tG.s 			page 159


 5750              	.LBE1392:
 5751              	.LBE1391:
 183:../temp_time_machine/DaisyExamples/DaisySP//Source/Effects/pitchshifter.h ****         force_recalc_ = true;
 5752              		.loc 13 183 23 view .LVU1738
 5753 0258 4FF4C863 		mov	r3, #1600
 5754              	.LBB1397:
 5755              	.LBB1393:
 156:../temp_time_machine/DaisyExamples/DaisySP//Source/Effects/pitchshifter.h ****             if(transpose > 0.0f)
 5756              		.loc 13 156 49 view .LVU1739
 5757 025c F2EE084A 		vmov.f32	s9, #1.2e+1
 155:../temp_time_machine/DaisyExamples/DaisySP//Source/Effects/pitchshifter.h ****             ratio *= (uint8_t)(fabsf(transpose) / 12) + 1;
 5758              		.loc 13 155 47 view .LVU1740
 5759 0260 5F4A     		ldr	r2, .L259+28
 157:../temp_time_machine/DaisyExamples/DaisySP//Source/Effects/pitchshifter.h ****             {
 5760              		.loc 13 157 13 view .LVU1741
 5761 0262 F5EEC07A 		vcmpe.f32	s15, #0
 5762              	.LBE1393:
 5763              	.LBE1397:
 183:../temp_time_machine/DaisyExamples/DaisySP//Source/Effects/pitchshifter.h ****         force_recalc_ = true;
 5764              		.loc 13 183 23 view .LVU1742
 5765 0266 45F8203C 		str	r3, [r5, #-32]
 184:../temp_time_machine/DaisyExamples/DaisySP//Source/Effects/pitchshifter.h ****         SetTransposition(transpose_);
 5766              		.loc 13 184 23 view .LVU1743
 5767 026a 0123     		movs	r3, #1
 5768              	.LBB1398:
 5769              	.LBB1394:
 153:../temp_time_machine/DaisyExamples/DaisySP//Source/Effects/pitchshifter.h ****             idx        = (uint8_t)fabsf(transpose);
 5770              		.loc 13 153 24 view .LVU1744
 5771 026c C5ED087A 		vstr.32	s15, [r5, #32]
 156:../temp_time_machine/DaisyExamples/DaisySP//Source/Effects/pitchshifter.h ****             if(transpose > 0.0f)
 5772              		.loc 13 156 49 view .LVU1745
 5773 0270 86EEA45A 		vdiv.f32	s10, s13, s9
 5774              	.LBE1394:
 5775              	.LBE1398:
 184:../temp_time_machine/DaisyExamples/DaisySP//Source/Effects/pitchshifter.h ****         SetTransposition(transpose_);
 5776              		.loc 13 184 9 is_stmt 1 view .LVU1746
 5777              	.LBB1399:
 5778              	.LBB1395:
 165:../temp_time_machine/DaisyExamples/DaisySP//Source/Effects/pitchshifter.h ****             if(mod_freq_ < 0.0f)
 5779              		.loc 13 165 41 is_stmt 0 view .LVU1747
 5780 0274 55ED065A 		vldr.32	s11, [r5, #-24]
 5781              	.LBE1395:
 5782              	.LBE1399:
 184:../temp_time_machine/DaisyExamples/DaisySP//Source/Effects/pitchshifter.h ****         SetTransposition(transpose_);
 5783              		.loc 13 184 23 view .LVU1748
 5784 0278 05F81C3C 		strb	r3, [r5, #-28]
 185:../temp_time_machine/DaisyExamples/DaisySP//Source/Effects/pitchshifter.h ****     }
 5785              		.loc 13 185 9 is_stmt 1 view .LVU1749
 5786              	.LVL351:
 5787              	.LBB1400:
 5788              	.LBI1391:
 147:../temp_time_machine/DaisyExamples/DaisySP//Source/Effects/pitchshifter.h ****     {
 5789              		.loc 13 147 10 view .LVU1750
 5790              	.LBB1396:
 149:../temp_time_machine/DaisyExamples/DaisySP//Source/Effects/pitchshifter.h ****         uint8_t idx;
 5791              		.loc 13 149 9 view .LVU1751
 150:../temp_time_machine/DaisyExamples/DaisySP//Source/Effects/pitchshifter.h ****         if(transpose_ != transpose || force_recalc_)
ARM GAS  /var/folders/v1/156fk8j97zv9pzndh61fy7zm0000gn/T//ccyHp6tG.s 			page 160


 5792              		.loc 13 150 9 view .LVU1752
 151:../temp_time_machine/DaisyExamples/DaisySP//Source/Effects/pitchshifter.h ****         {
 5793              		.loc 13 151 9 view .LVU1753
 153:../temp_time_machine/DaisyExamples/DaisySP//Source/Effects/pitchshifter.h ****             idx        = (uint8_t)fabsf(transpose);
 5794              		.loc 13 153 13 view .LVU1754
 154:../temp_time_machine/DaisyExamples/DaisySP//Source/Effects/pitchshifter.h ****             ratio      = semitone_ratios_[idx % 12];
 5795              		.loc 13 154 13 view .LVU1755
 155:../temp_time_machine/DaisyExamples/DaisySP//Source/Effects/pitchshifter.h ****             ratio *= (uint8_t)(fabsf(transpose) / 12) + 1;
 5796              		.loc 13 155 13 view .LVU1756
 170:../temp_time_machine/DaisyExamples/DaisySP//Source/Effects/pitchshifter.h ****             phs_[1].SetFreq(mod_freq_);
 5797              		.loc 13 170 28 is_stmt 0 view .LVU1757
 5798 027c 3046     		mov	r0, r6
 165:../temp_time_machine/DaisyExamples/DaisySP//Source/Effects/pitchshifter.h ****             if(mod_freq_ < 0.0f)
 5799              		.loc 13 165 48 view .LVU1758
 5800 027e 9FED5B6A 		vldr.32	s12, .L259+40
 5801 0282 9FED540A 		vldr.32	s0, .L259+16
 157:../temp_time_machine/DaisyExamples/DaisySP//Source/Effects/pitchshifter.h ****             {
 5802              		.loc 13 157 13 view .LVU1759
 5803 0286 F1EE10FA 		vmrs	APSR_nzcv, FPSCR
 154:../temp_time_machine/DaisyExamples/DaisySP//Source/Effects/pitchshifter.h ****             ratio      = semitone_ratios_[idx % 12];
 5804              		.loc 13 154 24 view .LVU1760
 5805 028a FCEEE66A 		vcvt.u32.f32	s13, s13
 5806              	.LVL352:
 165:../temp_time_machine/DaisyExamples/DaisySP//Source/Effects/pitchshifter.h ****             if(mod_freq_ < 0.0f)
 5807              		.loc 13 165 33 view .LVU1761
 5808 028e BFEE007A 		vmov.f32	s14, #-1.0e+0
 157:../temp_time_machine/DaisyExamples/DaisySP//Source/Effects/pitchshifter.h ****             {
 5809              		.loc 13 157 13 view .LVU1762
 5810 0292 CCBF     		ite	gt
 5811 0294 1946     		movgt	r1, r3
 5812 0296 0021     		movle	r1, #0
 154:../temp_time_machine/DaisyExamples/DaisySP//Source/Effects/pitchshifter.h ****             ratio      = semitone_ratios_[idx % 12];
 5813              		.loc 13 154 24 view .LVU1763
 5814 0298 CDED006A 		vstr.32	s13, [sp]	@ int
 155:../temp_time_machine/DaisyExamples/DaisySP//Source/Effects/pitchshifter.h ****             ratio *= (uint8_t)(fabsf(transpose) / 12) + 1;
 5815              		.loc 13 155 47 view .LVU1764
 5816 029c 9DF80030 		ldrb	r3, [sp]	@ zero_extendqisi2
 5817 02a0 A2FB0342 		umull	r4, r2, r2, r3
 5818 02a4 D208     		lsrs	r2, r2, #3
 5819 02a6 02EB4202 		add	r2, r2, r2, lsl #1
 156:../temp_time_machine/DaisyExamples/DaisySP//Source/Effects/pitchshifter.h ****             if(transpose > 0.0f)
 5820              		.loc 13 156 22 view .LVU1765
 5821 02aa FCEEC57A 		vcvt.u32.f32	s15, s10
 5822              	.LVL353:
 155:../temp_time_machine/DaisyExamples/DaisySP//Source/Effects/pitchshifter.h ****             ratio *= (uint8_t)(fabsf(transpose) / 12) + 1;
 5823              		.loc 13 155 47 view .LVU1766
 5824 02ae A3EB8203 		sub	r3, r3, r2, lsl #2
 155:../temp_time_machine/DaisyExamples/DaisySP//Source/Effects/pitchshifter.h ****             ratio *= (uint8_t)(fabsf(transpose) / 12) + 1;
 5825              		.loc 13 155 24 view .LVU1767
 5826 02b2 48F22E02 		movw	r2, #32814
 156:../temp_time_machine/DaisyExamples/DaisySP//Source/Effects/pitchshifter.h ****             if(transpose > 0.0f)
 5827              		.loc 13 156 22 view .LVU1768
 5828 02b6 CDED017A 		vstr.32	s15, [sp, #4]	@ int
 155:../temp_time_machine/DaisyExamples/DaisySP//Source/Effects/pitchshifter.h ****             ratio *= (uint8_t)(fabsf(transpose) / 12) + 1;
 5829              		.loc 13 155 24 view .LVU1769
 5830 02ba 02FB09F2 		mul	r2, r2, r9
 5831 02be 52FA83F3 		uxtab	r3, r2, r3
ARM GAS  /var/folders/v1/156fk8j97zv9pzndh61fy7zm0000gn/T//ccyHp6tG.s 			page 161


 5832 02c2 48F65A32 		movw	r2, #35674
 5833 02c6 1A44     		add	r2, r2, r3
 156:../temp_time_machine/DaisyExamples/DaisySP//Source/Effects/pitchshifter.h ****             if(transpose > 0.0f)
 5834              		.loc 13 156 22 view .LVU1770
 5835 02c8 9DF80430 		ldrb	r3, [sp, #4]	@ zero_extendqisi2
 156:../temp_time_machine/DaisyExamples/DaisySP//Source/Effects/pitchshifter.h ****             if(transpose > 0.0f)
 5836              		.loc 13 156 55 view .LVU1771
 5837 02cc 0133     		adds	r3, r3, #1
 155:../temp_time_machine/DaisyExamples/DaisySP//Source/Effects/pitchshifter.h ****             ratio *= (uint8_t)(fabsf(transpose) / 12) + 1;
 5838              		.loc 13 155 24 view .LVU1772
 5839 02ce 08EB8202 		add	r2, r8, r2, lsl #2
 156:../temp_time_machine/DaisyExamples/DaisySP//Source/Effects/pitchshifter.h ****             if(transpose > 0.0f)
 5840              		.loc 13 156 19 view .LVU1773
 5841 02d2 07EE903A 		vmov	s15, r3	@ int
 155:../temp_time_machine/DaisyExamples/DaisySP//Source/Effects/pitchshifter.h ****             ratio *= (uint8_t)(fabsf(transpose) / 12) + 1;
 5842              		.loc 13 155 24 view .LVU1774
 5843 02d6 D2ED016A 		vldr.32	s13, [r2, #4]
 5844              	.LVL354:
 156:../temp_time_machine/DaisyExamples/DaisySP//Source/Effects/pitchshifter.h ****             if(transpose > 0.0f)
 5845              		.loc 13 156 13 is_stmt 1 view .LVU1775
 157:../temp_time_machine/DaisyExamples/DaisySP//Source/Effects/pitchshifter.h ****             {
 5846              		.loc 13 157 13 view .LVU1776
 5847 02da 05F8141C 		strb	r1, [r5, #-20]
 165:../temp_time_machine/DaisyExamples/DaisySP//Source/Effects/pitchshifter.h ****             if(mod_freq_ < 0.0f)
 5848              		.loc 13 165 13 view .LVU1777
 156:../temp_time_machine/DaisyExamples/DaisySP//Source/Effects/pitchshifter.h ****             if(transpose > 0.0f)
 5849              		.loc 13 156 19 is_stmt 0 view .LVU1778
 5850 02de F8EEE77A 		vcvt.f32.s32	s15, s15
 165:../temp_time_machine/DaisyExamples/DaisySP//Source/Effects/pitchshifter.h ****             if(mod_freq_ < 0.0f)
 5851              		.loc 13 165 33 view .LVU1779
 5852 02e2 A6EEA77A 		vfma.f32	s14, s13, s15
 165:../temp_time_machine/DaisyExamples/DaisySP//Source/Effects/pitchshifter.h ****             if(mod_freq_ < 0.0f)
 5853              		.loc 13 165 41 view .LVU1780
 5854 02e6 67EE257A 		vmul.f32	s15, s14, s11
 165:../temp_time_machine/DaisyExamples/DaisySP//Source/Effects/pitchshifter.h ****             if(mod_freq_ < 0.0f)
 5855              		.loc 13 165 48 view .LVU1781
 5856 02ea 87EE867A 		vdiv.f32	s14, s15, s12
 166:../temp_time_machine/DaisyExamples/DaisySP//Source/Effects/pitchshifter.h ****             {
 5857              		.loc 13 166 13 is_stmt 1 view .LVU1782
 5858 02ee B4EEC07A 		vcmpe.f32	s14, s0
 5859 02f2 F1EE10FA 		vmrs	APSR_nzcv, FPSCR
 5860 02f6 58BF     		it	pl
 5861 02f8 B0EE470A 		vmovpl.f32	s0, s14
 5862 02fc 05ED090A 		vstr.32	s0, [r5, #-36]
 170:../temp_time_machine/DaisyExamples/DaisySP//Source/Effects/pitchshifter.h ****             phs_[1].SetFreq(mod_freq_);
 5863              		.loc 13 170 13 view .LVU1783
 170:../temp_time_machine/DaisyExamples/DaisySP//Source/Effects/pitchshifter.h ****             phs_[1].SetFreq(mod_freq_);
 5864              		.loc 13 170 28 is_stmt 0 view .LVU1784
 5865 0300 FFF7FEFF 		bl	_ZN7daisysp6Phasor7SetFreqEf
 5866              	.LVL355:
 171:../temp_time_machine/DaisyExamples/DaisySP//Source/Effects/pitchshifter.h ****             if(force_recalc_)
 5867              		.loc 13 171 13 is_stmt 1 view .LVU1785
 171:../temp_time_machine/DaisyExamples/DaisySP//Source/Effects/pitchshifter.h ****             if(force_recalc_)
 5868              		.loc 13 171 28 is_stmt 0 view .LVU1786
 5869 0304 15ED090A 		vldr.32	s0, [r5, #-36]
 5870 0308 2846     		mov	r0, r5
 5871 030a FFF7FEFF 		bl	_ZN7daisysp6Phasor7SetFreqEf
ARM GAS  /var/folders/v1/156fk8j97zv9pzndh61fy7zm0000gn/T//ccyHp6tG.s 			page 162


 5872              	.LVL356:
 172:../temp_time_machine/DaisyExamples/DaisySP//Source/Effects/pitchshifter.h ****             {
 5873              		.loc 13 172 13 is_stmt 1 view .LVU1787
 5874 030e 15F81C3C 		ldrb	r3, [r5, #-28]	@ zero_extendqisi2
 5875 0312 13B1     		cbz	r3, .L241
 174:../temp_time_machine/DaisyExamples/DaisySP//Source/Effects/pitchshifter.h ****             }
 5876              		.loc 13 174 17 view .LVU1788
 174:../temp_time_machine/DaisyExamples/DaisySP//Source/Effects/pitchshifter.h ****             }
 5877              		.loc 13 174 31 is_stmt 0 view .LVU1789
 5878 0314 0023     		movs	r3, #0
 5879 0316 05F81C3C 		strb	r3, [r5, #-28]
 5880              	.L241:
 5881              	.LVL357:
 174:../temp_time_machine/DaisyExamples/DaisySP//Source/Effects/pitchshifter.h ****             }
 5882              		.loc 13 174 31 view .LVU1790
 5883              	.LBE1396:
 5884              	.LBE1400:
 5885              	.LBE1390:
 5886              	.LBE1389:
 116:uber_fdn.h    ****       shimmers_[i].Init(sample_rate);
 5887              		.loc 9 116 5 is_stmt 1 discriminator 3 view .LVU1791
 5888 031a 09F10102 		add	r2, r9, #1
 5889              	.LVL358:
 116:uber_fdn.h    ****       shimmers_[i].Init(sample_rate);
 5890              		.loc 9 116 23 discriminator 1 view .LVU1792
 5891 031e 344B     		ldr	r3, .L259+44
 5892 0320 4FF00109 		mov	r9, #1
 5893 0324 022A     		cmp	r2, #2
 5894 0326 1D44     		add	r5, r5, r3
 5895 0328 1F44     		add	r7, r7, r3
 5896 032a 9A44     		add	r10, r10, r3
 5897 032c 7FF4B0AE 		bne	.L242
 5898              	.LBE1326:
 5899              	.LBB1401:
 5900              	.LBB1402:
 5901              	.LBB1403:
 5902              		.file 18 "../temp_time_machine/DaisyExamples/DaisySP//Source/Synthesis/oscillator.h"
   1:../temp_time_machine/DaisyExamples/DaisySP//Source/Synthesis/oscillator.h **** /*
   2:../temp_time_machine/DaisyExamples/DaisySP//Source/Synthesis/oscillator.h **** Copyright (c) 2020 Electrosmith, Corp
   3:../temp_time_machine/DaisyExamples/DaisySP//Source/Synthesis/oscillator.h **** 
   4:../temp_time_machine/DaisyExamples/DaisySP//Source/Synthesis/oscillator.h **** Use of this source code is governed by an MIT-style
   5:../temp_time_machine/DaisyExamples/DaisySP//Source/Synthesis/oscillator.h **** license that can be found in the LICENSE file or at
   6:../temp_time_machine/DaisyExamples/DaisySP//Source/Synthesis/oscillator.h **** https://opensource.org/licenses/MIT.
   7:../temp_time_machine/DaisyExamples/DaisySP//Source/Synthesis/oscillator.h **** */
   8:../temp_time_machine/DaisyExamples/DaisySP//Source/Synthesis/oscillator.h **** 
   9:../temp_time_machine/DaisyExamples/DaisySP//Source/Synthesis/oscillator.h **** #pragma once
  10:../temp_time_machine/DaisyExamples/DaisySP//Source/Synthesis/oscillator.h **** #ifndef DSY_OSCILLATOR_H
  11:../temp_time_machine/DaisyExamples/DaisySP//Source/Synthesis/oscillator.h **** #define DSY_OSCILLATOR_H
  12:../temp_time_machine/DaisyExamples/DaisySP//Source/Synthesis/oscillator.h **** #include <stdint.h>
  13:../temp_time_machine/DaisyExamples/DaisySP//Source/Synthesis/oscillator.h **** #include "Utility/dsp.h"
  14:../temp_time_machine/DaisyExamples/DaisySP//Source/Synthesis/oscillator.h **** #ifdef __cplusplus
  15:../temp_time_machine/DaisyExamples/DaisySP//Source/Synthesis/oscillator.h **** 
  16:../temp_time_machine/DaisyExamples/DaisySP//Source/Synthesis/oscillator.h **** namespace daisysp
  17:../temp_time_machine/DaisyExamples/DaisySP//Source/Synthesis/oscillator.h **** {
  18:../temp_time_machine/DaisyExamples/DaisySP//Source/Synthesis/oscillator.h **** /** Synthesis of several waveforms, including polyBLEP bandlimited waveforms.
  19:../temp_time_machine/DaisyExamples/DaisySP//Source/Synthesis/oscillator.h **** */
  20:../temp_time_machine/DaisyExamples/DaisySP//Source/Synthesis/oscillator.h **** class Oscillator
ARM GAS  /var/folders/v1/156fk8j97zv9pzndh61fy7zm0000gn/T//ccyHp6tG.s 			page 163


  21:../temp_time_machine/DaisyExamples/DaisySP//Source/Synthesis/oscillator.h **** {
  22:../temp_time_machine/DaisyExamples/DaisySP//Source/Synthesis/oscillator.h ****   public:
  23:../temp_time_machine/DaisyExamples/DaisySP//Source/Synthesis/oscillator.h ****     Oscillator() {}
  24:../temp_time_machine/DaisyExamples/DaisySP//Source/Synthesis/oscillator.h ****     ~Oscillator() {}
  25:../temp_time_machine/DaisyExamples/DaisySP//Source/Synthesis/oscillator.h ****     /** Choices for output waveforms, POLYBLEP are appropriately labeled. Others are naive forms.
  26:../temp_time_machine/DaisyExamples/DaisySP//Source/Synthesis/oscillator.h ****     */
  27:../temp_time_machine/DaisyExamples/DaisySP//Source/Synthesis/oscillator.h ****     enum
  28:../temp_time_machine/DaisyExamples/DaisySP//Source/Synthesis/oscillator.h ****     {
  29:../temp_time_machine/DaisyExamples/DaisySP//Source/Synthesis/oscillator.h ****         WAVE_SIN,
  30:../temp_time_machine/DaisyExamples/DaisySP//Source/Synthesis/oscillator.h ****         WAVE_TRI,
  31:../temp_time_machine/DaisyExamples/DaisySP//Source/Synthesis/oscillator.h ****         WAVE_SAW,
  32:../temp_time_machine/DaisyExamples/DaisySP//Source/Synthesis/oscillator.h ****         WAVE_RAMP,
  33:../temp_time_machine/DaisyExamples/DaisySP//Source/Synthesis/oscillator.h ****         WAVE_SQUARE,
  34:../temp_time_machine/DaisyExamples/DaisySP//Source/Synthesis/oscillator.h ****         WAVE_POLYBLEP_TRI,
  35:../temp_time_machine/DaisyExamples/DaisySP//Source/Synthesis/oscillator.h ****         WAVE_POLYBLEP_SAW,
  36:../temp_time_machine/DaisyExamples/DaisySP//Source/Synthesis/oscillator.h ****         WAVE_POLYBLEP_SQUARE,
  37:../temp_time_machine/DaisyExamples/DaisySP//Source/Synthesis/oscillator.h ****         WAVE_LAST,
  38:../temp_time_machine/DaisyExamples/DaisySP//Source/Synthesis/oscillator.h ****     };
  39:../temp_time_machine/DaisyExamples/DaisySP//Source/Synthesis/oscillator.h **** 
  40:../temp_time_machine/DaisyExamples/DaisySP//Source/Synthesis/oscillator.h **** 
  41:../temp_time_machine/DaisyExamples/DaisySP//Source/Synthesis/oscillator.h ****     /** Initializes the Oscillator
  42:../temp_time_machine/DaisyExamples/DaisySP//Source/Synthesis/oscillator.h **** 
  43:../temp_time_machine/DaisyExamples/DaisySP//Source/Synthesis/oscillator.h ****         \param sample_rate - sample rate of the audio engine being run, and the frequency that the 
  44:../temp_time_machine/DaisyExamples/DaisySP//Source/Synthesis/oscillator.h **** 
  45:../temp_time_machine/DaisyExamples/DaisySP//Source/Synthesis/oscillator.h ****         Defaults:
  46:../temp_time_machine/DaisyExamples/DaisySP//Source/Synthesis/oscillator.h ****         - freq_ = 100 Hz
  47:../temp_time_machine/DaisyExamples/DaisySP//Source/Synthesis/oscillator.h ****         - amp_ = 0.5
  48:../temp_time_machine/DaisyExamples/DaisySP//Source/Synthesis/oscillator.h ****         - waveform_ = sine wave.
  49:../temp_time_machine/DaisyExamples/DaisySP//Source/Synthesis/oscillator.h ****     */
  50:../temp_time_machine/DaisyExamples/DaisySP//Source/Synthesis/oscillator.h ****     void Init(float sample_rate)
  51:../temp_time_machine/DaisyExamples/DaisySP//Source/Synthesis/oscillator.h ****     {
  52:../temp_time_machine/DaisyExamples/DaisySP//Source/Synthesis/oscillator.h ****         sr_        = sample_rate;
  53:../temp_time_machine/DaisyExamples/DaisySP//Source/Synthesis/oscillator.h ****         sr_recip_  = 1.0f / sample_rate;
 5903              		.loc 18 53 27 is_stmt 0 view .LVU1793
 5904 0330 F7EE007A 		vmov.f32	s15, #1.0e+0
 5905 0334 42F6242A 		movw	r10, #10788
 5906 0338 42F68429 		movw	r9, #10884
 5907 033c C244     		add	r10, r10, r8
 5908 033e 87EEA8AA 		vdiv.f32	s20, s15, s17
 5909 0342 C144     		add	r9, r9, r8
 5910              	.LBE1403:
 5911              	.LBE1402:
 123:uber_fdn.h    ****       // LFO for Studio/Shimmer
 5912              		.loc 9 123 14 view .LVU1794
 5913 0344 4FF00008 		mov	r8, #0
 5914              	.LVL359:
 5915              	.LBB1409:
 5916              	.LBB1404:
 5917              		.loc 18 53 27 view .LVU1795
 5918 0348 DDE902B4 		ldrd	fp, r4, [sp, #8]
 5919              	.LBE1404:
 5920              	.LBE1409:
 123:uber_fdn.h    ****       // LFO for Studio/Shimmer
 5921              		.loc 9 123 14 view .LVU1796
 5922 034c CDF804B0 		str	fp, [sp, #4]
 5923              	.LVL360:
 5924              	.L243:
ARM GAS  /var/folders/v1/156fk8j97zv9pzndh61fy7zm0000gn/T//ccyHp6tG.s 			page 164


 5925              	.LBB1410:
 5926              	.LBI1402:
  50:../temp_time_machine/DaisyExamples/DaisySP//Source/Synthesis/oscillator.h ****     {
 5927              		.loc 18 50 10 is_stmt 1 view .LVU1797
 5928              	.LBB1405:
  52:../temp_time_machine/DaisyExamples/DaisySP//Source/Synthesis/oscillator.h ****         sr_recip_  = 1.0f / sample_rate;
 5929              		.loc 18 52 9 view .LVU1798
  54:../temp_time_machine/DaisyExamples/DaisySP//Source/Synthesis/oscillator.h ****         freq_      = 100.0f;
  55:../temp_time_machine/DaisyExamples/DaisySP//Source/Synthesis/oscillator.h ****         amp_       = 0.5f;
 5930              		.loc 18 55 20 is_stmt 0 view .LVU1799
 5931 0350 4FF07C55 		mov	r5, #1056964608
  54:../temp_time_machine/DaisyExamples/DaisySP//Source/Synthesis/oscillator.h ****         freq_      = 100.0f;
 5932              		.loc 18 54 20 view .LVU1800
 5933 0354 9FED278A 		vldr.32	s16, .L259+48
  56:../temp_time_machine/DaisyExamples/DaisySP//Source/Synthesis/oscillator.h ****         pw_        = 0.5f;
  57:../temp_time_machine/DaisyExamples/DaisySP//Source/Synthesis/oscillator.h ****         phase_     = 0.0f;
 5934              		.loc 18 57 20 view .LVU1801
 5935 0358 0026     		movs	r6, #0
  58:../temp_time_machine/DaisyExamples/DaisySP//Source/Synthesis/oscillator.h ****         phase_inc_ = CalcPhaseInc(freq_);
 5936              		.loc 18 58 34 view .LVU1802
 5937 035a 2046     		mov	r0, r4
  52:../temp_time_machine/DaisyExamples/DaisySP//Source/Synthesis/oscillator.h ****         sr_recip_  = 1.0f / sample_rate;
 5938              		.loc 18 52 20 view .LVU1803
 5939 035c C4ED048A 		vstr.32	s17, [r4, #16]
  53:../temp_time_machine/DaisyExamples/DaisySP//Source/Synthesis/oscillator.h ****         freq_      = 100.0f;
 5940              		.loc 18 53 9 is_stmt 1 view .LVU1804
 5941              		.loc 18 58 34 is_stmt 0 view .LVU1805
 5942 0360 B0EE480A 		vmov.f32	s0, s16
  53:../temp_time_machine/DaisyExamples/DaisySP//Source/Synthesis/oscillator.h ****         freq_      = 100.0f;
 5943              		.loc 18 53 20 view .LVU1806
 5944 0364 84ED05AA 		vstr.32	s20, [r4, #20]
  54:../temp_time_machine/DaisyExamples/DaisySP//Source/Synthesis/oscillator.h ****         amp_       = 0.5f;
 5945              		.loc 18 54 9 is_stmt 1 view .LVU1807
  59:../temp_time_machine/DaisyExamples/DaisySP//Source/Synthesis/oscillator.h ****         waveform_  = WAVE_SIN;
 5946              		.loc 18 59 20 is_stmt 0 view .LVU1808
 5947 0368 4FF0000B 		mov	fp, #0
  54:../temp_time_machine/DaisyExamples/DaisySP//Source/Synthesis/oscillator.h ****         amp_       = 0.5f;
 5948              		.loc 18 54 20 view .LVU1809
 5949 036c 84ED028A 		vstr.32	s16, [r4, #8]
  55:../temp_time_machine/DaisyExamples/DaisySP//Source/Synthesis/oscillator.h ****         pw_        = 0.5f;
 5950              		.loc 18 55 9 is_stmt 1 view .LVU1810
  60:../temp_time_machine/DaisyExamples/DaisySP//Source/Synthesis/oscillator.h ****         eoc_       = true;
  61:../temp_time_machine/DaisyExamples/DaisySP//Source/Synthesis/oscillator.h ****         eor_       = true;
 5951              		.loc 18 61 20 is_stmt 0 view .LVU1811
 5952 0370 40F20117 		movw	r7, #257
  55:../temp_time_machine/DaisyExamples/DaisySP//Source/Synthesis/oscillator.h ****         pw_        = 0.5f;
 5953              		.loc 18 55 20 view .LVU1812
 5954 0374 6560     		str	r5, [r4, #4]	@ float
  56:../temp_time_machine/DaisyExamples/DaisySP//Source/Synthesis/oscillator.h ****         phase_     = 0.0f;
 5955              		.loc 18 56 9 is_stmt 1 view .LVU1813
  56:../temp_time_machine/DaisyExamples/DaisySP//Source/Synthesis/oscillator.h ****         phase_     = 0.0f;
 5956              		.loc 18 56 20 is_stmt 0 view .LVU1814
 5957 0376 E560     		str	r5, [r4, #12]	@ float
  57:../temp_time_machine/DaisyExamples/DaisySP//Source/Synthesis/oscillator.h ****         phase_inc_ = CalcPhaseInc(freq_);
 5958              		.loc 18 57 9 is_stmt 1 view .LVU1815
  57:../temp_time_machine/DaisyExamples/DaisySP//Source/Synthesis/oscillator.h ****         phase_inc_ = CalcPhaseInc(freq_);
 5959              		.loc 18 57 20 is_stmt 0 view .LVU1816
ARM GAS  /var/folders/v1/156fk8j97zv9pzndh61fy7zm0000gn/T//ccyHp6tG.s 			page 165


 5960 0378 A661     		str	r6, [r4, #24]	@ float
  58:../temp_time_machine/DaisyExamples/DaisySP//Source/Synthesis/oscillator.h ****         waveform_  = WAVE_SIN;
 5961              		.loc 18 58 9 is_stmt 1 view .LVU1817
  58:../temp_time_machine/DaisyExamples/DaisySP//Source/Synthesis/oscillator.h ****         waveform_  = WAVE_SIN;
 5962              		.loc 18 58 34 is_stmt 0 view .LVU1818
 5963 037a FFF7FEFF 		bl	_ZN7daisysp10Oscillator12CalcPhaseIncEf
 5964              	.LVL361:
 5965              	.LBE1405:
 5966              	.LBE1410:
 128:uber_fdn.h    **** 
 5967              		.loc 9 128 22 view .LVU1819
 5968 037e 9FED1E9A 		vldr.32	s18, .L259+52
 128:uber_fdn.h    **** 
 5969              		.loc 9 128 33 view .LVU1820
 5970 0382 07EE908A 		vmov	s15, r8	@ int
 128:uber_fdn.h    **** 
 5971              		.loc 9 128 22 view .LVU1821
 5972 0386 9FED1D7A 		vldr.32	s14, .L259+56
 5973              	.LBB1411:
 5974              	.LBB1412:
  62:../temp_time_machine/DaisyExamples/DaisySP//Source/Synthesis/oscillator.h ****     }
  63:../temp_time_machine/DaisyExamples/DaisySP//Source/Synthesis/oscillator.h **** 
  64:../temp_time_machine/DaisyExamples/DaisySP//Source/Synthesis/oscillator.h **** 
  65:../temp_time_machine/DaisyExamples/DaisySP//Source/Synthesis/oscillator.h ****     /** Changes the frequency of the Oscillator, and recalculates phase increment.
  66:../temp_time_machine/DaisyExamples/DaisySP//Source/Synthesis/oscillator.h ****     */
  67:../temp_time_machine/DaisyExamples/DaisySP//Source/Synthesis/oscillator.h ****     inline void SetFreq(const float f)
  68:../temp_time_machine/DaisyExamples/DaisySP//Source/Synthesis/oscillator.h ****     {
  69:../temp_time_machine/DaisyExamples/DaisySP//Source/Synthesis/oscillator.h ****         freq_      = f;
  70:../temp_time_machine/DaisyExamples/DaisySP//Source/Synthesis/oscillator.h ****         phase_inc_ = CalcPhaseInc(f);
  71:../temp_time_machine/DaisyExamples/DaisySP//Source/Synthesis/oscillator.h ****     }
  72:../temp_time_machine/DaisyExamples/DaisySP//Source/Synthesis/oscillator.h **** 
  73:../temp_time_machine/DaisyExamples/DaisySP//Source/Synthesis/oscillator.h **** 
  74:../temp_time_machine/DaisyExamples/DaisySP//Source/Synthesis/oscillator.h ****     /** Sets the amplitude of the waveform.
  75:../temp_time_machine/DaisyExamples/DaisySP//Source/Synthesis/oscillator.h ****     */
  76:../temp_time_machine/DaisyExamples/DaisySP//Source/Synthesis/oscillator.h ****     inline void SetAmp(const float a) { amp_ = a; }
 5975              		.loc 18 76 46 view .LVU1822
 5976 038a 4FF07E52 		mov	r2, #1065353216
 5977              	.LBE1412:
 5978              	.LBE1411:
 5979              	.LBB1415:
 5980              	.LBB1416:
  70:../temp_time_machine/DaisyExamples/DaisySP//Source/Synthesis/oscillator.h ****     }
 5981              		.loc 18 70 34 view .LVU1823
 5982 038e 2046     		mov	r0, r4
 5983              	.LBE1416:
 5984              	.LBE1415:
 128:uber_fdn.h    **** 
 5985              		.loc 9 128 33 view .LVU1824
 5986 0390 F8EEE79A 		vcvt.f32.s32	s19, s15
 5987              	.LBB1419:
 5988              	.LBB1406:
  58:../temp_time_machine/DaisyExamples/DaisySP//Source/Synthesis/oscillator.h ****         waveform_  = WAVE_SIN;
 5989              		.loc 18 58 20 discriminator 1 view .LVU1825
 5990 0394 84ED070A 		vstr.32	s0, [r4, #28]
  59:../temp_time_machine/DaisyExamples/DaisySP//Source/Synthesis/oscillator.h ****         eoc_       = true;
 5991              		.loc 18 59 9 is_stmt 1 view .LVU1826
 5992              	.LBE1406:
ARM GAS  /var/folders/v1/156fk8j97zv9pzndh61fy7zm0000gn/T//ccyHp6tG.s 			page 166


 5993              	.LBE1419:
 128:uber_fdn.h    **** 
 5994              		.loc 9 128 22 is_stmt 0 view .LVU1827
 5995 0398 F0EE497A 		vmov.f32	s15, s18
 5996              	.LBB1420:
 5997              	.LBB1413:
 5998              		.loc 18 76 46 view .LVU1828
 5999 039c 6260     		str	r2, [r4, #4]	@ float
 6000              	.LBE1413:
 6001              	.LBE1420:
 6002              	.LBB1421:
 6003              	.LBB1407:
  59:../temp_time_machine/DaisyExamples/DaisySP//Source/Synthesis/oscillator.h ****         eoc_       = true;
 6004              		.loc 18 59 20 view .LVU1829
 6005 039e 84F800B0 		strb	fp, [r4]
  60:../temp_time_machine/DaisyExamples/DaisySP//Source/Synthesis/oscillator.h ****         eor_       = true;
 6006              		.loc 18 60 9 is_stmt 1 view .LVU1830
  61:../temp_time_machine/DaisyExamples/DaisySP//Source/Synthesis/oscillator.h ****     }
 6007              		.loc 18 61 9 view .LVU1831
 6008              	.LBE1407:
 6009              	.LBE1421:
 123:uber_fdn.h    ****       // LFO for Studio/Shimmer
 6010              		.loc 9 123 5 is_stmt 0 discriminator 3 view .LVU1832
 6011 03a2 08F10108 		add	r8, r8, #1
 6012              	.LVL362:
 6013              	.LBB1422:
 6014              	.LBB1408:
  61:../temp_time_machine/DaisyExamples/DaisySP//Source/Synthesis/oscillator.h ****     }
 6015              		.loc 18 61 20 view .LVU1833
 6016 03a6 2785     		strh	r7, [r4, #40]	@ movhi
 6017              	.LVL363:
  61:../temp_time_machine/DaisyExamples/DaisySP//Source/Synthesis/oscillator.h ****     }
 6018              		.loc 18 61 20 view .LVU1834
 6019              	.LBE1408:
 6020              	.LBE1422:
 6021              	.LBB1423:
 6022              	.LBI1411:
 6023              		.loc 18 76 17 is_stmt 1 view .LVU1835
 6024              	.LBB1414:
 6025              		.loc 18 76 41 view .LVU1836
 6026              		.loc 18 76 41 is_stmt 0 view .LVU1837
 6027              	.LBE1414:
 6028              	.LBE1423:
 128:uber_fdn.h    **** 
 6029              		.loc 9 128 22 view .LVU1838
 6030 03a8 E9EE877A 		vfma.f32	s15, s19, s14
 6031              	.LVL364:
 6032              	.LBB1424:
 6033              	.LBI1415:
  67:../temp_time_machine/DaisyExamples/DaisySP//Source/Synthesis/oscillator.h ****     {
 6034              		.loc 18 67 17 is_stmt 1 view .LVU1839
 6035              	.LBB1417:
  69:../temp_time_machine/DaisyExamples/DaisySP//Source/Synthesis/oscillator.h ****         phase_inc_ = CalcPhaseInc(f);
 6036              		.loc 18 69 9 view .LVU1840
  69:../temp_time_machine/DaisyExamples/DaisySP//Source/Synthesis/oscillator.h ****         phase_inc_ = CalcPhaseInc(f);
 6037              		.loc 18 69 20 is_stmt 0 view .LVU1841
 6038 03ac C4ED027A 		vstr.32	s15, [r4, #8]
ARM GAS  /var/folders/v1/156fk8j97zv9pzndh61fy7zm0000gn/T//ccyHp6tG.s 			page 167


  70:../temp_time_machine/DaisyExamples/DaisySP//Source/Synthesis/oscillator.h ****     }
 6039              		.loc 18 70 9 is_stmt 1 view .LVU1842
  70:../temp_time_machine/DaisyExamples/DaisySP//Source/Synthesis/oscillator.h ****     }
 6040              		.loc 18 70 34 is_stmt 0 view .LVU1843
 6041 03b0 B0EE670A 		vmov.f32	s0, s15
 6042 03b4 FFF7FEFF 		bl	_ZN7daisysp10Oscillator12CalcPhaseIncEf
 6043              	.LVL365:
  70:../temp_time_machine/DaisyExamples/DaisySP//Source/Synthesis/oscillator.h ****     }
 6044              		.loc 18 70 34 view .LVU1844
 6045 03b8 F0EE407A 		vmov.f32	s15, s0
 6046              	.LBE1417:
 6047              	.LBE1424:
 131:uber_fdn.h    ****       wander1_[i].SetFreq(0.1f + (i * 0.03f));
 6048              		.loc 9 131 23 view .LVU1845
 6049 03bc 04F5B070 		add	r0, r4, #352
 6050 03c0 26E0     		b	.L260
 6051              	.L261:
 6052 03c2 00BF     		.align	2
 6053              	.L259:
 6054 03c4 80A90300 		.word	240000
 6055 03c8 00000000 		.word	.LANCHOR0
 6056 03cc 242D0200 		.word	142628
 6057 03d0 0000A040 		.word	1084227584
 6058 03d4 00000000 		.word	0
 6059 03d8 00004842 		.word	1112014848
 6060 03dc DB0F4940 		.word	1078530011
 6061 03e0 ABAAAAAA 		.word	-1431655765
 6062 03e4 00008038 		.word	947912704
 6063 03e8 00004041 		.word	1094713344
 6064 03ec 0000C844 		.word	1153957888
 6065 03f0 B8000200 		.word	131256
 6066 03f4 0000C842 		.word	1120403456
 6067 03f8 CDCCCC3D 		.word	1036831949
 6068 03fc CDCC4C3D 		.word	1028443341
 6069 0400 FC2C0100 		.word	77052
 6070 0404 8FC2F53C 		.word	1022739087
 6071 0408 9EEF273D 		.word	1026027422
 6072 040c 295C8F3D 		.word	1032805417
 6073              	.L260:
 6074              	.LBB1425:
 6075              	.LBB1426:
  52:../temp_time_machine/DaisyExamples/DaisySP//Source/Synthesis/oscillator.h ****         sr_recip_  = 1.0f / sample_rate;
 6076              		.loc 18 52 20 view .LVU1846
 6077 0410 C4ED5C8A 		vstr.32	s17, [r4, #368]
  53:../temp_time_machine/DaisyExamples/DaisySP//Source/Synthesis/oscillator.h ****         freq_      = 100.0f;
 6078              		.loc 18 53 20 view .LVU1847
 6079 0414 84ED5DAA 		vstr.32	s20, [r4, #372]
  58:../temp_time_machine/DaisyExamples/DaisySP//Source/Synthesis/oscillator.h ****         waveform_  = WAVE_SIN;
 6080              		.loc 18 58 34 view .LVU1848
 6081 0418 B0EE480A 		vmov.f32	s0, s16
 6082              	.LBE1426:
 6083              	.LBE1425:
 6084              	.LBB1430:
 6085              	.LBB1418:
  70:../temp_time_machine/DaisyExamples/DaisySP//Source/Synthesis/oscillator.h ****     }
 6086              		.loc 18 70 20 discriminator 1 view .LVU1849
 6087 041c C4ED077A 		vstr.32	s15, [r4, #28]
ARM GAS  /var/folders/v1/156fk8j97zv9pzndh61fy7zm0000gn/T//ccyHp6tG.s 			page 168


 6088              	.LVL366:
  70:../temp_time_machine/DaisyExamples/DaisySP//Source/Synthesis/oscillator.h ****     }
 6089              		.loc 18 70 20 discriminator 1 view .LVU1850
 6090              	.LBE1418:
 6091              	.LBE1430:
 6092              	.LBB1431:
 6093              	.LBI1425:
  50:../temp_time_machine/DaisyExamples/DaisySP//Source/Synthesis/oscillator.h ****     {
 6094              		.loc 18 50 10 is_stmt 1 view .LVU1851
 6095              	.LBB1427:
  52:../temp_time_machine/DaisyExamples/DaisySP//Source/Synthesis/oscillator.h ****         sr_recip_  = 1.0f / sample_rate;
 6096              		.loc 18 52 9 view .LVU1852
  53:../temp_time_machine/DaisyExamples/DaisySP//Source/Synthesis/oscillator.h ****         freq_      = 100.0f;
 6097              		.loc 18 53 9 view .LVU1853
  54:../temp_time_machine/DaisyExamples/DaisySP//Source/Synthesis/oscillator.h ****         amp_       = 0.5f;
 6098              		.loc 18 54 9 view .LVU1854
  54:../temp_time_machine/DaisyExamples/DaisySP//Source/Synthesis/oscillator.h ****         amp_       = 0.5f;
 6099              		.loc 18 54 20 is_stmt 0 view .LVU1855
 6100 0420 84ED5A8A 		vstr.32	s16, [r4, #360]
  55:../temp_time_machine/DaisyExamples/DaisySP//Source/Synthesis/oscillator.h ****         pw_        = 0.5f;
 6101              		.loc 18 55 9 is_stmt 1 view .LVU1856
  55:../temp_time_machine/DaisyExamples/DaisySP//Source/Synthesis/oscillator.h ****         pw_        = 0.5f;
 6102              		.loc 18 55 20 is_stmt 0 view .LVU1857
 6103 0424 C4F86451 		str	r5, [r4, #356]	@ float
  56:../temp_time_machine/DaisyExamples/DaisySP//Source/Synthesis/oscillator.h ****         phase_     = 0.0f;
 6104              		.loc 18 56 9 is_stmt 1 view .LVU1858
  56:../temp_time_machine/DaisyExamples/DaisySP//Source/Synthesis/oscillator.h ****         phase_     = 0.0f;
 6105              		.loc 18 56 20 is_stmt 0 view .LVU1859
 6106 0428 C4F86C51 		str	r5, [r4, #364]	@ float
  57:../temp_time_machine/DaisyExamples/DaisySP//Source/Synthesis/oscillator.h ****         phase_inc_ = CalcPhaseInc(freq_);
 6107              		.loc 18 57 9 is_stmt 1 view .LVU1860
  57:../temp_time_machine/DaisyExamples/DaisySP//Source/Synthesis/oscillator.h ****         phase_inc_ = CalcPhaseInc(freq_);
 6108              		.loc 18 57 20 is_stmt 0 view .LVU1861
 6109 042c C4F87861 		str	r6, [r4, #376]	@ float
  58:../temp_time_machine/DaisyExamples/DaisySP//Source/Synthesis/oscillator.h ****         waveform_  = WAVE_SIN;
 6110              		.loc 18 58 9 is_stmt 1 view .LVU1862
  58:../temp_time_machine/DaisyExamples/DaisySP//Source/Synthesis/oscillator.h ****         waveform_  = WAVE_SIN;
 6111              		.loc 18 58 34 is_stmt 0 view .LVU1863
 6112 0430 0090     		str	r0, [sp]
 6113 0432 FFF7FEFF 		bl	_ZN7daisysp10Oscillator12CalcPhaseIncEf
 6114              	.LVL367:
  58:../temp_time_machine/DaisyExamples/DaisySP//Source/Synthesis/oscillator.h ****         waveform_  = WAVE_SIN;
 6115              		.loc 18 58 20 discriminator 1 view .LVU1864
 6116 0436 84ED5F0A 		vstr.32	s0, [r4, #380]
 6117              	.LBE1427:
 6118              	.LBE1431:
 132:uber_fdn.h    ****       wander1_[i].SetAmp(0.5f);
 6119              		.loc 9 132 26 view .LVU1865
 6120 043a B0EE490A 		vmov.f32	s0, s18
 6121 043e 5FED0F7A 		vldr.32	s15, .L259+64
 6122              	.LBB1432:
 6123              	.LBB1428:
  59:../temp_time_machine/DaisyExamples/DaisySP//Source/Synthesis/oscillator.h ****         eoc_       = true;
 6124              		.loc 18 59 9 is_stmt 1 view .LVU1866
 6125              	.LBE1428:
 6126              	.LBE1432:
 6127              	.LBB1433:
ARM GAS  /var/folders/v1/156fk8j97zv9pzndh61fy7zm0000gn/T//ccyHp6tG.s 			page 169


 6128              	.LBB1434:
  70:../temp_time_machine/DaisyExamples/DaisySP//Source/Synthesis/oscillator.h ****     }
 6129              		.loc 18 70 34 is_stmt 0 view .LVU1867
 6130 0442 0098     		ldr	r0, [sp]
 6131              	.LBE1434:
 6132              	.LBE1433:
 132:uber_fdn.h    ****       wander1_[i].SetAmp(0.5f);
 6133              		.loc 9 132 26 view .LVU1868
 6134 0444 A9EEA70A 		vfma.f32	s0, s19, s15
 6135              	.LBB1437:
 6136              	.LBB1429:
  59:../temp_time_machine/DaisyExamples/DaisySP//Source/Synthesis/oscillator.h ****         eoc_       = true;
 6137              		.loc 18 59 20 view .LVU1869
 6138 0448 84F860B1 		strb	fp, [r4, #352]
  60:../temp_time_machine/DaisyExamples/DaisySP//Source/Synthesis/oscillator.h ****         eor_       = true;
 6139              		.loc 18 60 9 is_stmt 1 view .LVU1870
  61:../temp_time_machine/DaisyExamples/DaisySP//Source/Synthesis/oscillator.h ****     }
 6140              		.loc 18 61 9 view .LVU1871
  61:../temp_time_machine/DaisyExamples/DaisySP//Source/Synthesis/oscillator.h ****     }
 6141              		.loc 18 61 20 is_stmt 0 view .LVU1872
 6142 044c A4F88871 		strh	r7, [r4, #392]	@ movhi
 6143              	.LVL368:
  61:../temp_time_machine/DaisyExamples/DaisySP//Source/Synthesis/oscillator.h ****     }
 6144              		.loc 18 61 20 view .LVU1873
 6145              	.LBE1429:
 6146              	.LBE1437:
 6147              	.LBB1438:
 6148              	.LBI1433:
  67:../temp_time_machine/DaisyExamples/DaisySP//Source/Synthesis/oscillator.h ****     {
 6149              		.loc 18 67 17 is_stmt 1 view .LVU1874
 6150              	.LBB1435:
  69:../temp_time_machine/DaisyExamples/DaisySP//Source/Synthesis/oscillator.h ****         phase_inc_ = CalcPhaseInc(f);
 6151              		.loc 18 69 9 view .LVU1875
  69:../temp_time_machine/DaisyExamples/DaisySP//Source/Synthesis/oscillator.h ****         phase_inc_ = CalcPhaseInc(f);
 6152              		.loc 18 69 20 is_stmt 0 view .LVU1876
 6153 0450 84ED5A0A 		vstr.32	s0, [r4, #360]
  70:../temp_time_machine/DaisyExamples/DaisySP//Source/Synthesis/oscillator.h ****     }
 6154              		.loc 18 70 9 is_stmt 1 view .LVU1877
  70:../temp_time_machine/DaisyExamples/DaisySP//Source/Synthesis/oscillator.h ****     }
 6155              		.loc 18 70 34 is_stmt 0 view .LVU1878
 6156 0454 FFF7FEFF 		bl	_ZN7daisysp10Oscillator12CalcPhaseIncEf
 6157              	.LVL369:
  70:../temp_time_machine/DaisyExamples/DaisySP//Source/Synthesis/oscillator.h ****     }
 6158              		.loc 18 70 34 view .LVU1879
 6159 0458 F0EE407A 		vmov.f32	s15, s0
 6160              	.LBE1435:
 6161              	.LBE1438:
 134:uber_fdn.h    ****       wander2_[i].SetFreq(0.07f + (i * 0.041f));
 6162              		.loc 9 134 23 view .LVU1880
 6163 045c 04F53070 		add	r0, r4, #704
 6164              	.LBB1439:
 6165              	.LBB1440:
 6166              		.loc 18 76 46 view .LVU1881
 6167 0460 C4F86451 		str	r5, [r4, #356]	@ float
 6168              	.LBE1440:
 6169              	.LBE1439:
 6170              	.LBB1442:
ARM GAS  /var/folders/v1/156fk8j97zv9pzndh61fy7zm0000gn/T//ccyHp6tG.s 			page 170


 6171              	.LBB1443:
  52:../temp_time_machine/DaisyExamples/DaisySP//Source/Synthesis/oscillator.h ****         sr_recip_  = 1.0f / sample_rate;
 6172              		.loc 18 52 20 view .LVU1882
 6173 0464 C4EDB48A 		vstr.32	s17, [r4, #720]
  58:../temp_time_machine/DaisyExamples/DaisySP//Source/Synthesis/oscillator.h ****         waveform_  = WAVE_SIN;
 6174              		.loc 18 58 34 view .LVU1883
 6175 0468 B0EE480A 		vmov.f32	s0, s16
 6176              	.LBE1443:
 6177              	.LBE1442:
 6178              	.LBB1448:
 6179              	.LBB1436:
  70:../temp_time_machine/DaisyExamples/DaisySP//Source/Synthesis/oscillator.h ****     }
 6180              		.loc 18 70 20 discriminator 1 view .LVU1884
 6181 046c C4ED5F7A 		vstr.32	s15, [r4, #380]
 6182              	.LVL370:
  70:../temp_time_machine/DaisyExamples/DaisySP//Source/Synthesis/oscillator.h ****     }
 6183              		.loc 18 70 20 discriminator 1 view .LVU1885
 6184              	.LBE1436:
 6185              	.LBE1448:
 6186              	.LBB1449:
 6187              	.LBI1439:
 6188              		.loc 18 76 17 is_stmt 1 view .LVU1886
 6189              	.LBB1441:
 6190              		.loc 18 76 41 view .LVU1887
 6191              		.loc 18 76 41 is_stmt 0 view .LVU1888
 6192              	.LBE1441:
 6193              	.LBE1449:
 6194              	.LBB1450:
 6195              	.LBI1442:
  50:../temp_time_machine/DaisyExamples/DaisySP//Source/Synthesis/oscillator.h ****     {
 6196              		.loc 18 50 10 is_stmt 1 view .LVU1889
 6197              	.LBB1444:
  52:../temp_time_machine/DaisyExamples/DaisySP//Source/Synthesis/oscillator.h ****         sr_recip_  = 1.0f / sample_rate;
 6198              		.loc 18 52 9 view .LVU1890
  53:../temp_time_machine/DaisyExamples/DaisySP//Source/Synthesis/oscillator.h ****         freq_      = 100.0f;
 6199              		.loc 18 53 9 view .LVU1891
 6200              	.LBE1444:
 6201              	.LBE1450:
 123:uber_fdn.h    ****       // LFO for Studio/Shimmer
 6202              		.loc 9 123 23 is_stmt 0 discriminator 1 view .LVU1892
 6203 0470 2C34     		adds	r4, r4, #44
 6204              	.LBB1451:
 6205              	.LBB1445:
  53:../temp_time_machine/DaisyExamples/DaisySP//Source/Synthesis/oscillator.h ****         freq_      = 100.0f;
 6206              		.loc 18 53 20 view .LVU1893
 6207 0472 84EDAAAA 		vstr.32	s20, [r4, #680]
  54:../temp_time_machine/DaisyExamples/DaisySP//Source/Synthesis/oscillator.h ****         amp_       = 0.5f;
 6208              		.loc 18 54 9 is_stmt 1 view .LVU1894
  54:../temp_time_machine/DaisyExamples/DaisySP//Source/Synthesis/oscillator.h ****         amp_       = 0.5f;
 6209              		.loc 18 54 20 is_stmt 0 view .LVU1895
 6210 0476 84EDA78A 		vstr.32	s16, [r4, #668]
  55:../temp_time_machine/DaisyExamples/DaisySP//Source/Synthesis/oscillator.h ****         pw_        = 0.5f;
 6211              		.loc 18 55 9 is_stmt 1 view .LVU1896
  55:../temp_time_machine/DaisyExamples/DaisySP//Source/Synthesis/oscillator.h ****         pw_        = 0.5f;
 6212              		.loc 18 55 20 is_stmt 0 view .LVU1897
 6213 047a C4F89852 		str	r5, [r4, #664]	@ float
  56:../temp_time_machine/DaisyExamples/DaisySP//Source/Synthesis/oscillator.h ****         phase_     = 0.0f;
ARM GAS  /var/folders/v1/156fk8j97zv9pzndh61fy7zm0000gn/T//ccyHp6tG.s 			page 171


 6214              		.loc 18 56 9 is_stmt 1 view .LVU1898
  56:../temp_time_machine/DaisyExamples/DaisySP//Source/Synthesis/oscillator.h ****         phase_     = 0.0f;
 6215              		.loc 18 56 20 is_stmt 0 view .LVU1899
 6216 047e C4F8A052 		str	r5, [r4, #672]	@ float
  57:../temp_time_machine/DaisyExamples/DaisySP//Source/Synthesis/oscillator.h ****         phase_inc_ = CalcPhaseInc(freq_);
 6217              		.loc 18 57 9 is_stmt 1 view .LVU1900
  57:../temp_time_machine/DaisyExamples/DaisySP//Source/Synthesis/oscillator.h ****         phase_inc_ = CalcPhaseInc(freq_);
 6218              		.loc 18 57 20 is_stmt 0 view .LVU1901
 6219 0482 C4F8AC62 		str	r6, [r4, #684]	@ float
  58:../temp_time_machine/DaisyExamples/DaisySP//Source/Synthesis/oscillator.h ****         waveform_  = WAVE_SIN;
 6220              		.loc 18 58 9 is_stmt 1 view .LVU1902
  58:../temp_time_machine/DaisyExamples/DaisySP//Source/Synthesis/oscillator.h ****         waveform_  = WAVE_SIN;
 6221              		.loc 18 58 34 is_stmt 0 view .LVU1903
 6222 0486 0090     		str	r0, [sp]
 6223 0488 FFF7FEFF 		bl	_ZN7daisysp10Oscillator12CalcPhaseIncEf
 6224              	.LVL371:
  58:../temp_time_machine/DaisyExamples/DaisySP//Source/Synthesis/oscillator.h ****         waveform_  = WAVE_SIN;
 6225              		.loc 18 58 34 view .LVU1904
 6226              	.LBE1445:
 6227              	.LBE1451:
 135:uber_fdn.h    ****       wander2_[i].SetAmp(0.3f);
 6228              		.loc 9 135 26 view .LVU1905
 6229 048c 1FED227A 		vldr.32	s14, .L259+68
 6230 0490 5FED227A 		vldr.32	s15, .L259+72
 6231              	.LBB1452:
 6232              	.LBB1446:
  58:../temp_time_machine/DaisyExamples/DaisySP//Source/Synthesis/oscillator.h ****         waveform_  = WAVE_SIN;
 6233              		.loc 18 58 20 discriminator 1 view .LVU1906
 6234 0494 84EDAC0A 		vstr.32	s0, [r4, #688]
  59:../temp_time_machine/DaisyExamples/DaisySP//Source/Synthesis/oscillator.h ****         eoc_       = true;
 6235              		.loc 18 59 9 is_stmt 1 view .LVU1907
 6236              	.LBE1446:
 6237              	.LBE1452:
 135:uber_fdn.h    ****       wander2_[i].SetAmp(0.3f);
 6238              		.loc 9 135 26 is_stmt 0 view .LVU1908
 6239 0498 E9EE877A 		vfma.f32	s15, s19, s14
 6240              	.LBB1453:
 6241              	.LBB1454:
  70:../temp_time_machine/DaisyExamples/DaisySP//Source/Synthesis/oscillator.h ****     }
 6242              		.loc 18 70 34 view .LVU1909
 6243 049c 0098     		ldr	r0, [sp]
 6244              	.LBE1454:
 6245              	.LBE1453:
 6246              	.LBB1458:
 6247              	.LBB1447:
  59:../temp_time_machine/DaisyExamples/DaisySP//Source/Synthesis/oscillator.h ****         eoc_       = true;
 6248              		.loc 18 59 20 view .LVU1910
 6249 049e 84F894B2 		strb	fp, [r4, #660]
  60:../temp_time_machine/DaisyExamples/DaisySP//Source/Synthesis/oscillator.h ****         eor_       = true;
 6250              		.loc 18 60 9 is_stmt 1 view .LVU1911
  61:../temp_time_machine/DaisyExamples/DaisySP//Source/Synthesis/oscillator.h ****     }
 6251              		.loc 18 61 9 view .LVU1912
  61:../temp_time_machine/DaisyExamples/DaisySP//Source/Synthesis/oscillator.h ****     }
 6252              		.loc 18 61 20 is_stmt 0 view .LVU1913
 6253 04a2 A4F8BC72 		strh	r7, [r4, #700]	@ movhi
 6254              	.LVL372:
  61:../temp_time_machine/DaisyExamples/DaisySP//Source/Synthesis/oscillator.h ****     }
ARM GAS  /var/folders/v1/156fk8j97zv9pzndh61fy7zm0000gn/T//ccyHp6tG.s 			page 172


 6255              		.loc 18 61 20 view .LVU1914
 6256              	.LBE1447:
 6257              	.LBE1458:
 6258              	.LBB1459:
 6259              	.LBI1453:
  67:../temp_time_machine/DaisyExamples/DaisySP//Source/Synthesis/oscillator.h ****     {
 6260              		.loc 18 67 17 is_stmt 1 view .LVU1915
 6261              	.LBB1455:
  69:../temp_time_machine/DaisyExamples/DaisySP//Source/Synthesis/oscillator.h ****         phase_inc_ = CalcPhaseInc(f);
 6262              		.loc 18 69 9 view .LVU1916
  69:../temp_time_machine/DaisyExamples/DaisySP//Source/Synthesis/oscillator.h ****         phase_inc_ = CalcPhaseInc(f);
 6263              		.loc 18 69 20 is_stmt 0 view .LVU1917
 6264 04a6 C4EDA77A 		vstr.32	s15, [r4, #668]
  70:../temp_time_machine/DaisyExamples/DaisySP//Source/Synthesis/oscillator.h ****     }
 6265              		.loc 18 70 9 is_stmt 1 view .LVU1918
 6266              	.LBE1455:
 6267              	.LBE1459:
 135:uber_fdn.h    ****       wander2_[i].SetAmp(0.3f);
 6268              		.loc 9 135 26 is_stmt 0 view .LVU1919
 6269 04aa B0EE670A 		vmov.f32	s0, s15
 6270              	.LBB1460:
 6271              	.LBB1456:
  70:../temp_time_machine/DaisyExamples/DaisySP//Source/Synthesis/oscillator.h ****     }
 6272              		.loc 18 70 34 view .LVU1920
 6273 04ae FFF7FEFF 		bl	_ZN7daisysp10Oscillator12CalcPhaseIncEf
 6274              	.LVL373:
  70:../temp_time_machine/DaisyExamples/DaisySP//Source/Synthesis/oscillator.h ****     }
 6275              		.loc 18 70 34 view .LVU1921
 6276              	.LBE1456:
 6277              	.LBE1460:
 6278              	.LBB1461:
 6279              	.LBB1462:
 6280              		.loc 18 76 46 view .LVU1922
 6281 04b2 1349     		ldr	r1, .L262
 6282              	.LBE1462:
 6283              	.LBE1461:
 6284              	.LBB1465:
 6285              	.LBB1466:
 6286              	.LBB1467:
 6287              	.LBB1468:
  84:uber_fdn.h    ****     a0_ = 1.0f - b1;
 6288              		.loc 9 84 9 view .LVU1923
 6289 04b4 134A     		ldr	r2, .L262+4
 6290              	.LBE1468:
 6291              	.LBE1467:
 6292              	.LBE1466:
 6293              	.LBE1465:
 142:uber_fdn.h    ****       resonators_[i].SetRes(0.1f);
 6294              		.loc 9 142 26 view .LVU1924
 6295 04b6 4846     		mov	r0, r9
 6296              	.LBB1477:
 6297              	.LBB1475:
 6298              	.LBB1472:
 6299              	.LBB1469:
  85:uber_fdn.h    ****   }
 6300              		.loc 9 85 9 view .LVU1925
 6301 04b8 134B     		ldr	r3, .L262+8
ARM GAS  /var/folders/v1/156fk8j97zv9pzndh61fy7zm0000gn/T//ccyHp6tG.s 			page 173


 6302              	.LBE1469:
 6303              	.LBE1472:
 6304              	.LBE1475:
 6305              	.LBE1477:
 6306              	.LBB1478:
 6307              	.LBB1457:
  70:../temp_time_machine/DaisyExamples/DaisySP//Source/Synthesis/oscillator.h ****     }
 6308              		.loc 18 70 20 discriminator 1 view .LVU1926
 6309 04ba 84EDAC0A 		vstr.32	s0, [r4, #688]
 6310              	.LVL374:
  70:../temp_time_machine/DaisyExamples/DaisySP//Source/Synthesis/oscillator.h ****     }
 6311              		.loc 18 70 20 discriminator 1 view .LVU1927
 6312              	.LBE1457:
 6313              	.LBE1478:
 6314              	.LBB1479:
 6315              	.LBI1461:
 6316              		.loc 18 76 17 is_stmt 1 view .LVU1928
 6317              	.LBB1463:
 6318              		.loc 18 76 41 view .LVU1929
 6319              	.LBE1463:
 6320              	.LBE1479:
 142:uber_fdn.h    ****       resonators_[i].SetRes(0.1f);
 6321              		.loc 9 142 26 is_stmt 0 view .LVU1930
 6322 04be B0EE680A 		vmov.f32	s0, s17
 6323              	.LBB1480:
 6324              	.LBB1464:
 6325              		.loc 18 76 46 view .LVU1931
 6326 04c2 C4F89812 		str	r1, [r4, #664]	@ float
 6327              	.LVL375:
 6328              		.loc 18 76 46 view .LVU1932
 6329              	.LBE1464:
 6330              	.LBE1480:
 6331              	.LBB1481:
 6332              	.LBI1465:
  78:uber_fdn.h    ****     out_ = 0.0f;
 6333              		.loc 9 78 8 is_stmt 1 view .LVU1933
 6334              	.LBB1476:
  79:uber_fdn.h    ****     SetFreq(6000.0f);
 6335              		.loc 9 79 5 view .LVU1934
 6336              	.LBB1473:
 6337              	.LBB1470:
  84:uber_fdn.h    ****     a0_ = 1.0f - b1;
 6338              		.loc 9 84 9 is_stmt 0 view .LVU1935
 6339 04c6 CAF80420 		str	r2, [r10, #4]	@ float
 6340              	.LBE1470:
 6341              	.LBE1473:
  79:uber_fdn.h    ****     SetFreq(6000.0f);
 6342              		.loc 9 79 10 view .LVU1936
 6343 04ca CAF80860 		str	r6, [r10, #8]	@ float
  80:uber_fdn.h    ****   }
 6344              		.loc 9 80 5 is_stmt 1 view .LVU1937
 6345              	.LVL376:
 6346              	.LBB1474:
 6347              	.LBI1467:
  82:uber_fdn.h    ****     float b1 = expf(-2.0f * 3.1415927f * freq / 48000.0f);
 6348              		.loc 9 82 8 view .LVU1938
 6349              	.LBB1471:
ARM GAS  /var/folders/v1/156fk8j97zv9pzndh61fy7zm0000gn/T//ccyHp6tG.s 			page 174


  83:uber_fdn.h    ****     b1_ = b1;
 6350              		.loc 9 83 5 view .LVU1939
  84:uber_fdn.h    ****     a0_ = 1.0f - b1;
 6351              		.loc 9 84 5 view .LVU1940
  85:uber_fdn.h    ****   }
 6352              		.loc 9 85 5 view .LVU1941
  85:uber_fdn.h    ****   }
 6353              		.loc 9 85 9 is_stmt 0 view .LVU1942
 6354 04ce 4AF80C3B 		str	r3, [r10], #12	@ float
 6355              	.LVL377:
  85:uber_fdn.h    ****   }
 6356              		.loc 9 85 9 view .LVU1943
 6357              	.LBE1471:
 6358              	.LBE1474:
 6359              	.LBE1476:
 6360              	.LBE1481:
 142:uber_fdn.h    ****       resonators_[i].SetRes(0.1f);
 6361              		.loc 9 142 26 view .LVU1944
 6362 04d2 FFF7FEFF 		bl	_ZN7daisysp3Svf4InitEf
 6363              	.LVL378:
 143:uber_fdn.h    ****     }
 6364              		.loc 9 143 28 view .LVU1945
 6365 04d6 4846     		mov	r0, r9
 6366 04d8 B0EE490A 		vmov.f32	s0, s18
 123:uber_fdn.h    ****       // LFO for Studio/Shimmer
 6367              		.loc 9 123 23 discriminator 1 view .LVU1946
 6368 04dc 09F14C09 		add	r9, r9, #76
 143:uber_fdn.h    ****     }
 6369              		.loc 9 143 28 view .LVU1947
 6370 04e0 FFF7FEFF 		bl	_ZN7daisysp3Svf6SetResEf
 6371              	.LVL379:
 123:uber_fdn.h    ****       // LFO for Studio/Shimmer
 6372              		.loc 9 123 5 is_stmt 1 discriminator 3 view .LVU1948
 123:uber_fdn.h    ****       // LFO for Studio/Shimmer
 6373              		.loc 9 123 23 discriminator 1 view .LVU1949
 6374 04e4 B8F1080F 		cmp	r8, #8
 6375 04e8 7FF432AF 		bne	.L243
 6376              	.LBE1401:
 146:uber_fdn.h    ****   }
 6377              		.loc 9 146 19 is_stmt 0 view .LVU1950
 6378 04ec DDF804B0 		ldr	fp, [sp, #4]
 6379 04f0 0BF65467 		addw	r7, fp, #3668
 6380 04f4 3D60     		str	r5, [r7]	@ float
 147:uber_fdn.h    **** 
 6381              		.loc 9 147 3 view .LVU1951
 6382 04f6 09B0     		add	sp, sp, #36
 6383              		.cfi_def_cfa_offset 60
 6384              		@ sp needed
 6385 04f8 BDEC068B 		vldm	sp!, {d8-d10}
 6386              		.cfi_restore 84
 6387              		.cfi_restore 85
 6388              		.cfi_restore 82
 6389              		.cfi_restore 83
 6390              		.cfi_restore 80
 6391              		.cfi_restore 81
 6392              		.cfi_def_cfa_offset 36
 6393 04fc BDE8F08F 		pop	{r4, r5, r6, r7, r8, r9, r10, fp, pc}
ARM GAS  /var/folders/v1/156fk8j97zv9pzndh61fy7zm0000gn/T//ccyHp6tG.s 			page 175


 6394              	.LVL380:
 6395              	.L263:
 147:uber_fdn.h    **** 
 6396              		.loc 9 147 3 view .LVU1952
 6397              		.align	2
 6398              	.L262:
 6399 0500 9A99993E 		.word	1050253722
 6400 0504 B970E93E 		.word	1055486137
 6401 0508 A4470B3F 		.word	1057703844
 6402              		.cfi_endproc
 6403              	.LFE5312:
 6405              		.section	.text.startup.main,"ax",%progbits
 6406              		.align	1
 6407              		.p2align 2,,3
 6408              		.global	main
 6409              		.syntax unified
 6410              		.thumb
 6411              		.thumb_func
 6413              	main:
 6414              	.LFB4991:
  82:main.cpp      **** 
  83:main.cpp      **** int main(void) {
 6415              		.loc 1 83 16 is_stmt 1 view -0
 6416              		.cfi_startproc
 6417              		@ args = 0, pretend = 0, frame = 8
 6418              		@ frame_needed = 0, uses_anonymous_args = 0
  84:main.cpp      ****   hw.Init();
 6419              		.loc 1 84 3 view .LVU1954
  83:main.cpp      ****   hw.Init();
 6420              		.loc 1 83 16 is_stmt 0 view .LVU1955
 6421 0000 2DE9F04F 		push	{r4, r5, r6, r7, r8, r9, r10, fp, lr}
 6422              		.cfi_def_cfa_offset 36
 6423              		.cfi_offset 4, -36
 6424              		.cfi_offset 5, -32
 6425              		.cfi_offset 6, -28
 6426              		.cfi_offset 7, -24
 6427              		.cfi_offset 8, -20
 6428              		.cfi_offset 9, -16
 6429              		.cfi_offset 10, -12
 6430              		.cfi_offset 11, -8
 6431              		.cfi_offset 14, -4
 6432              		.loc 1 84 10 view .LVU1956
 6433 0004 D348     		ldr	r0, .L338
  83:main.cpp      ****   hw.Init();
 6434              		.loc 1 83 16 view .LVU1957
 6435 0006 2DED068B 		vpush.64	{d8, d9, d10}
 6436              		.cfi_def_cfa_offset 60
 6437              		.cfi_offset 80, -60
 6438              		.cfi_offset 81, -56
 6439              		.cfi_offset 82, -52
 6440              		.cfi_offset 83, -48
 6441              		.cfi_offset 84, -44
 6442              		.cfi_offset 85, -40
 6443 000a 83B0     		sub	sp, sp, #12
 6444              		.cfi_def_cfa_offset 72
 6445              		.loc 1 84 10 view .LVU1958
 6446 000c FFF7FEFF 		bl	_ZN3oam12time_machine19TimeMachineHardware4InitEv
ARM GAS  /var/folders/v1/156fk8j97zv9pzndh61fy7zm0000gn/T//ccyHp6tG.s 			page 176


 6447              	.LVL381:
  85:main.cpp      ****   hw.SetAudioBlockSize(32); // Slight optimization
 6448              		.loc 1 85 3 is_stmt 1 view .LVU1959
 6449              		.loc 1 85 23 is_stmt 0 view .LVU1960
 6450 0010 2021     		movs	r1, #32
 6451 0012 D048     		ldr	r0, .L338
 6452 0014 FFF7FEFF 		bl	_ZN3oam12time_machine19TimeMachineHardware17SetAudioBlockSizeEj
 6453              	.LVL382:
  86:main.cpp      ****   float samplerate = hw.AudioSampleRate();
 6454              		.loc 1 86 3 is_stmt 1 view .LVU1961
 6455              		.loc 1 86 40 is_stmt 0 view .LVU1962
 6456 0018 CE48     		ldr	r0, .L338
 6457 001a FFF7FEFF 		bl	_ZN3oam12time_machine19TimeMachineHardware15AudioSampleRateEv
 6458              	.LVL383:
 6459              	.LBB1621:
 6460              	.LBB1622:
  88:time_machine_hardware.h **** 
  89:time_machine_hardware.h ****         /** Initializes the memories, and core peripherals for the Daisy Patch SM */
  90:time_machine_hardware.h ****         void Init();
  91:time_machine_hardware.h **** 
  92:time_machine_hardware.h ****         /** Starts a non-interleaving audio callback */
  93:time_machine_hardware.h ****         void StartAudio(AudioHandle::AudioCallback cb);
  94:time_machine_hardware.h **** 
  95:time_machine_hardware.h ****         /** Starts an interleaving audio callback */
  96:time_machine_hardware.h ****         void StartAudio(AudioHandle::InterleavingAudioCallback cb);
  97:time_machine_hardware.h **** 
  98:time_machine_hardware.h ****         /** Changes the callback that is executing.
  99:time_machine_hardware.h ****          *  This may cause clicks if done while audio is processing.
 100:time_machine_hardware.h ****          */
 101:time_machine_hardware.h ****         void ChangeAudioCallback(AudioHandle::AudioCallback cb);
 102:time_machine_hardware.h **** 
 103:time_machine_hardware.h ****         /** Changes the callback that is executing.
 104:time_machine_hardware.h ****          *  This may cause clicks if done while audio is processing.
 105:time_machine_hardware.h ****          */
 106:time_machine_hardware.h ****         void ChangeAudioCallback(AudioHandle::InterleavingAudioCallback cb);
 107:time_machine_hardware.h **** 
 108:time_machine_hardware.h ****         /** Stops the transmission of audio. */
 109:time_machine_hardware.h ****         void StopAudio();
 110:time_machine_hardware.h **** 
 111:time_machine_hardware.h ****         /** Sets the number of samples processed in an audio callback. 
 112:time_machine_hardware.h ****          *  This will only take effect on the next invocation of `StartAudio`
 113:time_machine_hardware.h ****          */
 114:time_machine_hardware.h ****         void SetAudioBlockSize(size_t size);
 115:time_machine_hardware.h **** 
 116:time_machine_hardware.h ****         /** Sets the samplerate for the audio engine 
 117:time_machine_hardware.h ****          *  This will set it to the closest valid samplerate. Options being:
 118:time_machine_hardware.h ****          *  8kHz, 16kHz, 32kHz, 48kHz, and 96kHz
 119:time_machine_hardware.h ****          */
 120:time_machine_hardware.h ****         void SetAudioSampleRate(float sr);
 121:time_machine_hardware.h **** 
 122:time_machine_hardware.h ****         void SetAudioSampleRate(SaiHandle::Config::SampleRate sample_rate);
 123:time_machine_hardware.h **** 
 124:time_machine_hardware.h ****         /** Returns the number of samples processed in an audio callback */
 125:time_machine_hardware.h ****         size_t AudioBlockSize();
 126:time_machine_hardware.h **** 
 127:time_machine_hardware.h ****         /** Returns the audio engine's samplerate in Hz */
 128:time_machine_hardware.h ****         float AudioSampleRate();
ARM GAS  /var/folders/v1/156fk8j97zv9pzndh61fy7zm0000gn/T//ccyHp6tG.s 			page 177


 129:time_machine_hardware.h **** 
 130:time_machine_hardware.h ****         /** Returns the rate at which the audio callback will be called in Hz */
 131:time_machine_hardware.h ****         float AudioCallbackRate();
 132:time_machine_hardware.h **** 
 133:time_machine_hardware.h ****         /** Starts the Control ADCs 
 134:time_machine_hardware.h ****          * 
 135:time_machine_hardware.h ****          *  This is started automatically when Init() is called.
 136:time_machine_hardware.h ****          */
 137:time_machine_hardware.h ****         void StartAdc();
 138:time_machine_hardware.h **** 
 139:time_machine_hardware.h ****         /** Stops the Control ADCs */
 140:time_machine_hardware.h ****         void StopAdc();
 141:time_machine_hardware.h **** 
 142:time_machine_hardware.h ****         /** Reads and filters all of the analog control inputs */
 143:time_machine_hardware.h ****         void ProcessAnalogControls();
 144:time_machine_hardware.h **** 
 145:time_machine_hardware.h ****         /** Reads and debounces any of the digital control inputs 
 146:time_machine_hardware.h ****          *  This does nothing on this board at this time.
 147:time_machine_hardware.h ****          */
 148:time_machine_hardware.h ****         void ProcessDigitalControls();
 149:time_machine_hardware.h **** 
 150:time_machine_hardware.h ****         /** Does both of the above */
 151:time_machine_hardware.h ****         void ProcessAllControls()
 152:time_machine_hardware.h ****         {
 153:time_machine_hardware.h ****             ProcessAnalogControls();
 6461              		.loc 2 153 34 view .LVU1963
 6462 001e CD48     		ldr	r0, .L338
 6463              	.LBE1622:
 6464              	.LBE1621:
 6465              		.loc 1 86 40 view .LVU1964
 6466 0020 B0EE408A 		vmov.f32	s16, s0
 6467              	.LVL384:
  87:main.cpp      **** 
  88:main.cpp      ****   // 1. Initial Control Read for Mode Selection
  89:main.cpp      ****   hw.ProcessAllControls();
 6468              		.loc 1 89 3 is_stmt 1 view .LVU1965
 6469              	.LBB1624:
 6470              	.LBI1621:
 151:time_machine_hardware.h ****         {
 6471              		.loc 2 151 14 view .LVU1966
 6472              	.LBB1623:
 6473              		.loc 2 153 13 view .LVU1967
 6474              		.loc 2 153 34 is_stmt 0 view .LVU1968
 6475 0024 FFF7FEFF 		bl	_ZN3oam12time_machine19TimeMachineHardware21ProcessAnalogControlsEv
 6476              	.LVL385:
 154:time_machine_hardware.h ****             ProcessDigitalControls();
 6477              		.loc 2 154 13 is_stmt 1 view .LVU1969
 6478              		.loc 2 154 35 is_stmt 0 view .LVU1970
 6479 0028 CA48     		ldr	r0, .L338
 6480 002a FFF7FEFF 		bl	_ZN3oam12time_machine19TimeMachineHardware22ProcessDigitalControlsEv
 6481              	.LVL386:
 6482              		.loc 2 154 35 view .LVU1971
 6483              	.LBE1623:
 6484              	.LBE1624:
  90:main.cpp      ****   float selector = hw.GetSliderValue(1); // Slider 1
 6485              		.loc 1 90 3 is_stmt 1 view .LVU1972
 6486              		.loc 1 90 37 is_stmt 0 view .LVU1973
ARM GAS  /var/folders/v1/156fk8j97zv9pzndh61fy7zm0000gn/T//ccyHp6tG.s 			page 178


 6487 002e 0121     		movs	r1, #1
 6488 0030 C848     		ldr	r0, .L338
 6489 0032 FFF7FEFF 		bl	_ZN3oam12time_machine19TimeMachineHardware14GetSliderValueEi
 6490              	.LVL387:
  91:main.cpp      **** 
  92:main.cpp      ****   // Check range - Updated for 5 modes
  93:main.cpp      ****   // 0-20, 20-40, 40-60, 60-80, 80-100
  94:main.cpp      ****   if (selector < 0.2f) {
 6491              		.loc 1 94 3 view .LVU1974
 6492 0036 9FEDC87A 		vldr.32	s14, .L338+4
 6493              	.LVL388:
 6494              		.loc 1 94 3 is_stmt 1 view .LVU1975
 6495 003a B4EEC70A 		vcmpe.f32	s0, s14
 6496 003e F1EE10FA 		vmrs	APSR_nzcv, FPSCR
 6497 0042 40F17481 		bpl	.L327
  95:main.cpp      ****     current_mode = APP_STUDIO;
 6498              		.loc 1 95 5 view .LVU1976
 6499              		.loc 1 95 18 is_stmt 0 view .LVU1977
 6500 0046 0023     		movs	r3, #0
 6501              	.L334:
  96:main.cpp      ****     fdn_engine.SetMode(MODE_STUDIO);
  97:main.cpp      ****   } else if (selector < 0.4f) {
  98:main.cpp      ****     current_mode = APP_SHIMMER;
 6502              		.loc 1 98 18 view .LVU1978
 6503 0048 C44A     		ldr	r2, .L338+8
 6504              	.LBB1625:
 6505              	.LBB1626:
 149:uber_fdn.h    **** 
 6506              		.loc 9 149 35 view .LVU1979
 6507 004a C549     		ldr	r1, .L338+12
 6508              	.LBE1626:
 6509              	.LBE1625:
 6510              		.loc 1 98 18 view .LVU1980
 6511 004c 0092     		str	r2, [sp]
 6512              	.LBB1629:
 6513              	.LBB1627:
 149:uber_fdn.h    **** 
 6514              		.loc 9 149 35 view .LVU1981
 6515 004e 0191     		str	r1, [sp, #4]
 6516              	.LBE1627:
 6517              	.LBE1629:
 6518              		.loc 1 98 18 view .LVU1982
 6519 0050 1370     		strb	r3, [r2]
  99:main.cpp      ****     fdn_engine.SetMode(MODE_SHIMMER);
 6520              		.loc 1 99 5 is_stmt 1 view .LVU1983
 6521              	.LVL389:
 6522              	.LBB1630:
 6523              	.LBI1625:
 149:uber_fdn.h    **** 
 6524              		.loc 9 149 8 view .LVU1984
 6525              	.LBB1628:
 149:uber_fdn.h    **** 
 6526              		.loc 9 149 35 is_stmt 0 view .LVU1985
 6527 0052 81F8583E 		strb	r3, [r1, #3672]
 6528              	.LVL390:
 6529              	.L267:
 149:uber_fdn.h    **** 
ARM GAS  /var/folders/v1/156fk8j97zv9pzndh61fy7zm0000gn/T//ccyHp6tG.s 			page 179


 6530              		.loc 9 149 35 view .LVU1986
 6531              	.LBE1628:
 6532              	.LBE1630:
 100:main.cpp      ****   } else if (selector < 0.6f) {
 101:main.cpp      ****     current_mode = APP_MASSIVE;
 102:main.cpp      ****     fdn_engine.SetMode(MODE_MASSIVE);
 103:main.cpp      ****   } else if (selector < 0.8f) {
 104:main.cpp      ****     current_mode = APP_RESONATOR;
 105:main.cpp      ****   } else {
 106:main.cpp      ****     current_mode = APP_LEGACY;
 107:main.cpp      ****   }
 108:main.cpp      **** 
 109:main.cpp      ****   // Blink LED to confirm Mode
 110:main.cpp      ****   int blinks = (int)current_mode + 1;
 6533              		.loc 1 110 3 is_stmt 1 view .LVU1987
 111:main.cpp      ****   for (int i = 0; i < blinks; i++) {
 6534              		.loc 1 111 3 view .LVU1988
 6535              	.LBB1631:
 6536              		.loc 1 111 21 discriminator 1 view .LVU1989
 6537 0056 009B     		ldr	r3, [sp]
 6538              		.loc 1 111 12 is_stmt 0 view .LVU1990
 6539 0058 0024     		movs	r4, #0
 6540 005a 1D78     		ldrb	r5, [r3]	@ zero_extendqisi2
 6541              	.LVL391:
 6542              		.loc 1 111 12 view .LVU1991
 6543 005c 0135     		adds	r5, r5, #1
 6544              	.LVL392:
 6545              	.L274:
 112:main.cpp      ****     hw.SetLed(true);
 6546              		.loc 1 112 5 is_stmt 1 view .LVU1992
 6547              		.loc 1 112 14 is_stmt 0 view .LVU1993
 6548 005e 0121     		movs	r1, #1
 6549 0060 BC48     		ldr	r0, .L338
 6550 0062 FFF7FEFF 		bl	_ZN3oam12time_machine19TimeMachineHardware6SetLedEb
 6551              	.LVL393:
 113:main.cpp      ****     hw.Delay(150);
 6552              		.loc 1 113 5 is_stmt 1 view .LVU1994
 6553              	.LBB1632:
 6554              	.LBI1632:
 155:time_machine_hardware.h ****         }
 156:time_machine_hardware.h **** 
 157:time_machine_hardware.h ****         /** Returns the current value for one of the ADCs */
 158:time_machine_hardware.h ****         float GetAdcValue(int idx);
 159:time_machine_hardware.h **** 
 160:time_machine_hardware.h ****         float GetSliderValue(int idx);
 161:time_machine_hardware.h **** 
 162:time_machine_hardware.h ****         float GetVcaValue(int idx);
 163:time_machine_hardware.h **** 
 164:time_machine_hardware.h ****         /** Returns the STM32 port/pin combo for the desired pin (or an invalid pin for HW only pin
 165:time_machine_hardware.h ****          *
 166:time_machine_hardware.h ****          *  Macros at top of file can be used in place of separate arguments (i.e. GetPin(A4), etc.
 167:time_machine_hardware.h ****          * 
 168:time_machine_hardware.h ****          *  \param bank should be one of the PinBank options above
 169:time_machine_hardware.h ****          *  \param idx pin number between 1 and 10 for each of the pins on each header.
 170:time_machine_hardware.h ****          */
 171:time_machine_hardware.h ****         dsy_gpio_pin GetPin(const PinBank bank, const int idx);
 172:time_machine_hardware.h **** 
ARM GAS  /var/folders/v1/156fk8j97zv9pzndh61fy7zm0000gn/T//ccyHp6tG.s 			page 180


 173:time_machine_hardware.h ****         /** Starts the DAC for the CV Outputs 
 174:time_machine_hardware.h ****          * 
 175:time_machine_hardware.h ****          *  By default this starts by running the 
 176:time_machine_hardware.h ****          *  internal callback at 48kHz, which will 
 177:time_machine_hardware.h ****          *  update the values based on the SetCvOut 
 178:time_machine_hardware.h ****          *  function.
 179:time_machine_hardware.h ****          * 
 180:time_machine_hardware.h ****          *  This is started automatically when Init() is called.
 181:time_machine_hardware.h ****          */
 182:time_machine_hardware.h ****         // void StartDac(DacHandle::DacCallback callback = nullptr);
 183:time_machine_hardware.h **** 
 184:time_machine_hardware.h ****         /** Stop the DAC from updating. 
 185:time_machine_hardware.h ****          *  This will suspend the CV Outputs from changing 
 186:time_machine_hardware.h ****          */
 187:time_machine_hardware.h ****         // void StopDac();
 188:time_machine_hardware.h **** 
 189:time_machine_hardware.h ****         /** Sets specified DAC channel to the target voltage. 
 190:time_machine_hardware.h ****          *  This may not be 100% accurate without calibration. 
 191:time_machine_hardware.h ****          *  
 192:time_machine_hardware.h ****          *  \todo Add Calibration to CV Outputs
 193:time_machine_hardware.h ****          * 
 194:time_machine_hardware.h ****          *  \param channel desired channel to update. 0 is both, otherwise 1 or 2 are valid.
 195:time_machine_hardware.h ****          *  \param voltage value in Volts that you'd like to write to the DAC. The valid range is 0
 196:time_machine_hardware.h ****          */
 197:time_machine_hardware.h ****         // void WriteCvOut(const int channel, float voltage);
 198:time_machine_hardware.h **** 
 199:time_machine_hardware.h ****         /** Here are some wrappers around libDaisy Static functions 
 200:time_machine_hardware.h ****          *  to provide simpler syntax to those who prefer it. */
 201:time_machine_hardware.h **** 
 202:time_machine_hardware.h ****         /** Delays for a specified number of milliseconds */
 203:time_machine_hardware.h ****         inline void Delay(uint32_t milliseconds)
 6555              		.loc 2 203 21 view .LVU1995
 6556              	.LBB1633:
 204:time_machine_hardware.h ****         {
 205:time_machine_hardware.h ****             System::Delay(milliseconds);
 6557              		.loc 2 205 13 view .LVU1996
 6558              		.loc 2 205 26 is_stmt 0 view .LVU1997
 6559 0066 9620     		movs	r0, #150
 6560 0068 FFF7FEFF 		bl	_ZN5daisy6System5DelayEm
 6561              	.LVL394:
 6562              		.loc 2 205 26 view .LVU1998
 6563              	.LBE1633:
 6564              	.LBE1632:
 114:main.cpp      ****     hw.SetLed(false);
 6565              		.loc 1 114 5 is_stmt 1 view .LVU1999
 111:main.cpp      ****     hw.SetLed(true);
 6566              		.loc 1 111 3 is_stmt 0 discriminator 3 view .LVU2000
 6567 006c 0134     		adds	r4, r4, #1
 6568              	.LVL395:
 6569              		.loc 1 114 14 view .LVU2001
 6570 006e 0021     		movs	r1, #0
 6571 0070 B848     		ldr	r0, .L338
 6572 0072 FFF7FEFF 		bl	_ZN3oam12time_machine19TimeMachineHardware6SetLedEb
 6573              	.LVL396:
 115:main.cpp      ****     hw.Delay(150);
 6574              		.loc 1 115 5 is_stmt 1 view .LVU2002
 6575              	.LBB1634:
ARM GAS  /var/folders/v1/156fk8j97zv9pzndh61fy7zm0000gn/T//ccyHp6tG.s 			page 181


 6576              	.LBI1634:
 203:time_machine_hardware.h ****         {
 6577              		.loc 2 203 21 view .LVU2003
 6578              	.LBB1635:
 6579              		.loc 2 205 13 view .LVU2004
 6580              		.loc 2 205 26 is_stmt 0 view .LVU2005
 6581 0076 9620     		movs	r0, #150
 6582 0078 FFF7FEFF 		bl	_ZN5daisy6System5DelayEm
 6583              	.LVL397:
 6584              		.loc 2 205 26 view .LVU2006
 6585              	.LBE1635:
 6586              	.LBE1634:
 111:main.cpp      ****     hw.SetLed(true);
 6587              		.loc 1 111 3 is_stmt 1 discriminator 3 view .LVU2007
 111:main.cpp      ****     hw.SetLed(true);
 6588              		.loc 1 111 21 discriminator 1 view .LVU2008
 6589 007c AC42     		cmp	r4, r5
 6590 007e EED1     		bne	.L274
 6591              	.LBE1631:
 116:main.cpp      ****   }
 117:main.cpp      **** 
 118:main.cpp      ****   // 2. Engine Init
 119:main.cpp      ****   if (current_mode == APP_LEGACY) {
 6592              		.loc 1 119 3 view .LVU2009
 6593              	.LBB1636:
 6594              		.loc 1 119 20 is_stmt 0 view .LVU2010
 6595 0080 009B     		ldr	r3, [sp]
 6596 0082 1B78     		ldrb	r3, [r3]	@ zero_extendqisi2
 6597              		.loc 1 119 3 view .LVU2011
 6598 0084 042B     		cmp	r3, #4
 6599 0086 00F0C181 		beq	.L335
 120:main.cpp      ****     // Split big buffer into two halves
 121:main.cpp      ****     float *bufL = &big_sdram_buffer[0];
 122:main.cpp      ****     float *bufR = &big_sdram_buffer[7500000]; // Halfway
 123:main.cpp      ****     legacy_engine.Init(samplerate, bufL, bufR);
 124:main.cpp      ****   } else if (current_mode == APP_RESONATOR) {
 6600              		.loc 1 124 10 is_stmt 1 view .LVU2012
 6601 008a 032B     		cmp	r3, #3
 6602 008c 00F09481 		beq	.L336
 125:main.cpp      ****     res_engine.Init(samplerate);
 126:main.cpp      ****   } else {
 127:main.cpp      ****     // FDN Init - Pass the start of the big buffer
 128:main.cpp      ****     fdn_engine.Init(samplerate, &big_sdram_buffer[0]);
 6603              		.loc 1 128 5 view .LVU2013
 6604 0090 DFF814B3 		ldr	fp, .L338+84
 6605              		.loc 1 128 20 is_stmt 0 view .LVU2014
 6606 0094 B0EE480A 		vmov.f32	s0, s16
 6607 0098 B249     		ldr	r1, .L338+16
 6608 009a B348     		ldr	r0, .L338+20
 6609 009c FFF7FEFF 		bl	_ZN7UberFDNILi8EE4InitEfPf
 6610              	.LVL398:
 6611              	.L283:
 6612              		.loc 1 128 20 view .LVU2015
 6613              	.LBE1636:
 129:main.cpp      ****   }
 130:main.cpp      **** 
 131:main.cpp      ****   // RE-FIXING FDN BUFFER ALLOCATION
ARM GAS  /var/folders/v1/156fk8j97zv9pzndh61fy7zm0000gn/T//ccyHp6tG.s 			page 182


 132:main.cpp      ****   // We cannot instantiate `DelayLine<float, 240000>` if we also have
 133:main.cpp      ****   // `big_sdram_buffer[15000000]`. We need to use `DelayLine<float, 1>` (dummy)
 134:main.cpp      ****   // and `SetDelay` with external buffer? DaisySP `DelayLine` implementation: If
 135:main.cpp      ****   // we use default constructor with <MaxDelay>, it has `float line_[MaxDelay]`.
 136:main.cpp      ****   // We must switch FDN to use Pointers.
 137:main.cpp      **** 
 138:main.cpp      ****   if (current_mode != APP_RESONATOR && current_mode != APP_LEGACY) {
 6614              		.loc 1 138 3 is_stmt 1 view .LVU2016
 139:main.cpp      ****     // Manual assignments
 140:main.cpp      ****     // Requires modification to UberFDN to accept raw pointers or DelayLine
 141:main.cpp      ****     // objects initialized with pointers. Let's assume UberFDN Init logic needs
 142:main.cpp      ****     // update. Actually, let's cast segments of `big_sdram_buffer` into
 143:main.cpp      ****     // something FDN can use. Or just modify UberFDN to take `mid_buffer`? NO
 144:main.cpp      ****     // efficiently: Change `delay_lines` to `DelayLine<float, MAX_DELAY>
 145:main.cpp      ****     // *delay_lines`? No, standard `DelayLine` class owns its memory. We should
 146:main.cpp      ****     // use `DelayLine<float, 1>`? No that limits max delay? DaisySP `DelayLine`
 147:main.cpp      ****     // template param `max_delay` defines the array size.
 148:main.cpp      **** 
 149:main.cpp      ****     // OK, Plan B:
 150:main.cpp      ****     // The `big_sdram_buffer` IS the memory.
 151:main.cpp      ****     // For Legacy: we use it as 2 huge arrays.
 152:main.cpp      ****     // For FDN: we cast start of it to 8 distinct arrays.
 153:main.cpp      ****     // UberFDN expects `DelayLine<float, 240000>*`.
 154:main.cpp      ****     // This is incompatible with raw float pointers.
 155:main.cpp      ****     // I will modify `UberFDN` to use `float*` buffers directly + a minimal
 156:main.cpp      ****     // Delay helper.
 157:main.cpp      ****   }
 158:main.cpp      **** 
 159:main.cpp      ****   hw.StartAudio(AudioCallbackReal);
 6615              		.loc 1 159 3 view .LVU2017
 6616 00a0 B24F     		ldr	r7, .L338+24
 6617              		.loc 1 159 16 is_stmt 0 view .LVU2018
 6618 00a2 B349     		ldr	r1, .L338+28
 6619 00a4 AB48     		ldr	r0, .L338
 6620 00a6 FFF7FEFF 		bl	_ZN3oam12time_machine19TimeMachineHardware10StartAudioEPFvPKPKfPPfjE
 6621              	.LVL399:
 6622              	.L299:
 160:main.cpp      **** 
 161:main.cpp      ****   while (1) {
 6623              		.loc 1 161 3 is_stmt 1 view .LVU2019
 6624              	.LBB1888:
 162:main.cpp      ****     hw.ProcessAllControls();
 6625              		.loc 1 162 5 view .LVU2020
 6626              	.LBB1889:
 6627              	.LBI1889:
 151:time_machine_hardware.h ****         {
 6628              		.loc 2 151 14 view .LVU2021
 6629              	.LBB1890:
 153:time_machine_hardware.h ****             ProcessDigitalControls();
 6630              		.loc 2 153 13 view .LVU2022
 153:time_machine_hardware.h ****             ProcessDigitalControls();
 6631              		.loc 2 153 34 is_stmt 0 view .LVU2023
 6632 00aa AA48     		ldr	r0, .L338
 6633 00ac FFF7FEFF 		bl	_ZN3oam12time_machine19TimeMachineHardware21ProcessAnalogControlsEv
 6634              	.LVL400:
 154:time_machine_hardware.h ****         }
 6635              		.loc 2 154 13 is_stmt 1 view .LVU2024
ARM GAS  /var/folders/v1/156fk8j97zv9pzndh61fy7zm0000gn/T//ccyHp6tG.s 			page 183


 154:time_machine_hardware.h ****         }
 6636              		.loc 2 154 35 is_stmt 0 view .LVU2025
 6637 00b0 A848     		ldr	r0, .L338
 6638 00b2 FFF7FEFF 		bl	_ZN3oam12time_machine19TimeMachineHardware22ProcessDigitalControlsEv
 6639              	.LVL401:
 154:time_machine_hardware.h ****         }
 6640              		.loc 2 154 35 view .LVU2026
 6641              	.LBE1890:
 6642              	.LBE1889:
 163:main.cpp      **** 
 164:main.cpp      ****     // --- Read Controls (Knob + CV) ---
 165:main.cpp      ****     // Knobs
 166:main.cpp      ****     float raw_time_k = hw.GetAdcValue(patch_sm::ADC_10);
 6643              		.loc 1 166 5 is_stmt 1 view .LVU2027
 6644              		.loc 1 166 38 is_stmt 0 view .LVU2028
 6645 00b6 0921     		movs	r1, #9
 6646 00b8 A648     		ldr	r0, .L338
 6647 00ba FFF7FEFF 		bl	_ZN3oam12time_machine19TimeMachineHardware11GetAdcValueEi
 6648              	.LVL402:
 167:main.cpp      ****     float raw_skew_k = hw.GetAdcValue(patch_sm::ADC_9);
 6649              		.loc 1 167 38 view .LVU2029
 6650 00be 0821     		movs	r1, #8
 6651 00c0 A448     		ldr	r0, .L338
 166:main.cpp      ****     float raw_skew_k = hw.GetAdcValue(patch_sm::ADC_9);
 6652              		.loc 1 166 38 view .LVU2030
 6653 00c2 B0EE409A 		vmov.f32	s18, s0
 6654              	.LVL403:
 6655              		.loc 1 167 5 is_stmt 1 view .LVU2031
 6656              		.loc 1 167 38 is_stmt 0 view .LVU2032
 6657 00c6 FFF7FEFF 		bl	_ZN3oam12time_machine19TimeMachineHardware11GetAdcValueEi
 6658              	.LVL404:
 168:main.cpp      ****     float raw_fb_k = hw.GetAdcValue(patch_sm::CV_8);
 6659              		.loc 1 168 36 view .LVU2033
 6660 00ca 0721     		movs	r1, #7
 6661 00cc A148     		ldr	r0, .L338
 167:main.cpp      ****     float raw_skew_k = hw.GetAdcValue(patch_sm::ADC_9);
 6662              		.loc 1 167 38 view .LVU2034
 6663 00ce F0EE408A 		vmov.f32	s17, s0
 6664              	.LVL405:
 6665              		.loc 1 168 5 is_stmt 1 view .LVU2035
 6666              		.loc 1 168 36 is_stmt 0 view .LVU2036
 6667 00d2 FFF7FEFF 		bl	_ZN3oam12time_machine19TimeMachineHardware11GetAdcValueEi
 6668              	.LVL406:
 169:main.cpp      **** 
 170:main.cpp      ****     // CVs (Summing)
 171:main.cpp      ****     float raw_time_cv = hw.GetAdcValue(patch_sm::CV_2);
 6669              		.loc 1 171 39 view .LVU2037
 6670 00d6 0121     		movs	r1, #1
 6671 00d8 9E48     		ldr	r0, .L338
 168:main.cpp      ****     float raw_fb_k = hw.GetAdcValue(patch_sm::CV_8);
 6672              		.loc 1 168 36 view .LVU2038
 6673 00da B0EE408A 		vmov.f32	s16, s0
 6674              	.LVL407:
 6675              		.loc 1 171 5 is_stmt 1 view .LVU2039
 6676              		.loc 1 171 39 is_stmt 0 view .LVU2040
 6677 00de FFF7FEFF 		bl	_ZN3oam12time_machine19TimeMachineHardware11GetAdcValueEi
 6678              	.LVL408:
ARM GAS  /var/folders/v1/156fk8j97zv9pzndh61fy7zm0000gn/T//ccyHp6tG.s 			page 184


 6679              		.loc 1 171 39 view .LVU2041
 6680 00e2 B0EE40AA 		vmov.f32	s20, s0
 6681              	.LVL409:
 172:main.cpp      ****     float raw_skew_cv = hw.GetAdcValue(patch_sm::CV_1);
 6682              		.loc 1 172 5 is_stmt 1 view .LVU2042
 6683              		.loc 1 172 39 is_stmt 0 view .LVU2043
 6684 00e6 0021     		movs	r1, #0
 6685 00e8 9A48     		ldr	r0, .L338
 6686 00ea FFF7FEFF 		bl	_ZN3oam12time_machine19TimeMachineHardware11GetAdcValueEi
 6687              	.LVL410:
 173:main.cpp      ****     float raw_fb_cv = hw.GetAdcValue(patch_sm::CV_3);
 6688              		.loc 1 173 37 view .LVU2044
 6689 00ee 0221     		movs	r1, #2
 6690 00f0 9848     		ldr	r0, .L338
 172:main.cpp      ****     float raw_skew_cv = hw.GetAdcValue(patch_sm::CV_1);
 6691              		.loc 1 172 39 view .LVU2045
 6692 00f2 F0EE409A 		vmov.f32	s19, s0
 6693              	.LVL411:
 6694              		.loc 1 173 5 is_stmt 1 view .LVU2046
 6695              		.loc 1 173 37 is_stmt 0 view .LVU2047
 6696 00f6 FFF7FEFF 		bl	_ZN3oam12time_machine19TimeMachineHardware11GetAdcValueEi
 6697              	.LVL412:
 174:main.cpp      **** 
 175:main.cpp      ****     // Combine & Clamp
 176:main.cpp      ****     k_time = raw_time_k + raw_time_cv;
 6698              		.loc 1 176 25 view .LVU2048
 6699 00fa 79EE0A7A 		vadd.f32	s15, s18, s20
 6700              	.LVL413:
 6701              		.loc 1 176 5 is_stmt 1 view .LVU2049
 177:main.cpp      ****     if (k_time < 0.0f)
 6702              		.loc 1 177 5 view .LVU2050
 6703 00fe F5EEC07A 		vcmpe.f32	s15, #0
 6704 0102 F1EE10FA 		vmrs	APSR_nzcv, FPSCR
 6705 0106 74D4     		bmi	.L300
 178:main.cpp      ****       k_time = 0.0f;
 179:main.cpp      ****     if (k_time > 1.0f)
 6706              		.loc 1 179 5 view .LVU2051
 6707 0108 B7EE007A 		vmov.f32	s14, #1.0e+0
 6708 010c F4EEC77A 		vcmpe.f32	s15, s14
 6709 0110 F1EE10FA 		vmrs	APSR_nzcv, FPSCR
 6710 0114 37FE277A 		vselgt.f32	s14, s14, s15
 6711              	.L286:
 180:main.cpp      ****       k_time = 1.0f;
 181:main.cpp      **** 
 182:main.cpp      ****     k_mod = raw_skew_k + raw_skew_cv;
 6712              		.loc 1 182 24 is_stmt 0 view .LVU2052
 6713 0118 78EEA97A 		vadd.f32	s15, s17, s19
 176:main.cpp      ****     if (k_time < 0.0f)
 6714              		.loc 1 176 12 view .LVU2053
 6715 011c 954B     		ldr	r3, .L338+32
 6716 011e 83ED007A 		vstr.32	s14, [r3]
 6717              		.loc 1 182 5 is_stmt 1 view .LVU2054
 183:main.cpp      ****     if (k_mod < 0.0f)
 6718              		.loc 1 183 5 view .LVU2055
 6719 0122 F5EEC07A 		vcmpe.f32	s15, #0
 6720 0126 F1EE10FA 		vmrs	APSR_nzcv, FPSCR
 6721 012a 5FD4     		bmi	.L301
ARM GAS  /var/folders/v1/156fk8j97zv9pzndh61fy7zm0000gn/T//ccyHp6tG.s 			page 185


 184:main.cpp      ****       k_mod = 0.0f;
 185:main.cpp      ****     if (k_mod > 1.0f)
 6722              		.loc 1 185 5 view .LVU2056
 6723 012c B7EE007A 		vmov.f32	s14, #1.0e+0
 6724 0130 F4EEC77A 		vcmpe.f32	s15, s14
 6725 0134 F1EE10FA 		vmrs	APSR_nzcv, FPSCR
 6726 0138 77FE277A 		vselgt.f32	s15, s14, s15
 6727              	.L287:
 186:main.cpp      ****       k_mod = 1.0f;
 187:main.cpp      **** 
 188:main.cpp      ****     k_decay = raw_fb_k + raw_fb_cv;
 6728              		.loc 1 188 24 is_stmt 0 view .LVU2057
 6729 013c 38EE000A 		vadd.f32	s0, s16, s0
 6730              	.LVL414:
 182:main.cpp      ****     if (k_mod < 0.0f)
 6731              		.loc 1 182 11 view .LVU2058
 6732 0140 8D4B     		ldr	r3, .L338+36
 6733 0142 C3ED007A 		vstr.32	s15, [r3]
 6734              		.loc 1 188 5 is_stmt 1 view .LVU2059
 189:main.cpp      ****     if (k_decay < 0.0f)
 6735              		.loc 1 189 5 view .LVU2060
 6736 0146 B5EEC00A 		vcmpe.f32	s0, #0
 6737 014a F1EE10FA 		vmrs	APSR_nzcv, FPSCR
 6738 014e 4AD4     		bmi	.L302
 190:main.cpp      ****       k_decay = 0.0f;
 191:main.cpp      ****     if (k_decay > 1.0f)
 6739              		.loc 1 191 5 view .LVU2061
 6740 0150 F7EE007A 		vmov.f32	s15, #1.0e+0
 6741 0154 B4EEE70A 		vcmpe.f32	s0, s15
 6742 0158 F1EE10FA 		vmrs	APSR_nzcv, FPSCR
 6743 015c 77FE807A 		vselgt.f32	s15, s15, s0
 6744              	.L288:
 6745 0160 DFF84882 		ldr	r8, .L338+88
 192:main.cpp      ****       k_decay = 1.0f; // Note: Legacy engine might expect >1.0 for self-osc?
 193:main.cpp      ****     // Legacy engine multiplies feedback by 3.0 internally in UpdateControls, so
 194:main.cpp      ****     // 0..1 input is correct.
 195:main.cpp      **** 
 196:main.cpp      ****     dry_mix = hw.GetSliderValue(0);
 6746              		.loc 1 196 32 is_stmt 0 view .LVU2062
 6747 0164 0021     		movs	r1, #0
 6748 0166 DFF84892 		ldr	r9, .L338+92
 6749              	.LBB1891:
 197:main.cpp      **** 
 198:main.cpp      ****     for (int i = 0; i < 8; i++) {
 6750              		.loc 1 198 14 view .LVU2063
 6751 016a 0024     		movs	r4, #0
 6752              	.LBE1891:
 196:main.cpp      **** 
 6753              		.loc 1 196 32 view .LVU2064
 6754 016c 7948     		ldr	r0, .L338
 196:main.cpp      **** 
 6755              		.loc 1 196 13 discriminator 1 view .LVU2065
 6756 016e 4646     		mov	r6, r8
 188:main.cpp      ****     if (k_decay < 0.0f)
 6757              		.loc 1 188 13 view .LVU2066
 6758 0170 C7ED007A 		vstr.32	s15, [r7]
 196:main.cpp      **** 
ARM GAS  /var/folders/v1/156fk8j97zv9pzndh61fy7zm0000gn/T//ccyHp6tG.s 			page 186


 6759              		.loc 1 196 5 is_stmt 1 view .LVU2067
 196:main.cpp      **** 
 6760              		.loc 1 196 13 is_stmt 0 discriminator 1 view .LVU2068
 6761 0174 4D46     		mov	r5, r9
 196:main.cpp      **** 
 6762              		.loc 1 196 32 view .LVU2069
 6763 0176 FFF7FEFF 		bl	_ZN3oam12time_machine19TimeMachineHardware14GetSliderValueEi
 6764              	.LVL415:
 6765 017a DFF838A2 		ldr	r10, .L338+96
 196:main.cpp      **** 
 6766              		.loc 1 196 13 discriminator 1 view .LVU2070
 6767 017e 7F4B     		ldr	r3, .L338+40
 6768 0180 83ED000A 		vstr.32	s0, [r3]
 6769              		.loc 1 198 5 is_stmt 1 view .LVU2071
 6770              	.LVL416:
 6771              	.LBB1892:
 6772              		.loc 1 198 23 discriminator 1 view .LVU2072
 6773              	.L289:
 199:main.cpp      ****       sliders_raw[i] = hw.GetSliderValue(i + 1);
 6774              		.loc 1 199 7 view .LVU2073
 6775              		.loc 1 199 41 is_stmt 0 view .LVU2074
 6776 0184 0134     		adds	r4, r4, #1
 6777              	.LVL417:
 6778              		.loc 1 199 41 view .LVU2075
 6779 0186 7348     		ldr	r0, .L338
 6780 0188 2146     		mov	r1, r4
 6781 018a FFF7FEFF 		bl	_ZN3oam12time_machine19TimeMachineHardware14GetSliderValueEi
 6782              	.LVL418:
 200:main.cpp      ****       gains[i] = sliders_raw[i];
 201:main.cpp      ****       vcas[i + 1] = 1.0f;
 6783              		.loc 1 201 19 view .LVU2076
 6784 018e F7EE007A 		vmov.f32	s15, #1.0e+0
 198:main.cpp      ****       sliders_raw[i] = hw.GetSliderValue(i + 1);
 6785              		.loc 1 198 23 discriminator 1 view .LVU2077
 6786 0192 082C     		cmp	r4, #8
 199:main.cpp      ****       sliders_raw[i] = hw.GetSliderValue(i + 1);
 6787              		.loc 1 199 22 discriminator 1 view .LVU2078
 6788 0194 A6EC010A 		vstmia.32	r6!, {s0}
 200:main.cpp      ****       gains[i] = sliders_raw[i];
 6789              		.loc 1 200 7 is_stmt 1 view .LVU2079
 200:main.cpp      ****       gains[i] = sliders_raw[i];
 6790              		.loc 1 200 16 is_stmt 0 view .LVU2080
 6791 0198 AAEC010A 		vstmia.32	r10!, {s0}
 6792              		.loc 1 201 7 is_stmt 1 view .LVU2081
 198:main.cpp      ****       sliders_raw[i] = hw.GetSliderValue(i + 1);
 6793              		.loc 1 198 5 discriminator 3 view .LVU2082
 6794              	.LVL419:
 198:main.cpp      ****       sliders_raw[i] = hw.GetSliderValue(i + 1);
 6795              		.loc 1 198 23 discriminator 1 view .LVU2083
 6796              		.loc 1 201 19 is_stmt 0 view .LVU2084
 6797 019c E5EC017A 		vstmia.32	r5!, {s15}
 198:main.cpp      ****       sliders_raw[i] = hw.GetSliderValue(i + 1);
 6798              		.loc 1 198 23 discriminator 1 view .LVU2085
 6799 01a0 F0D1     		bne	.L289
 6800              	.LBE1892:
 202:main.cpp      ****     }
 203:main.cpp      ****     vcas[0] = 1.0f;
ARM GAS  /var/folders/v1/156fk8j97zv9pzndh61fy7zm0000gn/T//ccyHp6tG.s 			page 187


 6801              		.loc 1 203 5 is_stmt 1 view .LVU2086
 6802              		.loc 1 203 13 is_stmt 0 view .LVU2087
 6803 01a2 774B     		ldr	r3, .L338+44
 6804 01a4 C3ED007A 		vstr.32	s15, [r3]
 204:main.cpp      **** 
 205:main.cpp      ****     // --- Update Engines ---
 206:main.cpp      ****     if (current_mode == APP_LEGACY) {
 6805              		.loc 1 206 5 is_stmt 1 view .LVU2088
 6806              	.LBB1893:
 6807              		.loc 1 206 22 is_stmt 0 view .LVU2089
 6808 01a8 009B     		ldr	r3, [sp]
 6809 01aa 1978     		ldrb	r1, [r3]	@ zero_extendqisi2
 6810              		.loc 1 206 5 view .LVU2090
 6811 01ac 0429     		cmp	r1, #4
 6812 01ae 23D0     		beq	.L337
 6813              	.LBE1893:
 6814              	.LBE1888:
 207:main.cpp      ****       legacy_engine.UpdateControls(k_time, k_mod, k_decay, dry_mix, sliders_raw,
 208:main.cpp      ****                                    vcas);
 209:main.cpp      ****     } else if (current_mode != APP_RESONATOR) {
 6815              		.loc 1 209 12 is_stmt 1 view .LVU2091
 6816              	.LBB1966:
 6817              	.LBB1960:
 6818              	.LBB1894:
 6819 01b0 0329     		cmp	r1, #3
 6820 01b2 0CD0     		beq	.L296
 6821              	.LBB1895:
 210:main.cpp      ****       // FDN Modes
 211:main.cpp      ****       float safe_decay = k_decay;
 6822              		.loc 1 211 7 view .LVU2092
 212:main.cpp      ****       if (current_mode != APP_MASSIVE) {
 6823              		.loc 1 212 7 is_stmt 0 view .LVU2093
 6824 01b4 0229     		cmp	r1, #2
 211:main.cpp      ****       if (current_mode != APP_MASSIVE) {
 6825              		.loc 1 211 13 view .LVU2094
 6826 01b6 D7ED007A 		vldr.32	s15, [r7]
 6827              	.LVL420:
 6828              		.loc 1 212 7 is_stmt 1 view .LVU2095
 6829 01ba 03D0     		beq	.L298
 213:main.cpp      ****         safe_decay *= 0.98f; // Limit feedback for non-massive modes
 6830              		.loc 1 213 9 view .LVU2096
 6831              		.loc 1 213 20 is_stmt 0 view .LVU2097
 6832 01bc 9FED717A 		vldr.32	s14, .L338+48
 6833 01c0 67EE877A 		vmul.f32	s15, s15, s14
 6834              	.LVL421:
 6835              	.L298:
 214:main.cpp      ****       }
 215:main.cpp      ****       fdn_engine.SetDecay(safe_decay);
 6836              		.loc 1 215 7 is_stmt 1 view .LVU2098
 6837              	.LBB1896:
 6838              	.LBI1896:
 278:uber_fdn.h    **** 
 6839              		.loc 9 278 8 view .LVU2099
 6840              	.LBB1897:
 278:uber_fdn.h    **** 
 6841              		.loc 9 278 42 is_stmt 0 view .LVU2100
 6842 01c4 019B     		ldr	r3, [sp, #4]
ARM GAS  /var/folders/v1/156fk8j97zv9pzndh61fy7zm0000gn/T//ccyHp6tG.s 			page 188


 6843 01c6 03F65463 		addw	r3, r3, #3668
 6844 01ca C3ED007A 		vstr.32	s15, [r3]
 6845              	.LVL422:
 6846              	.L296:
 278:uber_fdn.h    **** 
 6847              		.loc 9 278 42 view .LVU2101
 6848              	.LBE1897:
 6849              	.LBE1896:
 6850              	.LBE1895:
 6851              	.LBE1894:
 6852              	.LBE1960:
 216:main.cpp      ****     }
 217:main.cpp      **** 
 218:main.cpp      ****     hw.SetLed(System::GetNow() & 1024);
 6853              		.loc 1 218 5 is_stmt 1 view .LVU2102
 6854              		.loc 1 218 29 is_stmt 0 view .LVU2103
 6855 01ce FFF7FEFF 		bl	_ZN5daisy6System6GetNowEv
 6856              	.LVL423:
 6857 01d2 0146     		mov	r1, r0
 6858              		.loc 1 218 14 discriminator 1 view .LVU2104
 6859 01d4 5F48     		ldr	r0, .L338
 6860 01d6 C1F38021 		ubfx	r1, r1, #10, #1
 6861 01da FFF7FEFF 		bl	_ZN3oam12time_machine19TimeMachineHardware6SetLedEb
 6862              	.LVL424:
 219:main.cpp      ****     hw.Delay(4);
 6863              		.loc 1 219 5 is_stmt 1 view .LVU2105
 6864              	.LBB1961:
 6865              	.LBI1961:
 203:time_machine_hardware.h ****         {
 6866              		.loc 2 203 21 view .LVU2106
 6867              	.LBB1962:
 6868              		.loc 2 205 13 view .LVU2107
 6869              		.loc 2 205 26 is_stmt 0 view .LVU2108
 6870 01de 0420     		movs	r0, #4
 6871 01e0 FFF7FEFF 		bl	_ZN5daisy6System5DelayEm
 6872              	.LVL425:
 6873              		.loc 2 205 26 view .LVU2109
 6874              	.LBE1962:
 6875              	.LBE1961:
 6876              	.LBE1966:
 161:main.cpp      ****     hw.ProcessAllControls();
 6877              		.loc 1 161 3 is_stmt 1 view .LVU2110
 6878              	.LBB1967:
 6879              	.LBB1964:
 6880              	.LBB1963:
 206:time_machine_hardware.h ****         }
 6881              		.loc 2 206 9 is_stmt 0 view .LVU2111
 6882 01e4 61E7     		b	.L299
 6883              	.LVL426:
 6884              	.L302:
 6885              		.loc 2 206 9 view .LVU2112
 6886              	.LBE1963:
 6887              	.LBE1964:
 6888 01e6 DFED687A 		vldr.32	s15, .L338+52
 6889 01ea B9E7     		b	.L288
 6890              	.LVL427:
 6891              	.L301:
ARM GAS  /var/folders/v1/156fk8j97zv9pzndh61fy7zm0000gn/T//ccyHp6tG.s 			page 189


 6892              		.loc 2 206 9 view .LVU2113
 6893 01ec DFED667A 		vldr.32	s15, .L338+52
 6894 01f0 A4E7     		b	.L287
 6895              	.L300:
 6896              		.loc 2 206 9 view .LVU2114
 6897 01f2 9FED657A 		vldr.32	s14, .L338+52
 6898 01f6 8FE7     		b	.L286
 6899              	.LVL428:
 6900              	.L337:
 6901              	.LBB1965:
 207:main.cpp      ****                                    vcas);
 6902              		.loc 1 207 7 is_stmt 1 view .LVU2115
 207:main.cpp      ****                                    vcas);
 6903              		.loc 1 207 35 is_stmt 0 view .LVU2116
 6904 01f8 5F4B     		ldr	r3, .L338+36
 6905              	.LBB1898:
 6906              	.LBB1899:
 266:legacy_engine.h **** 
 6907              		.loc 11 266 11 view .LVU2117
 6908 01fa B0EE087A 		vmov.f32	s14, #3.0e+0
 6909 01fe 97ED00AA 		vldr.32	s20, [r7]
 6910              	.LVL429:
 6911              	.LBB1900:
 272:legacy_engine.h ****       float slider_val = sliders[i - 1];
 6912              		.loc 11 272 14 view .LVU2118
 6913 0202 0125     		movs	r5, #1
 6914              	.LBE1900:
 6915              	.LBE1899:
 6916              	.LBE1898:
 207:main.cpp      ****                                    vcas);
 6917              		.loc 1 207 35 view .LVU2119
 6918 0204 D3ED009A 		vldr.32	s19, [r3]
 6919              	.LVL430:
 6920              	.LBB1957:
 6921              	.LBB1953:
 262:legacy_engine.h ****         time_knob * 150.0f; // Linear mapping simplification for Omnibus
 6922              		.loc 11 262 11 view .LVU2120
 6923 0208 5A4B     		ldr	r3, .L338+32
 266:legacy_engine.h **** 
 6924              		.loc 11 266 11 view .LVU2121
 6925 020a 2AEE07AA 		vmul.f32	s20, s20, s14
 6926 020e F4EEE79A 		vcmpe.f32	s19, s15
 6927 0212 9FED5D7A 		vldr.32	s14, .L338+52
 262:legacy_engine.h ****         time_knob * 150.0f; // Linear mapping simplification for Omnibus
 6928              		.loc 11 262 11 view .LVU2122
 6929 0216 93ED009A 		vldr.32	s18, [r3]
 6930              	.LVL431:
 6931              	.LBB1938:
 6932              	.LBB1939:
 206:legacy_engine.h ****     blur = b;
 6933              		.loc 11 206 14 view .LVU2123
 6934 021a 5C4B     		ldr	r3, .L338+56
 6935 021c F1EE10FA 		vmrs	APSR_nzcv, FPSCR
 6936              	.LBE1939:
 6937              	.LBE1938:
 262:legacy_engine.h ****         time_knob * 150.0f; // Linear mapping simplification for Omnibus
 6938              		.loc 11 262 11 view .LVU2124
ARM GAS  /var/folders/v1/156fk8j97zv9pzndh61fy7zm0000gn/T//ccyHp6tG.s 			page 190


 6939 0220 DFED5B6A 		vldr.32	s13, .L338+60
 6940              	.LBB1943:
 6941              	.LBB1940:
 206:legacy_engine.h ****     blur = b;
 6942              		.loc 11 206 14 view .LVU2125
 6943 0224 83ED00AA 		vstr.32	s20, [r3]
 207:legacy_engine.h ****   }
 6944              		.loc 11 207 10 view .LVU2126
 6945 0228 83ED01AA 		vstr.32	s20, [r3, #4]
 6946              	.LBE1940:
 6947              	.LBE1943:
 262:legacy_engine.h ****         time_knob * 150.0f; // Linear mapping simplification for Omnibus
 6948              		.loc 11 262 11 view .LVU2127
 6949 022c 29EE269A 		vmul.f32	s18, s18, s13
 6950 0230 58BF     		it	pl
 6951 0232 F0EE679A 		vmovpl.f32	s19, s15
 6952              	.LBE1953:
 6953              	.LBE1957:
 207:main.cpp      ****                                    vcas);
 6954              		.loc 1 207 35 view .LVU2128
 6955 0236 514B     		ldr	r3, .L338+40
 6956              	.LBB1958:
 6957              	.LBB1954:
 6958              	.LBB1944:
 6959              	.LBB1945:
 206:legacy_engine.h ****     blur = b;
 6960              		.loc 11 206 14 view .LVU2129
 6961 0238 8BED80AA 		vstr.32	s20, [fp, #512]
 6962              	.LBE1945:
 6963              	.LBE1944:
 6964              	.LBE1954:
 6965              	.LBE1958:
 207:main.cpp      ****                                    vcas);
 6966              		.loc 1 207 35 view .LVU2130
 6967 023c 1968     		ldr	r1, [r3]	@ float
 6968 023e F4EEC79A 		vcmpe.f32	s19, s14
 6969              	.LBB1959:
 6970              	.LBB1955:
 6971              	.LBB1948:
 6972              	.LBB1941:
 205:legacy_engine.h ****     feedback = f;
 6973              		.loc 11 205 12 view .LVU2131
 6974 0242 544B     		ldr	r3, .L338+64
 6975              	.LBE1941:
 6976              	.LBE1948:
 6977              	.LBB1949:
 6978              	.LBB1946:
 207:legacy_engine.h ****   }
 6979              		.loc 11 207 10 view .LVU2132
 6980 0244 8BED81AA 		vstr.32	s20, [fp, #516]
 205:legacy_engine.h ****     feedback = f;
 6981              		.loc 11 205 12 view .LVU2133
 6982 0248 CBF8FC11 		str	r1, [fp, #508]	@ float
 6983 024c A3F26C4B 		subw	fp, r3, #1132
 6984 0250 F1EE10FA 		vmrs	APSR_nzcv, FPSCR
 6985              	.LVL432:
 205:legacy_engine.h ****     feedback = f;
ARM GAS  /var/folders/v1/156fk8j97zv9pzndh61fy7zm0000gn/T//ccyHp6tG.s 			page 191


 6986              		.loc 11 205 12 view .LVU2134
 6987              	.LBE1946:
 6988              	.LBE1949:
 6989              	.LBE1955:
 6990              	.LBI1898:
 256:legacy_engine.h ****                       float dry_slider, const float *sliders,
 6991              		.loc 11 256 8 is_stmt 1 view .LVU2135
 6992              	.LBB1956:
 261:legacy_engine.h ****     float time =
 6993              		.loc 11 261 5 view .LVU2136
 262:legacy_engine.h ****         time_knob * 150.0f; // Linear mapping simplification for Omnibus
 6994              		.loc 11 262 5 view .LVU2137
 266:legacy_engine.h **** 
 6995              		.loc 11 266 5 view .LVU2138
 268:legacy_engine.h ****              feedback); // Blur = feedback (from original logic)
 6996              		.loc 11 268 5 view .LVU2139
 6997              	.LBB1950:
 6998              	.LBI1944:
 204:legacy_engine.h ****     dryAmp = d;
 6999              		.loc 11 204 8 view .LVU2140
 7000              	.LBB1947:
 205:legacy_engine.h ****     feedback = f;
 7001              		.loc 11 205 5 view .LVU2141
 206:legacy_engine.h ****     blur = b;
 7002              		.loc 11 206 5 view .LVU2142
 207:legacy_engine.h ****   }
 7003              		.loc 11 207 5 view .LVU2143
 207:legacy_engine.h ****   }
 7004              		.loc 11 207 5 is_stmt 0 view .LVU2144
 7005              	.LBE1947:
 7006              	.LBE1950:
 270:legacy_engine.h **** 
 7007              		.loc 11 270 5 is_stmt 1 view .LVU2145
 7008              	.LBB1951:
 7009              	.LBI1938:
 204:legacy_engine.h ****     dryAmp = d;
 7010              		.loc 11 204 8 view .LVU2146
 7011              	.LBB1942:
 205:legacy_engine.h ****     feedback = f;
 7012              		.loc 11 205 5 view .LVU2147
 205:legacy_engine.h ****     feedback = f;
 7013              		.loc 11 205 12 is_stmt 0 view .LVU2148
 7014 0254 1960     		str	r1, [r3]	@ float
 206:legacy_engine.h ****     blur = b;
 7015              		.loc 11 206 5 is_stmt 1 view .LVU2149
 207:legacy_engine.h ****   }
 7016              		.loc 11 207 5 view .LVU2150
 7017              	.LVL433:
 207:legacy_engine.h ****   }
 7018              		.loc 11 207 5 is_stmt 0 view .LVU2151
 7019              	.LBE1942:
 7020              	.LBE1951:
 272:legacy_engine.h ****       float slider_val = sliders[i - 1];
 7021              		.loc 11 272 5 is_stmt 1 view .LVU2152
 7022              	.LBB1952:
 272:legacy_engine.h ****       float slider_val = sliders[i - 1];
 7023              		.loc 11 272 23 discriminator 1 view .LVU2153
ARM GAS  /var/folders/v1/156fk8j97zv9pzndh61fy7zm0000gn/T//ccyHp6tG.s 			page 192


 7024 0256 5C46     		mov	r4, fp
 7025              	.LVL434:
 272:legacy_engine.h ****       float slider_val = sliders[i - 1];
 7026              		.loc 11 272 23 is_stmt 0 discriminator 1 view .LVU2154
 7027 0258 79FE879A 		vselgt.f32	s19, s19, s14
 7028 025c 2CE0     		b	.L295
 7029              	.LVL435:
 7030              	.L331:
 7031              	.LBB1901:
 7032              	.LBB1902:
 7033              	.LBB1903:
  34:legacy_engine.h ****       s = s * e + 1.0f;
 7034              		.loc 11 34 7 is_stmt 1 view .LVU2155
  34:legacy_engine.h ****       s = s * e + 1.0f;
 7035              		.loc 11 34 9 is_stmt 0 view .LVU2156
 7036 025e B0EE007A 		vmov.f32	s14, #2.0e+0
  35:legacy_engine.h ****       return powf(x, s);
 7037              		.loc 11 35 9 view .LVU2157
 7038 0262 F0EE047A 		vmov.f32	s15, #2.5e+0
  33:legacy_engine.h ****       s = 1.0f - (s * 2.0f);
 7039              		.loc 11 33 12 view .LVU2158
 7040 0266 09D5     		bpl	.L293
  34:legacy_engine.h ****       s = s * e + 1.0f;
 7041              		.loc 11 34 9 view .LVU2159
 7042 0268 F0EE686A 		vmov.f32	s13, s17
  36:legacy_engine.h ****     } else {
 7043              		.loc 11 36 18 view .LVU2160
 7044 026c F0EE680A 		vmov.f32	s1, s17
  34:legacy_engine.h ****       s = s * e + 1.0f;
 7045              		.loc 11 34 9 view .LVU2161
 7046 0270 E9EEC76A 		vfms.f32	s13, s19, s14
 7047              	.LVL436:
  35:legacy_engine.h ****       return powf(x, s);
 7048              		.loc 11 35 7 is_stmt 1 view .LVU2162
  36:legacy_engine.h ****     } else {
 7049              		.loc 11 36 7 view .LVU2163
  36:legacy_engine.h ****     } else {
 7050              		.loc 11 36 18 is_stmt 0 view .LVU2164
 7051 0274 E6EEA70A 		vfma.f32	s1, s13, s15
 7052              	.LVL437:
  36:legacy_engine.h ****     } else {
 7053              		.loc 11 36 18 view .LVU2165
 7054 0278 FFF7FEFF 		bl	powf
 7055              	.LVL438:
 7056              	.L293:
  36:legacy_engine.h ****     } else {
 7057              		.loc 11 36 18 view .LVU2166
 7058              	.LBE1903:
 7059              	.LBE1902:
 282:legacy_engine.h ****       right.readHeads[i - 1].Set(t, amp, std::max(0.0f, feedback - 1.0f));
 7060              		.loc 11 282 65 view .LVU2167
 7061 027c F7EE007A 		vmov.f32	s15, #1.0e+0
 7062 0280 9FED417A 		vldr.32	s14, .L338+52
 7063              	.LBE1901:
 272:legacy_engine.h ****       float slider_val = sliders[i - 1];
 7064              		.loc 11 272 5 discriminator 3 view .LVU2168
 7065 0284 0135     		adds	r5, r5, #1
ARM GAS  /var/folders/v1/156fk8j97zv9pzndh61fy7zm0000gn/T//ccyHp6tG.s 			page 193


 7066              	.LVL439:
 7067              	.LBB1934:
 281:legacy_engine.h ****       left.readHeads[i - 1].Set(t, amp, std::max(0.0f, feedback - 1.0f));
 7068              		.loc 11 281 67 discriminator 1 view .LVU2169
 7069 0286 29EE000A 		vmul.f32	s0, s18, s0
 7070              	.LVL440:
 282:legacy_engine.h ****       right.readHeads[i - 1].Set(t, amp, std::max(0.0f, feedback - 1.0f));
 7071              		.loc 11 282 7 is_stmt 1 view .LVU2170
 7072              	.LBB1908:
 7073              	.LBB1909:
 123:legacy_engine.h ****     blurAmount = blur;
 7074              		.loc 11 123 15 is_stmt 0 view .LVU2171
 7075 028a 84ED0A8A 		vstr.32	s16, [r4, #40]
 7076              	.LBE1909:
 7077              	.LBE1908:
 7078              	.LBE1934:
 272:legacy_engine.h ****       float slider_val = sliders[i - 1];
 7079              		.loc 11 272 23 discriminator 1 view .LVU2172
 7080 028e 3C34     		adds	r4, r4, #60
 7081              	.LBB1935:
 282:legacy_engine.h ****       right.readHeads[i - 1].Set(t, amp, std::max(0.0f, feedback - 1.0f));
 7082              		.loc 11 282 65 view .LVU2173
 7083 0290 7AEE677A 		vsub.f32	s15, s20, s15
 7084              	.LBB1913:
 7085              	.LBB1914:
 123:legacy_engine.h ****     blurAmount = blur;
 7086              		.loc 11 123 15 view .LVU2174
 7087 0294 84ED978A 		vstr.32	s16, [r4, #604]
 7088              	.LBE1914:
 7089              	.LBE1913:
 7090              	.LBB1917:
 7091              	.LBB1910:
 122:legacy_engine.h ****     targetAmp = amp;
 7092              		.loc 11 122 17 view .LVU2175
 7093 0298 04ED080A 		vstr.32	s0, [r4, #-32]
 7094              	.LBE1910:
 7095              	.LBE1917:
 7096              	.LBB1918:
 7097              	.LBB1915:
 7098 029c 84ED940A 		vstr.32	s0, [r4, #592]
 7099 02a0 F4EEC77A 		vcmpe.f32	s15, s14
 7100 02a4 F1EE10FA 		vmrs	APSR_nzcv, FPSCR
 7101 02a8 77FE877A 		vselgt.f32	s15, s15, s14
 7102              	.LVL441:
 122:legacy_engine.h ****     targetAmp = amp;
 7103              		.loc 11 122 17 view .LVU2176
 7104              	.LBE1915:
 7105              	.LBE1918:
 7106              	.LBB1919:
 7107              	.LBI1908:
 121:legacy_engine.h ****     targetDelay = delay;
 7108              		.loc 11 121 8 is_stmt 1 view .LVU2177
 7109              	.LBB1911:
 122:legacy_engine.h ****     targetAmp = amp;
 7110              		.loc 11 122 5 view .LVU2178
 123:legacy_engine.h ****     blurAmount = blur;
 7111              		.loc 11 123 5 view .LVU2179
ARM GAS  /var/folders/v1/156fk8j97zv9pzndh61fy7zm0000gn/T//ccyHp6tG.s 			page 194


 124:legacy_engine.h ****   }
 7112              		.loc 11 124 5 view .LVU2180
 7113              	.LBE1911:
 7114              	.LBE1919:
 7115              	.LBE1935:
 272:legacy_engine.h ****       float slider_val = sliders[i - 1];
 7116              		.loc 11 272 23 is_stmt 0 discriminator 1 view .LVU2181
 7117 02ac 092D     		cmp	r5, #9
 7118              	.LBB1936:
 7119              	.LBB1920:
 7120              	.LBB1912:
 124:legacy_engine.h ****   }
 7121              		.loc 11 124 16 view .LVU2182
 7122 02ae 44ED017A 		vstr.32	s15, [r4, #-4]
 7123              	.LVL442:
 124:legacy_engine.h ****   }
 7124              		.loc 11 124 16 view .LVU2183
 7125              	.LBE1912:
 7126              	.LBE1920:
 283:legacy_engine.h ****     }
 7127              		.loc 11 283 7 is_stmt 1 view .LVU2184
 7128              	.LBB1921:
 7129              	.LBI1913:
 121:legacy_engine.h ****     targetDelay = delay;
 7130              		.loc 11 121 8 view .LVU2185
 7131              	.LBB1916:
 122:legacy_engine.h ****     targetAmp = amp;
 7132              		.loc 11 122 5 view .LVU2186
 123:legacy_engine.h ****     blurAmount = blur;
 7133              		.loc 11 123 5 view .LVU2187
 124:legacy_engine.h ****   }
 7134              		.loc 11 124 5 view .LVU2188
 124:legacy_engine.h ****   }
 7135              		.loc 11 124 16 is_stmt 0 view .LVU2189
 7136 02b2 C4ED9B7A 		vstr.32	s15, [r4, #620]
 7137              	.LVL443:
 124:legacy_engine.h ****   }
 7138              		.loc 11 124 16 view .LVU2190
 7139              	.LBE1916:
 7140              	.LBE1921:
 7141              	.LBE1936:
 272:legacy_engine.h ****       float slider_val = sliders[i - 1];
 7142              		.loc 11 272 5 is_stmt 1 discriminator 3 view .LVU2191
 272:legacy_engine.h ****       float slider_val = sliders[i - 1];
 7143              		.loc 11 272 23 discriminator 1 view .LVU2192
 7144 02b6 8AD0     		beq	.L296
 7145              	.LVL444:
 7146              	.L295:
 7147              	.LBB1937:
 273:legacy_engine.h ****       float vca_val = vcas[i];
 7148              		.loc 11 273 7 view .LVU2193
 7149              	.LBB1922:
 7150              	.LBB1904:
  33:legacy_engine.h ****       s = 1.0f - (s * 2.0f);
 7151              		.loc 11 33 12 view .LVU2194
 7152              	.LBE1904:
 7153              	.LBE1922:
ARM GAS  /var/folders/v1/156fk8j97zv9pzndh61fy7zm0000gn/T//ccyHp6tG.s 			page 195


 276:legacy_engine.h ****       // Original: minMaxSlider((1.0f - hw.GetSliderValue(i)) *
 7154              		.loc 11 276 17 is_stmt 0 view .LVU2195
 7155 02b8 F7EE008A 		vmov.f32	s17, #1.0e+0
 273:legacy_engine.h ****       float vca_val = vcas[i];
 7156              		.loc 11 273 13 view .LVU2196
 7157 02bc F8EC017A 		vldmia.32	r8!, {s15}
 7158              	.LVL445:
 274:legacy_engine.h ****       float amp = LegacyHelpers::minMaxSlider(
 7159              		.loc 11 274 7 is_stmt 1 view .LVU2197
 274:legacy_engine.h ****       float amp = LegacyHelpers::minMaxSlider(
 7160              		.loc 11 274 13 is_stmt 0 view .LVU2198
 7161 02c0 F9EC015A 		vldmia.32	r9!, {s11}
 7162              	.LVL446:
 275:legacy_engine.h ****           (1.0f - slider_val) * vca_val); // Inverting? checks original
 7163              		.loc 11 275 7 is_stmt 1 view .LVU2199
 7164              	.LBB1923:
 7165              	.LBI1923:
  42:legacy_engine.h ****     in = in - dz * 0.5f;
 7166              		.loc 11 42 16 view .LVU2200
 7167              	.LBB1924:
  43:legacy_engine.h ****     in = in * (1.0f + dz);
 7168              		.loc 11 43 5 view .LVU2201
 7169              	.LBE1924:
 7170              	.LBE1923:
 7171              	.LBB1928:
 7172              	.LBB1905:
  29:legacy_engine.h ****       s = (s - 0.5f) * 2.0f;
 7173              		.loc 11 29 5 is_stmt 0 view .LVU2202
 7174 02c4 B6EE007A 		vmov.f32	s14, #5.0e-1
 7175              	.LBE1905:
 7176              	.LBE1928:
 7177              	.LBB1929:
 7178              	.LBB1925:
  43:legacy_engine.h ****     in = in * (1.0f + dz);
 7179              		.loc 11 43 13 view .LVU2203
 7180 02c8 9FED338A 		vldr.32	s16, .L338+68
 7181              	.LBE1925:
 7182              	.LBE1929:
 281:legacy_engine.h ****       left.readHeads[i - 1].Set(t, amp, std::max(0.0f, feedback - 1.0f));
 7183              		.loc 11 281 38 view .LVU2204
 7184 02cc 00EE105A 		vmov	s0, r5	@ int
 276:legacy_engine.h ****       // Original: minMaxSlider((1.0f - hw.GetSliderValue(i)) *
 7185              		.loc 11 276 17 view .LVU2205
 7186 02d0 78EEE77A 		vsub.f32	s15, s17, s15
 7187              	.LVL447:
 7188              	.LBB1930:
 7189              	.LBB1926:
  44:legacy_engine.h ****     return std::min(1.0f, std::max(0.0f, in));
 7190              		.loc 11 44 13 view .LVU2206
 7191 02d4 9FED316A 		vldr.32	s12, .L338+72
 7192 02d8 DFED2B6A 		vldr.32	s13, .L338+52
 7193              	.LBE1926:
 7194              	.LBE1930:
 281:legacy_engine.h ****       left.readHeads[i - 1].Set(t, amp, std::max(0.0f, feedback - 1.0f));
 7195              		.loc 11 281 38 view .LVU2207
 7196 02dc BAEEEE0A 		vcvt.f32.s32	s0, s0, #3
 7197              	.LBB1931:
ARM GAS  /var/folders/v1/156fk8j97zv9pzndh61fy7zm0000gn/T//ccyHp6tG.s 			page 196


 7198              	.LBB1927:
  43:legacy_engine.h ****     in = in * (1.0f + dz);
 7199              		.loc 11 43 13 view .LVU2208
 7200 02e0 A5EEA78A 		vfma.f32	s16, s11, s15
  44:legacy_engine.h ****     return std::min(1.0f, std::max(0.0f, in));
 7201              		.loc 11 44 5 is_stmt 1 view .LVU2209
  44:legacy_engine.h ****     return std::min(1.0f, std::max(0.0f, in));
 7202              		.loc 11 44 13 is_stmt 0 view .LVU2210
 7203 02e4 28EE068A 		vmul.f32	s16, s16, s12
  45:legacy_engine.h ****   }
 7204              		.loc 11 45 5 is_stmt 1 view .LVU2211
 7205              	.LVL448:
  45:legacy_engine.h ****   }
 7206              		.loc 11 45 5 is_stmt 0 view .LVU2212
 7207 02e8 B4EEE68A 		vcmpe.f32	s16, s13
 7208 02ec F1EE10FA 		vmrs	APSR_nzcv, FPSCR
 7209 02f0 38FE268A 		vselgt.f32	s16, s16, s13
 7210              	.LVL449:
  45:legacy_engine.h ****   }
 7211              		.loc 11 45 5 view .LVU2213
 7212 02f4 B4EEE88A 		vcmpe.f32	s16, s17
 7213 02f8 F1EE10FA 		vmrs	APSR_nzcv, FPSCR
 7214              	.LBE1927:
 7215              	.LBE1931:
 7216              	.LBB1932:
 7217              	.LBB1906:
  29:legacy_engine.h ****       s = (s - 0.5f) * 2.0f;
 7218              		.loc 11 29 5 view .LVU2214
 7219 02fc F4EEC79A 		vcmpe.f32	s19, s14
 7220 0300 58BF     		it	pl
 7221 0302 B0EE688A 		vmovpl.f32	s16, s17
 7222              	.LVL450:
  29:legacy_engine.h ****       s = (s - 0.5f) * 2.0f;
 7223              		.loc 11 29 5 view .LVU2215
 7224              	.LBE1906:
 7225              	.LBE1932:
 281:legacy_engine.h ****       left.readHeads[i - 1].Set(t, amp, std::max(0.0f, feedback - 1.0f));
 7226              		.loc 11 281 7 is_stmt 1 view .LVU2216
 7227              	.LBB1933:
 7228              	.LBI1902:
  27:legacy_engine.h ****     s = clamp(s, 0.0f, 1.0f);
 7229              		.loc 11 27 16 view .LVU2217
 7230              	.LBB1907:
  28:legacy_engine.h ****     if (s > 0.5f) {
 7231              		.loc 11 28 5 view .LVU2218
  29:legacy_engine.h ****       s = (s - 0.5f) * 2.0f;
 7232              		.loc 11 29 5 view .LVU2219
 7233 0306 F1EE10FA 		vmrs	APSR_nzcv, FPSCR
 7234 030a A8DD     		ble	.L331
  30:legacy_engine.h ****       s = s * e + 1.0f;
 7235              		.loc 11 30 7 view .LVU2220
  30:legacy_engine.h ****       s = s * e + 1.0f;
 7236              		.loc 11 30 14 is_stmt 0 view .LVU2221
 7237 030c 39EEC77A 		vsub.f32	s14, s19, s14
  31:legacy_engine.h ****       return 1.0f - powf(1.0f - x, s);
 7238              		.loc 11 31 9 view .LVU2222
 7239 0310 F0EE047A 		vmov.f32	s15, #2.5e+0
ARM GAS  /var/folders/v1/156fk8j97zv9pzndh61fy7zm0000gn/T//ccyHp6tG.s 			page 197


  32:legacy_engine.h ****     } else if (s < 0.5f) {
 7240              		.loc 11 32 25 view .LVU2223
 7241 0314 F0EE680A 		vmov.f32	s1, s17
  30:legacy_engine.h ****       s = s * e + 1.0f;
 7242              		.loc 11 30 9 view .LVU2224
 7243 0318 37EE077A 		vadd.f32	s14, s14, s14
 7244              	.LVL451:
  31:legacy_engine.h ****       return 1.0f - powf(1.0f - x, s);
 7245              		.loc 11 31 7 is_stmt 1 view .LVU2225
  32:legacy_engine.h ****     } else if (s < 0.5f) {
 7246              		.loc 11 32 7 view .LVU2226
  32:legacy_engine.h ****     } else if (s < 0.5f) {
 7247              		.loc 11 32 25 is_stmt 0 view .LVU2227
 7248 031c 38EEC00A 		vsub.f32	s0, s17, s0
 7249              	.LVL452:
  32:legacy_engine.h ****     } else if (s < 0.5f) {
 7250              		.loc 11 32 25 view .LVU2228
 7251 0320 E7EE270A 		vfma.f32	s1, s14, s15
 7252              	.LVL453:
  32:legacy_engine.h ****     } else if (s < 0.5f) {
 7253              		.loc 11 32 25 view .LVU2229
 7254 0324 FFF7FEFF 		bl	powf
 7255              	.LVL454:
  32:legacy_engine.h ****     } else if (s < 0.5f) {
 7256              		.loc 11 32 37 discriminator 1 view .LVU2230
 7257 0328 38EEC00A 		vsub.f32	s0, s17, s0
  32:legacy_engine.h ****     } else if (s < 0.5f) {
 7258              		.loc 11 32 37 view .LVU2231
 7259 032c A6E7     		b	.L293
 7260              	.LVL455:
 7261              	.L327:
  32:legacy_engine.h ****     } else if (s < 0.5f) {
 7262              		.loc 11 32 37 view .LVU2232
 7263              	.LBE1907:
 7264              	.LBE1933:
 7265              	.LBE1937:
 7266              	.LBE1952:
 7267              	.LBE1956:
 7268              	.LBE1959:
 7269              	.LBE1965:
 7270              	.LBE1967:
  97:main.cpp      ****     current_mode = APP_SHIMMER;
 7271              		.loc 1 97 10 is_stmt 1 view .LVU2233
 7272 032e 9FED1C7A 		vldr.32	s14, .L338+76
 7273 0332 B4EEC70A 		vcmpe.f32	s0, s14
 7274 0336 F1EE10FA 		vmrs	APSR_nzcv, FPSCR
 7275 033a 01D5     		bpl	.L328
  98:main.cpp      ****     fdn_engine.SetMode(MODE_SHIMMER);
 7276              		.loc 1 98 5 view .LVU2234
  98:main.cpp      ****     fdn_engine.SetMode(MODE_SHIMMER);
 7277              		.loc 1 98 18 is_stmt 0 view .LVU2235
 7278 033c 0123     		movs	r3, #1
 7279 033e 83E6     		b	.L334
 7280              	.L328:
 100:main.cpp      ****     current_mode = APP_MASSIVE;
 7281              		.loc 1 100 10 is_stmt 1 view .LVU2236
 7282 0340 9FED187A 		vldr.32	s14, .L338+80
ARM GAS  /var/folders/v1/156fk8j97zv9pzndh61fy7zm0000gn/T//ccyHp6tG.s 			page 198


 7283 0344 B4EEC70A 		vcmpe.f32	s0, s14
 7284 0348 F1EE10FA 		vmrs	APSR_nzcv, FPSCR
 7285 034c 40F15D81 		bpl	.L329
 101:main.cpp      ****     fdn_engine.SetMode(MODE_MASSIVE);
 7286              		.loc 1 101 5 view .LVU2237
 101:main.cpp      ****     fdn_engine.SetMode(MODE_MASSIVE);
 7287              		.loc 1 101 18 is_stmt 0 view .LVU2238
 7288 0350 0223     		movs	r3, #2
 7289 0352 79E6     		b	.L334
 7290              	.L339:
 7291              		.align	2
 7292              	.L338:
 7293 0354 00000000 		.word	hw
 7294 0358 CDCC4C3E 		.word	1045220557
 7295 035c 00000000 		.word	current_mode
 7296 0360 00200400 		.word	fdn_engine+270336
 7297 0364 00000000 		.word	big_sdram_buffer
 7298 0368 00000000 		.word	fdn_engine
 7299 036c 00000000 		.word	k_decay
 7300 0370 00000000 		.word	_Z17AudioCallbackRealPKPKfPPfj
 7301 0374 00000000 		.word	k_time
 7302 0378 00000000 		.word	k_mod
 7303 037c 00000000 		.word	dry_mix
 7304 0380 00000000 		.word	vcas
 7305 0384 48E17A3F 		.word	1065017672
 7306 0388 00000000 		.word	0
 7307 038c 70040000 		.word	legacy_engine+1136
 7308 0390 00001643 		.word	1125515264
 7309 0394 6C040000 		.word	legacy_engine+1132
 7310 0398 6F1283BA 		.word	-1165815185
 7311 039c 8941803F 		.word	1065369993
 7312 03a0 CDCCCC3E 		.word	1053609165
 7313 03a4 9A99193F 		.word	1058642330
 7314 03a8 00000000 		.word	legacy_engine
 7315 03ac 00000000 		.word	sliders_raw
 7316 03b0 04000000 		.word	vcas+4
 7317 03b4 00000000 		.word	gains
 7318              	.LVL456:
 7319              	.L336:
 7320              	.LBB1968:
 125:main.cpp      ****   } else {
 7321              		.loc 1 125 5 is_stmt 1 view .LVU2239
 7322              	.LBB1637:
 7323              	.LBI1637:
  32:omni_resonator.h ****     sr_ = sample_rate;
 7324              		.loc 10 32 8 view .LVU2240
 7325              	.LBB1638:
  33:omni_resonator.h ****     for (int i = 0; i < 8; i++) {
 7326              		.loc 10 33 5 view .LVU2241
  33:omni_resonator.h ****     for (int i = 0; i < 8; i++) {
 7327              		.loc 10 33 9 is_stmt 0 view .LVU2242
 7328 03b8 9B4D     		ldr	r5, .L340
 7329              	.LVL457:
  33:omni_resonator.h ****     for (int i = 0; i < 8; i++) {
 7330              		.loc 10 33 9 view .LVU2243
 7331 03ba 2C46     		mov	r4, r5
 7332              	.LVL458:
ARM GAS  /var/folders/v1/156fk8j97zv9pzndh61fy7zm0000gn/T//ccyHp6tG.s 			page 199


  33:omni_resonator.h ****     for (int i = 0; i < 8; i++) {
 7333              		.loc 10 33 9 view .LVU2244
 7334 03bc 05F53478 		add	r8, r5, #720
 7335 03c0 85ED008A 		vstr.32	s16, [r5]
  34:omni_resonator.h ****       voices_l_[i].Init(sr_);
 7336              		.loc 10 34 5 is_stmt 1 view .LVU2245
 7337              	.LVL459:
 7338              	.LBB1639:
  34:omni_resonator.h ****       voices_l_[i].Init(sr_);
 7339              		.loc 10 34 23 discriminator 1 view .LVU2246
 7340              	.LBE1639:
  33:omni_resonator.h ****     for (int i = 0; i < 8; i++) {
 7341              		.loc 10 33 9 is_stmt 0 view .LVU2247
 7342 03c4 1034     		adds	r4, r4, #16
 7343              	.LVL460:
 7344              	.L285:
 7345              	.LBB1648:
  35:omni_resonator.h ****       voices_r_[i].Init(sr_);
 7346              		.loc 10 35 7 is_stmt 1 view .LVU2248
  35:omni_resonator.h ****       voices_r_[i].Init(sr_);
 7347              		.loc 10 35 24 is_stmt 0 view .LVU2249
 7348 03c6 95ED000A 		vldr.32	s0, [r5]
 7349              	.LVL461:
 7350              	.LBB1640:
 7351              	.LBI1640:
   9:omni_resonator.h ****     sr_ = sr;
 7352              		.loc 10 9 8 is_stmt 1 view .LVU2250
 7353              	.LBB1641:
  10:omni_resonator.h ****     svf_.Init(sr);
 7354              		.loc 10 10 5 view .LVU2251
  13:omni_resonator.h ****   }
 7355              		.loc 10 13 10 is_stmt 0 view .LVU2252
 7356 03ca 4FF07C56 		mov	r6, #1056964608
  12:omni_resonator.h ****     res_ = 0.5f;
 7357              		.loc 10 12 11 view .LVU2253
 7358 03ce 974F     		ldr	r7, .L340+4
  11:omni_resonator.h ****     freq_ = 440.0f;
 7359              		.loc 10 11 14 view .LVU2254
 7360 03d0 2046     		mov	r0, r4
  10:omni_resonator.h ****     svf_.Init(sr);
 7361              		.loc 10 10 9 view .LVU2255
 7362 03d2 04ED030A 		vstr.32	s0, [r4, #-12]
  11:omni_resonator.h ****     freq_ = 440.0f;
 7363              		.loc 10 11 5 is_stmt 1 view .LVU2256
  11:omni_resonator.h ****     freq_ = 440.0f;
 7364              		.loc 10 11 14 is_stmt 0 view .LVU2257
 7365 03d6 FFF7FEFF 		bl	_ZN7daisysp3Svf4InitEf
 7366              	.LVL462:
  12:omni_resonator.h ****     res_ = 0.5f;
 7367              		.loc 10 12 5 is_stmt 1 view .LVU2258
  12:omni_resonator.h ****     res_ = 0.5f;
 7368              		.loc 10 12 11 is_stmt 0 view .LVU2259
 7369 03da 44F8087C 		str	r7, [r4, #-8]	@ float
  13:omni_resonator.h ****   }
 7370              		.loc 10 13 5 is_stmt 1 view .LVU2260
  13:omni_resonator.h ****   }
 7371              		.loc 10 13 10 is_stmt 0 view .LVU2261
ARM GAS  /var/folders/v1/156fk8j97zv9pzndh61fy7zm0000gn/T//ccyHp6tG.s 			page 200


 7372 03de 44F8046C 		str	r6, [r4, #-4]	@ float
 7373              	.LVL463:
  13:omni_resonator.h ****   }
 7374              		.loc 10 13 10 view .LVU2262
 7375              	.LBE1641:
 7376              	.LBE1640:
  36:omni_resonator.h ****     }
 7377              		.loc 10 36 7 is_stmt 1 view .LVU2263
 7378              	.LBB1642:
 7379              	.LBB1643:
  11:omni_resonator.h ****     freq_ = 440.0f;
 7380              		.loc 10 11 14 is_stmt 0 view .LVU2264
 7381 03e2 04F53070 		add	r0, r4, #704
 7382              	.LBE1643:
 7383              	.LBE1642:
  36:omni_resonator.h ****     }
 7384              		.loc 10 36 24 view .LVU2265
 7385 03e6 95ED000A 		vldr.32	s0, [r5]
 7386              	.LVL464:
 7387              	.LBB1646:
 7388              	.LBI1642:
   9:omni_resonator.h ****     sr_ = sr;
 7389              		.loc 10 9 8 is_stmt 1 view .LVU2266
 7390              	.LBB1644:
  10:omni_resonator.h ****     svf_.Init(sr);
 7391              		.loc 10 10 5 view .LVU2267
 7392              	.LBE1644:
 7393              	.LBE1646:
  34:omni_resonator.h ****       voices_l_[i].Init(sr_);
 7394              		.loc 10 34 23 is_stmt 0 discriminator 1 view .LVU2268
 7395 03ea 5834     		adds	r4, r4, #88
 7396              	.LBB1647:
 7397              	.LBB1645:
  10:omni_resonator.h ****     svf_.Init(sr);
 7398              		.loc 10 10 9 view .LVU2269
 7399 03ec 84ED970A 		vstr.32	s0, [r4, #604]
  11:omni_resonator.h ****     freq_ = 440.0f;
 7400              		.loc 10 11 5 is_stmt 1 view .LVU2270
  11:omni_resonator.h ****     freq_ = 440.0f;
 7401              		.loc 10 11 14 is_stmt 0 view .LVU2271
 7402 03f0 FFF7FEFF 		bl	_ZN7daisysp3Svf4InitEf
 7403              	.LVL465:
  12:omni_resonator.h ****     res_ = 0.5f;
 7404              		.loc 10 12 5 is_stmt 1 view .LVU2272
  12:omni_resonator.h ****     res_ = 0.5f;
 7405              		.loc 10 12 11 is_stmt 0 view .LVU2273
 7406 03f4 C4F86072 		str	r7, [r4, #608]	@ float
  13:omni_resonator.h ****   }
 7407              		.loc 10 13 5 is_stmt 1 view .LVU2274
  13:omni_resonator.h ****   }
 7408              		.loc 10 13 10 is_stmt 0 view .LVU2275
 7409 03f8 C4F86462 		str	r6, [r4, #612]	@ float
 7410              	.LVL466:
  13:omni_resonator.h ****   }
 7411              		.loc 10 13 10 view .LVU2276
 7412              	.LBE1645:
 7413              	.LBE1647:
ARM GAS  /var/folders/v1/156fk8j97zv9pzndh61fy7zm0000gn/T//ccyHp6tG.s 			page 201


  34:omni_resonator.h ****       voices_l_[i].Init(sr_);
 7414              		.loc 10 34 5 is_stmt 1 discriminator 3 view .LVU2277
  34:omni_resonator.h ****       voices_l_[i].Init(sr_);
 7415              		.loc 10 34 23 discriminator 1 view .LVU2278
 7416 03fc 4445     		cmp	r4, r8
 7417 03fe E2D1     		bne	.L285
 7418              	.LBE1648:
  38:omni_resonator.h ****   }
 7419              		.loc 10 38 5 view .LVU2279
  38:omni_resonator.h ****   }
 7420              		.loc 10 38 16 is_stmt 0 view .LVU2280
 7421 0400 8B4A     		ldr	r2, .L340+8
 7422 0402 8C49     		ldr	r1, .L340+12
 7423 0404 DFF838B2 		ldr	fp, .L340+24
 7424 0408 1160     		str	r1, [r2]	@ float
 7425              	.LVL467:
  39:omni_resonator.h **** 
 7426              		.loc 10 39 3 view .LVU2281
 7427 040a 49E6     		b	.L283
 7428              	.LVL468:
 7429              	.L335:
  39:omni_resonator.h **** 
 7430              		.loc 10 39 3 view .LVU2282
 7431              	.LBE1638:
 7432              	.LBE1637:
 7433              	.LBB1649:
 121:main.cpp      ****     float *bufR = &big_sdram_buffer[7500000]; // Halfway
 7434              		.loc 1 121 5 is_stmt 1 view .LVU2283
 122:main.cpp      ****     legacy_engine.Init(samplerate, bufL, bufR);
 7435              		.loc 1 122 5 view .LVU2284
 123:main.cpp      ****   } else if (current_mode == APP_RESONATOR) {
 7436              		.loc 1 123 5 view .LVU2285
 7437              	.LBB1650:
 7438              	.LBI1650:
 247:legacy_engine.h ****     // Hardcoded 150s max?
 7439              		.loc 11 247 8 view .LVU2286
 251:legacy_engine.h ****     right.Init(sr, 150.0f, bufR);
 7440              		.loc 11 251 5 view .LVU2287
 7441              	.LBB1651:
 7442              	.LBI1651:
 180:legacy_engine.h ****     sampleRate = sr;
 7443              		.loc 11 180 8 view .LVU2288
 7444              	.LBB1652:
 181:legacy_engine.h ****     bufferSize = LegacyHelpers::seconds_to_samples(maxDelay, sr);
 7445              		.loc 11 181 5 view .LVU2289
 7446              	.LBB1653:
 7447              	.LBB1654:
  48:legacy_engine.h ****   static int wrap_buffer_index(int x, int size) {
 7448              		.loc 11 48 69 is_stmt 0 view .LVU2290
 7449 040c DFED8A7A 		vldr.32	s15, .L340+16
 7450              	.LBE1654:
 7451              	.LBE1653:
 181:legacy_engine.h ****     bufferSize = LegacyHelpers::seconds_to_samples(maxDelay, sr);
 7452              		.loc 11 181 16 view .LVU2291
 7453 0410 DFF82CB2 		ldr	fp, .L340+24
 7454              	.LBB1658:
 7455              	.LBB1655:
ARM GAS  /var/folders/v1/156fk8j97zv9pzndh61fy7zm0000gn/T//ccyHp6tG.s 			page 202


  48:legacy_engine.h ****   static int wrap_buffer_index(int x, int size) {
 7456              		.loc 11 48 69 view .LVU2292
 7457 0414 68EE277A 		vmul.f32	s15, s16, s15
 7458              	.LBE1655:
 7459              	.LBE1658:
 183:legacy_engine.h ****     for (int i = 0; i < bufferSize; i++)
 7460              		.loc 11 183 12 view .LVU2293
 7461 0418 884B     		ldr	r3, .L340+20
 181:legacy_engine.h ****     bufferSize = LegacyHelpers::seconds_to_samples(maxDelay, sr);
 7462              		.loc 11 181 16 view .LVU2294
 7463 041a 8BED7B8A 		vstr.32	s16, [fp, #492]
 182:legacy_engine.h ****     buffer = buf;
 7464              		.loc 11 182 5 is_stmt 1 view .LVU2295
 7465              	.LVL469:
 7466              	.LBB1659:
 7467              	.LBI1653:
  48:legacy_engine.h ****   static int wrap_buffer_index(int x, int size) {
 7468              		.loc 11 48 14 view .LVU2296
 7469              	.LBB1656:
  48:legacy_engine.h ****   static int wrap_buffer_index(int x, int size) {
 7470              		.loc 11 48 54 view .LVU2297
 7471              	.LBE1656:
 7472              	.LBE1659:
 183:legacy_engine.h ****     for (int i = 0; i < bufferSize; i++)
 7473              		.loc 11 183 12 is_stmt 0 view .LVU2298
 7474 041e CBF8F031 		str	r3, [fp, #496]
 7475              	.LBB1660:
 7476              	.LBB1657:
  48:legacy_engine.h ****   static int wrap_buffer_index(int x, int size) {
 7477              		.loc 11 48 73 view .LVU2299
 7478 0422 FDEEE77A 		vcvt.s32.f32	s15, s15
 7479 0426 17EE905A 		vmov	r5, s15	@ int
 7480              	.LVL470:
  48:legacy_engine.h ****   static int wrap_buffer_index(int x, int size) {
 7481              		.loc 11 48 73 view .LVU2300
 7482              	.LBE1657:
 7483              	.LBE1660:
 182:legacy_engine.h ****     buffer = buf;
 7484              		.loc 11 182 16 discriminator 1 view .LVU2301
 7485 042a CBED7D7A 		vstr.32	s15, [fp, #500]	@ int
 183:legacy_engine.h ****     for (int i = 0; i < bufferSize; i++)
 7486              		.loc 11 183 5 is_stmt 1 view .LVU2302
 184:legacy_engine.h ****       buffer[i] = 0.0f;
 7487              		.loc 11 184 5 view .LVU2303
 7488              	.LVL471:
 7489              	.LBB1661:
 184:legacy_engine.h ****       buffer[i] = 0.0f;
 7490              		.loc 11 184 23 discriminator 1 view .LVU2304
 7491 042e 002D     		cmp	r5, #0
 185:legacy_engine.h ****     for (int i = 0; i < 8; i++)
 7492              		.loc 11 185 17 is_stmt 0 view .LVU2305
 7493 0430 4FEA8506 		lsl	r6, r5, #2
 184:legacy_engine.h ****       buffer[i] = 0.0f;
 7494              		.loc 11 184 23 discriminator 1 view .LVU2306
 7495 0434 05DD     		ble	.L278
 185:legacy_engine.h ****     for (int i = 0; i < 8; i++)
 7496              		.loc 11 185 17 view .LVU2307
ARM GAS  /var/folders/v1/156fk8j97zv9pzndh61fy7zm0000gn/T//ccyHp6tG.s 			page 203


 7497 0436 1846     		mov	r0, r3
 7498 0438 0021     		movs	r1, #0
 7499 043a 3246     		mov	r2, r6
 7500 043c FFF7FEFF 		bl	memset
 7501              	.LVL472:
 7502 0440 0346     		mov	r3, r0
 7503              	.LVL473:
 7504              	.L278:
 185:legacy_engine.h ****     for (int i = 0; i < 8; i++)
 7505              		.loc 11 185 17 view .LVU2308
 7506              	.LBE1661:
 7507              	.LBB1662:
 186:legacy_engine.h ****       readHeads[i].Init(sr, buffer, bufferSize);
 7508              		.loc 11 186 23 is_stmt 1 discriminator 1 view .LVU2309
 7509              	.LBB1663:
 7510              	.LBB1664:
 114:legacy_engine.h ****     buffer = buf;
 7511              		.loc 11 114 18 is_stmt 0 view .LVU2310
 7512 0442 F1EE047A 		vmov.f32	s15, #5.0e+0
 7513 0446 7E4C     		ldr	r4, .L340+24
 7514              	.LVL474:
 114:legacy_engine.h ****     buffer = buf;
 7515              		.loc 11 114 18 view .LVU2311
 7516 0448 04F5F077 		add	r7, r4, #480
 7517 044c A346     		mov	fp, r4
 7518 044e 87EE88AA 		vdiv.f32	s20, s15, s16
 7519 0452 2146     		mov	r1, r4
 7520              	.LVL475:
 7521              	.L277:
 114:legacy_engine.h ****     buffer = buf;
 7522              		.loc 11 114 18 view .LVU2312
 7523              	.LBE1664:
 7524              	.LBE1663:
 187:legacy_engine.h ****     writeHeadPosition = 0;
 7525              		.loc 11 187 7 is_stmt 1 view .LVU2313
 7526              	.LBB1675:
 7527              	.LBI1663:
 112:legacy_engine.h ****     sampleRate = sr;
 7528              		.loc 11 112 8 view .LVU2314
 7529              	.LBB1674:
 113:legacy_engine.h ****     delta = 5.0f / sr;
 7530              		.loc 11 113 5 view .LVU2315
 117:legacy_engine.h ****     loudness.Init();
 7531              		.loc 11 117 16 is_stmt 0 view .LVU2316
 7532 0454 4FF00009 		mov	r9, #0
 7533              	.LBB1665:
 7534              	.LBB1666:
 7535              	.LBB1667:
  62:legacy_engine.h ****   float Process(float x) {
 7536              		.loc 11 62 38 view .LVU2317
 7537 0458 7A4A     		ldr	r2, .L340+28
 7538              	.LBE1667:
 7539              	.LBE1666:
 7540              	.LBE1665:
 113:legacy_engine.h ****     delta = 5.0f / sr;
 7541              		.loc 11 113 16 view .LVU2318
 7542 045a 81ED0B8A 		vstr.32	s16, [r1, #44]
ARM GAS  /var/folders/v1/156fk8j97zv9pzndh61fy7zm0000gn/T//ccyHp6tG.s 			page 204


 114:legacy_engine.h ****     buffer = buf;
 7543              		.loc 11 114 5 is_stmt 1 view .LVU2319
 114:legacy_engine.h ****     buffer = buf;
 7544              		.loc 11 114 11 is_stmt 0 view .LVU2320
 7545 045e 81ED0DAA 		vstr.32	s20, [r1, #52]
 115:legacy_engine.h ****     bufferSize = size;
 7546              		.loc 11 115 5 is_stmt 1 view .LVU2321
 117:legacy_engine.h ****     loudness.Init();
 7547              		.loc 11 117 16 is_stmt 0 view .LVU2322
 7548 0462 C1F83890 		str	r9, [r1, #56]	@ float
 7549              	.LBB1672:
 7550              	.LBB1670:
 7551              	.LBB1668:
  62:legacy_engine.h ****   float Process(float x) {
 7552              		.loc 11 62 38 view .LVU2323
 7553 0466 4A60     		str	r2, [r1, #4]	@ float
 7554              	.LBE1668:
 7555              	.LBE1670:
 7556              	.LBE1672:
 116:legacy_engine.h ****     blurAmount = 0.0f;
 7557              		.loc 11 116 16 view .LVU2324
 7558 0468 C1E90335 		strd	r3, r5, [r1, #12]
 117:legacy_engine.h ****     loudness.Init();
 7559              		.loc 11 117 5 is_stmt 1 view .LVU2325
 118:legacy_engine.h ****   }
 7560              		.loc 11 118 5 view .LVU2326
 7561              	.LVL476:
 7562              	.LBB1673:
 7563              	.LBI1665:
  92:legacy_engine.h ****   float Get() { return this->lastVal; }
 7564              		.loc 11 92 8 view .LVU2327
  92:legacy_engine.h ****   float Get() { return this->lastVal; }
 7565              		.loc 11 92 17 view .LVU2328
 7566              	.LBB1671:
 7567              	.LBI1666:
  62:legacy_engine.h ****   float Process(float x) {
 7568              		.loc 11 62 8 view .LVU2329
 7569              	.LBB1669:
  62:legacy_engine.h ****   float Process(float x) {
 7570              		.loc 11 62 33 view .LVU2330
  62:legacy_engine.h ****   float Process(float x) {
 7571              		.loc 11 62 33 is_stmt 0 view .LVU2331
 7572              	.LBE1669:
 7573              	.LBE1671:
 7574              	.LBE1673:
 7575              	.LBE1674:
 7576              	.LBE1675:
 186:legacy_engine.h ****       readHeads[i].Init(sr, buffer, bufferSize);
 7577              		.loc 11 186 5 is_stmt 1 discriminator 3 view .LVU2332
 186:legacy_engine.h ****       readHeads[i].Init(sr, buffer, bufferSize);
 7578              		.loc 11 186 23 discriminator 1 view .LVU2333
 7579 046c 3C31     		adds	r1, r1, #60
 7580 046e B942     		cmp	r1, r7
 7581 0470 F0D1     		bne	.L277
 186:legacy_engine.h ****       readHeads[i].Init(sr, buffer, bufferSize);
 7582              		.loc 11 186 23 is_stmt 0 discriminator 1 view .LVU2334
 7583              	.LBE1662:
ARM GAS  /var/folders/v1/156fk8j97zv9pzndh61fy7zm0000gn/T//ccyHp6tG.s 			page 205


 188:legacy_engine.h **** 
 7584              		.loc 11 188 5 is_stmt 1 view .LVU2335
 7585              	.LBB1676:
 7586              	.LBB1677:
  75:legacy_engine.h ****   }
 7587              		.loc 11 75 25 is_stmt 0 view .LVU2336
 7588 0472 F3EE007A 		vmov.f32	s15, #1.6e+1
 7589              	.LBE1677:
 7590              	.LBE1676:
 7591              	.LBB1683:
 7592              	.LBB1684:
  62:legacy_engine.h ****   float Process(float x) {
 7593              		.loc 11 62 38 view .LVU2337
 7594 0476 CBF80C22 		str	r2, [fp, #524]	@ float
 7595              	.LBE1684:
 7596              	.LBE1683:
 7597              	.LBB1686:
 7598              	.LBB1687:
 7599              	.LBB1688:
 7600 047a CBF8E421 		str	r2, [fp, #484]	@ float
 7601              	.LBE1688:
 7602              	.LBE1687:
 7603              	.LBE1686:
 188:legacy_engine.h **** 
 7604              		.loc 11 188 23 view .LVU2338
 7605 047e 0022     		movs	r2, #0
 7606              	.LBB1691:
 7607              	.LBB1678:
  74:legacy_engine.h ****     releaseCoef = 16.0f / sampleRate;
 7608              		.loc 11 74 14 view .LVU2339
 7609 0480 F7EE008A 		vmov.f32	s17, #1.0e+0
 7610              	.LBE1678:
 7611              	.LBE1691:
 197:legacy_engine.h ****     compressor.SetAttack(0.02f);
 7612              		.loc 11 197 20 view .LVU2340
 7613 0484 7048     		ldr	r0, .L340+32
 7614              	.LBB1692:
 7615              	.LBB1679:
  75:legacy_engine.h ****   }
 7616              		.loc 11 75 25 view .LVU2341
 7617 0486 87EE889A 		vdiv.f32	s18, s15, s16
 7618              	.LBE1679:
 7619              	.LBE1692:
 188:legacy_engine.h **** 
 7620              		.loc 11 188 23 view .LVU2342
 7621 048a CBF8F821 		str	r2, [fp, #504]
 190:legacy_engine.h ****     feedbackSlew.Init(0.01f);
 7622              		.loc 11 190 5 is_stmt 1 view .LVU2343
 7623              	.LVL477:
 7624              	.LBB1693:
 7625              	.LBI1683:
  62:legacy_engine.h ****   float Process(float x) {
 7626              		.loc 11 62 8 view .LVU2344
 7627              	.LBB1685:
  62:legacy_engine.h ****   float Process(float x) {
 7628              		.loc 11 62 33 view .LVU2345
  62:legacy_engine.h ****   float Process(float x) {
ARM GAS  /var/folders/v1/156fk8j97zv9pzndh61fy7zm0000gn/T//ccyHp6tG.s 			page 206


 7629              		.loc 11 62 33 is_stmt 0 view .LVU2346
 7630              	.LBE1685:
 7631              	.LBE1693:
 191:legacy_engine.h ****     ampCoefSlew.Init(0.0001f);
 7632              		.loc 11 191 5 is_stmt 1 view .LVU2347
 7633              	.LBB1694:
 7634              	.LBI1694:
  62:legacy_engine.h ****   float Process(float x) {
 7635              		.loc 11 62 8 view .LVU2348
 7636              	.LBB1695:
  62:legacy_engine.h ****   float Process(float x) {
 7637              		.loc 11 62 33 view .LVU2349
  62:legacy_engine.h ****   float Process(float x) {
 7638              		.loc 11 62 38 is_stmt 0 view .LVU2350
 7639 048e 6F4A     		ldr	r2, .L340+36
 7640              	.LBE1695:
 7641              	.LBE1694:
 7642              	.LBB1697:
 7643              	.LBB1698:
  63:../temp_time_machine/DaisyExamples/DaisySP//DaisySP-LGPL/Source/Dynamics/compressor.h **** 
  64:../temp_time_machine/DaisyExamples/DaisySP//DaisySP-LGPL/Source/Dynamics/compressor.h ****     /** Compresses a block of audio
  65:../temp_time_machine/DaisyExamples/DaisySP//DaisySP-LGPL/Source/Dynamics/compressor.h ****         \param in audio input signal
  66:../temp_time_machine/DaisyExamples/DaisySP//DaisySP-LGPL/Source/Dynamics/compressor.h ****         \param out audio output signal
  67:../temp_time_machine/DaisyExamples/DaisySP//DaisySP-LGPL/Source/Dynamics/compressor.h ****         \param size the size of the block
  68:../temp_time_machine/DaisyExamples/DaisySP//DaisySP-LGPL/Source/Dynamics/compressor.h ****     */
  69:../temp_time_machine/DaisyExamples/DaisySP//DaisySP-LGPL/Source/Dynamics/compressor.h ****     void ProcessBlock(float *in, float *out, size_t size)
  70:../temp_time_machine/DaisyExamples/DaisySP//DaisySP-LGPL/Source/Dynamics/compressor.h ****     {
  71:../temp_time_machine/DaisyExamples/DaisySP//DaisySP-LGPL/Source/Dynamics/compressor.h ****         ProcessBlock(in, out, in, size);
  72:../temp_time_machine/DaisyExamples/DaisySP//DaisySP-LGPL/Source/Dynamics/compressor.h ****     }
  73:../temp_time_machine/DaisyExamples/DaisySP//DaisySP-LGPL/Source/Dynamics/compressor.h **** 
  74:../temp_time_machine/DaisyExamples/DaisySP//DaisySP-LGPL/Source/Dynamics/compressor.h ****     /** Compresses a block of audio, keyed by a secondary input
  75:../temp_time_machine/DaisyExamples/DaisySP//DaisySP-LGPL/Source/Dynamics/compressor.h ****         \param in audio input signal (to be compressed)
  76:../temp_time_machine/DaisyExamples/DaisySP//DaisySP-LGPL/Source/Dynamics/compressor.h ****         \param out audio output signal
  77:../temp_time_machine/DaisyExamples/DaisySP//DaisySP-LGPL/Source/Dynamics/compressor.h ****         \param key audio input that will be used to side-chain the compressor
  78:../temp_time_machine/DaisyExamples/DaisySP//DaisySP-LGPL/Source/Dynamics/compressor.h ****         \param size the size of the block
  79:../temp_time_machine/DaisyExamples/DaisySP//DaisySP-LGPL/Source/Dynamics/compressor.h ****     */
  80:../temp_time_machine/DaisyExamples/DaisySP//DaisySP-LGPL/Source/Dynamics/compressor.h ****     void ProcessBlock(float *in, float *out, float *key, size_t size);
  81:../temp_time_machine/DaisyExamples/DaisySP//DaisySP-LGPL/Source/Dynamics/compressor.h **** 
  82:../temp_time_machine/DaisyExamples/DaisySP//DaisySP-LGPL/Source/Dynamics/compressor.h ****     /** Compresses a block of multiple channels of audio, keyed by a secondary input
  83:../temp_time_machine/DaisyExamples/DaisySP//DaisySP-LGPL/Source/Dynamics/compressor.h ****         \param in audio input signals (to be compressed)
  84:../temp_time_machine/DaisyExamples/DaisySP//DaisySP-LGPL/Source/Dynamics/compressor.h ****         \param out audio output signals
  85:../temp_time_machine/DaisyExamples/DaisySP//DaisySP-LGPL/Source/Dynamics/compressor.h ****         \param key audio input that will be used to side-chain the compressor
  86:../temp_time_machine/DaisyExamples/DaisySP//DaisySP-LGPL/Source/Dynamics/compressor.h ****         \param channels the number of audio channels
  87:../temp_time_machine/DaisyExamples/DaisySP//DaisySP-LGPL/Source/Dynamics/compressor.h ****         \param size the size of the block
  88:../temp_time_machine/DaisyExamples/DaisySP//DaisySP-LGPL/Source/Dynamics/compressor.h ****     */
  89:../temp_time_machine/DaisyExamples/DaisySP//DaisySP-LGPL/Source/Dynamics/compressor.h ****     void ProcessBlock(float **in,
  90:../temp_time_machine/DaisyExamples/DaisySP//DaisySP-LGPL/Source/Dynamics/compressor.h ****                       float **out,
  91:../temp_time_machine/DaisyExamples/DaisySP//DaisySP-LGPL/Source/Dynamics/compressor.h ****                       float * key,
  92:../temp_time_machine/DaisyExamples/DaisySP//DaisySP-LGPL/Source/Dynamics/compressor.h ****                       size_t  channels,
  93:../temp_time_machine/DaisyExamples/DaisySP//DaisySP-LGPL/Source/Dynamics/compressor.h ****                       size_t  size);
  94:../temp_time_machine/DaisyExamples/DaisySP//DaisySP-LGPL/Source/Dynamics/compressor.h **** 
  95:../temp_time_machine/DaisyExamples/DaisySP//DaisySP-LGPL/Source/Dynamics/compressor.h ****     /** Gets the amount of gain reduction */
  96:../temp_time_machine/DaisyExamples/DaisySP//DaisySP-LGPL/Source/Dynamics/compressor.h ****     float GetRatio() { return ratio_; }
  97:../temp_time_machine/DaisyExamples/DaisySP//DaisySP-LGPL/Source/Dynamics/compressor.h **** 
  98:../temp_time_machine/DaisyExamples/DaisySP//DaisySP-LGPL/Source/Dynamics/compressor.h ****     /** Sets the amount of gain reduction applied to compressed signals
  99:../temp_time_machine/DaisyExamples/DaisySP//DaisySP-LGPL/Source/Dynamics/compressor.h ****      \param ratio Expects 1.0 -> 40. (untested with values < 1.0)
 100:../temp_time_machine/DaisyExamples/DaisySP//DaisySP-LGPL/Source/Dynamics/compressor.h ****     */
ARM GAS  /var/folders/v1/156fk8j97zv9pzndh61fy7zm0000gn/T//ccyHp6tG.s 			page 207


 101:../temp_time_machine/DaisyExamples/DaisySP//DaisySP-LGPL/Source/Dynamics/compressor.h ****     void SetRatio(float ratio)
 102:../temp_time_machine/DaisyExamples/DaisySP//DaisySP-LGPL/Source/Dynamics/compressor.h ****     {
 103:../temp_time_machine/DaisyExamples/DaisySP//DaisySP-LGPL/Source/Dynamics/compressor.h ****         ratio_ = ratio;
 104:../temp_time_machine/DaisyExamples/DaisySP//DaisySP-LGPL/Source/Dynamics/compressor.h ****         RecalculateRatio();
 105:../temp_time_machine/DaisyExamples/DaisySP//DaisySP-LGPL/Source/Dynamics/compressor.h ****     }
 106:../temp_time_machine/DaisyExamples/DaisySP//DaisySP-LGPL/Source/Dynamics/compressor.h **** 
 107:../temp_time_machine/DaisyExamples/DaisySP//DaisySP-LGPL/Source/Dynamics/compressor.h ****     /** Gets the threshold in dB */
 108:../temp_time_machine/DaisyExamples/DaisySP//DaisySP-LGPL/Source/Dynamics/compressor.h ****     float GetThreshold() { return thresh_; }
 109:../temp_time_machine/DaisyExamples/DaisySP//DaisySP-LGPL/Source/Dynamics/compressor.h **** 
 110:../temp_time_machine/DaisyExamples/DaisySP//DaisySP-LGPL/Source/Dynamics/compressor.h ****     /** Sets the threshold in dB at which compression will be applied
 111:../temp_time_machine/DaisyExamples/DaisySP//DaisySP-LGPL/Source/Dynamics/compressor.h ****      \param threshold Expects 0.0 -> -80.
 112:../temp_time_machine/DaisyExamples/DaisySP//DaisySP-LGPL/Source/Dynamics/compressor.h ****     */
 113:../temp_time_machine/DaisyExamples/DaisySP//DaisySP-LGPL/Source/Dynamics/compressor.h ****     void SetThreshold(float threshold)
 114:../temp_time_machine/DaisyExamples/DaisySP//DaisySP-LGPL/Source/Dynamics/compressor.h ****     {
 115:../temp_time_machine/DaisyExamples/DaisySP//DaisySP-LGPL/Source/Dynamics/compressor.h ****         thresh_ = threshold;
 116:../temp_time_machine/DaisyExamples/DaisySP//DaisySP-LGPL/Source/Dynamics/compressor.h ****         RecalculateMakeup();
 117:../temp_time_machine/DaisyExamples/DaisySP//DaisySP-LGPL/Source/Dynamics/compressor.h ****     }
 118:../temp_time_machine/DaisyExamples/DaisySP//DaisySP-LGPL/Source/Dynamics/compressor.h **** 
 119:../temp_time_machine/DaisyExamples/DaisySP//DaisySP-LGPL/Source/Dynamics/compressor.h ****     /** Gets the envelope time for onset of compression */
 120:../temp_time_machine/DaisyExamples/DaisySP//DaisySP-LGPL/Source/Dynamics/compressor.h ****     float GetAttack() { return atk_; }
 121:../temp_time_machine/DaisyExamples/DaisySP//DaisySP-LGPL/Source/Dynamics/compressor.h **** 
 122:../temp_time_machine/DaisyExamples/DaisySP//DaisySP-LGPL/Source/Dynamics/compressor.h ****     /** Sets the envelope time for onset of compression for signals above the threshold.
 123:../temp_time_machine/DaisyExamples/DaisySP//DaisySP-LGPL/Source/Dynamics/compressor.h ****         \param attack Expects 0.001 -> 10
 124:../temp_time_machine/DaisyExamples/DaisySP//DaisySP-LGPL/Source/Dynamics/compressor.h ****     */
 125:../temp_time_machine/DaisyExamples/DaisySP//DaisySP-LGPL/Source/Dynamics/compressor.h ****     void SetAttack(float attack)
 126:../temp_time_machine/DaisyExamples/DaisySP//DaisySP-LGPL/Source/Dynamics/compressor.h ****     {
 127:../temp_time_machine/DaisyExamples/DaisySP//DaisySP-LGPL/Source/Dynamics/compressor.h ****         atk_ = attack;
 7644              		.loc 12 127 14 view .LVU2351
 7645 0490 DFED6F9A 		vldr.32	s19, .L340+40
 7646              	.LBE1698:
 7647              	.LBE1697:
 7648              	.LBB1717:
 7649              	.LBB1696:
  62:legacy_engine.h ****   float Process(float x) {
 7650              		.loc 11 62 38 view .LVU2352
 7651 0494 CBF81422 		str	r2, [fp, #532]	@ float
 7652              	.LVL478:
  62:legacy_engine.h ****   float Process(float x) {
 7653              		.loc 11 62 38 view .LVU2353
 7654              	.LBE1696:
 7655              	.LBE1717:
 192:legacy_engine.h ****     outputLimiter.Init(sr);
 7656              		.loc 11 192 5 is_stmt 1 view .LVU2354
 7657              	.LBB1718:
 7658              	.LBI1718:
  62:legacy_engine.h ****   float Process(float x) {
 7659              		.loc 11 62 8 view .LVU2355
 7660              	.LBB1719:
  62:legacy_engine.h ****   float Process(float x) {
 7661              		.loc 11 62 33 view .LVU2356
  62:legacy_engine.h ****   float Process(float x) {
 7662              		.loc 11 62 38 is_stmt 0 view .LVU2357
 7663 0498 6E4A     		ldr	r2, .L340+44
 7664              	.LBE1719:
 7665              	.LBE1718:
 197:legacy_engine.h ****     compressor.SetAttack(0.02f);
 7666              		.loc 11 197 20 view .LVU2358
ARM GAS  /var/folders/v1/156fk8j97zv9pzndh61fy7zm0000gn/T//ccyHp6tG.s 			page 208


 7667 049a B0EE480A 		vmov.f32	s0, s16
 7668              	.LBB1721:
 7669              	.LBB1680:
  74:legacy_engine.h ****     releaseCoef = 16.0f / sampleRate;
 7670              		.loc 11 74 14 view .LVU2359
 7671 049e CBED888A 		vstr.32	s17, [fp, #544]
 7672              	.LBE1680:
 7673              	.LBE1721:
 7674              	.LBB1722:
 7675              	.LBB1720:
  62:legacy_engine.h ****   float Process(float x) {
 7676              		.loc 11 62 38 view .LVU2360
 7677 04a2 CBF81C22 		str	r2, [fp, #540]	@ float
 7678              	.LVL479:
  62:legacy_engine.h ****   float Process(float x) {
 7679              		.loc 11 62 38 view .LVU2361
 7680              	.LBE1720:
 7681              	.LBE1722:
 193:legacy_engine.h ****     feedbackLimiter.Init(sr);
 7682              		.loc 11 193 5 is_stmt 1 view .LVU2362
 7683              	.LBB1723:
 7684              	.LBI1676:
  73:legacy_engine.h ****     gainCoef = 1.0f;
 7685              		.loc 11 73 8 view .LVU2363
 7686              	.LBB1681:
  74:legacy_engine.h ****     releaseCoef = 16.0f / sampleRate;
 7687              		.loc 11 74 5 view .LVU2364
  75:legacy_engine.h ****   }
 7688              		.loc 11 75 5 view .LVU2365
  75:legacy_engine.h ****   }
 7689              		.loc 11 75 5 is_stmt 0 view .LVU2366
 7690              	.LBE1681:
 7691              	.LBE1723:
 194:legacy_engine.h ****     loudness.Init();
 7692              		.loc 11 194 5 is_stmt 1 view .LVU2367
 7693              	.LBB1724:
 7694              	.LBI1724:
  73:legacy_engine.h ****     gainCoef = 1.0f;
 7695              		.loc 11 73 8 view .LVU2368
 7696              	.LBB1725:
  74:legacy_engine.h ****     releaseCoef = 16.0f / sampleRate;
 7697              		.loc 11 74 5 view .LVU2369
  75:legacy_engine.h ****   }
 7698              		.loc 11 75 5 view .LVU2370
  75:legacy_engine.h ****   }
 7699              		.loc 11 75 5 is_stmt 0 view .LVU2371
 7700              	.LBE1725:
 7701              	.LBE1724:
 195:legacy_engine.h **** 
 7702              		.loc 11 195 5 is_stmt 1 view .LVU2372
 7703              	.LBB1728:
 7704              	.LBI1686:
  92:legacy_engine.h ****   float Get() { return this->lastVal; }
 7705              		.loc 11 92 8 view .LVU2373
  92:legacy_engine.h ****   float Get() { return this->lastVal; }
 7706              		.loc 11 92 17 view .LVU2374
 7707              	.LBB1690:
ARM GAS  /var/folders/v1/156fk8j97zv9pzndh61fy7zm0000gn/T//ccyHp6tG.s 			page 209


 7708              	.LBI1687:
  62:legacy_engine.h ****   float Process(float x) {
 7709              		.loc 11 62 8 view .LVU2375
 7710              	.LBB1689:
  62:legacy_engine.h ****   float Process(float x) {
 7711              		.loc 11 62 33 view .LVU2376
  62:legacy_engine.h ****   float Process(float x) {
 7712              		.loc 11 62 33 is_stmt 0 view .LVU2377
 7713              	.LBE1689:
 7714              	.LBE1690:
 7715              	.LBE1728:
 197:legacy_engine.h ****     compressor.SetAttack(0.02f);
 7716              		.loc 11 197 5 is_stmt 1 view .LVU2378
 7717              	.LBB1729:
 7718              	.LBB1726:
  74:legacy_engine.h ****     releaseCoef = 16.0f / sampleRate;
 7719              		.loc 11 74 14 is_stmt 0 view .LVU2379
 7720 04a6 CBED8A8A 		vstr.32	s17, [fp, #552]
 7721              	.LBE1726:
 7722              	.LBE1729:
 7723              	.LBB1730:
 7724              	.LBB1682:
  75:legacy_engine.h ****   }
 7725              		.loc 11 75 17 view .LVU2380
 7726 04aa 8BED899A 		vstr.32	s18, [fp, #548]
 7727              	.LBE1682:
 7728              	.LBE1730:
 7729              	.LBB1731:
 7730              	.LBB1727:
 7731 04ae 8BED8B9A 		vstr.32	s18, [fp, #556]
 7732              	.LBE1727:
 7733              	.LBE1731:
 197:legacy_engine.h ****     compressor.SetAttack(0.02f);
 7734              		.loc 11 197 20 view .LVU2381
 7735 04b2 FFF7FEFF 		bl	_ZN7daisysp10Compressor4InitEf
 7736              	.LVL480:
 198:legacy_engine.h ****     compressor.SetRelease(0.2f);
 7737              		.loc 11 198 5 is_stmt 1 view .LVU2382
 7738              	.LBB1732:
 7739              	.LBI1697:
 125:../temp_time_machine/DaisyExamples/DaisySP//DaisySP-LGPL/Source/Dynamics/compressor.h ****     {
 7740              		.loc 12 125 10 view .LVU2383
 7741              	.LBB1713:
 7742              		.loc 12 127 9 view .LVU2384
 7743              	.LBB1699:
 7744              	.LBB1700:
 128:../temp_time_machine/DaisyExamples/DaisySP//DaisySP-LGPL/Source/Dynamics/compressor.h ****         RecalculateAttack();
 129:../temp_time_machine/DaisyExamples/DaisySP//DaisySP-LGPL/Source/Dynamics/compressor.h ****     }
 130:../temp_time_machine/DaisyExamples/DaisySP//DaisySP-LGPL/Source/Dynamics/compressor.h **** 
 131:../temp_time_machine/DaisyExamples/DaisySP//DaisySP-LGPL/Source/Dynamics/compressor.h ****     /** Gets the envelope time for release of compression */
 132:../temp_time_machine/DaisyExamples/DaisySP//DaisySP-LGPL/Source/Dynamics/compressor.h ****     float GetRelease() { return rel_; }
 133:../temp_time_machine/DaisyExamples/DaisySP//DaisySP-LGPL/Source/Dynamics/compressor.h **** 
 134:../temp_time_machine/DaisyExamples/DaisySP//DaisySP-LGPL/Source/Dynamics/compressor.h ****     /** Sets the envelope time for release of compression as input signal falls below threshold.
 135:../temp_time_machine/DaisyExamples/DaisySP//DaisySP-LGPL/Source/Dynamics/compressor.h ****         \param release Expects 0.001 -> 10
 136:../temp_time_machine/DaisyExamples/DaisySP//DaisySP-LGPL/Source/Dynamics/compressor.h ****     */
 137:../temp_time_machine/DaisyExamples/DaisySP//DaisySP-LGPL/Source/Dynamics/compressor.h ****     void SetRelease(float release)
 138:../temp_time_machine/DaisyExamples/DaisySP//DaisySP-LGPL/Source/Dynamics/compressor.h ****     {
ARM GAS  /var/folders/v1/156fk8j97zv9pzndh61fy7zm0000gn/T//ccyHp6tG.s 			page 210


 139:../temp_time_machine/DaisyExamples/DaisySP//DaisySP-LGPL/Source/Dynamics/compressor.h ****         rel_ = release;
 140:../temp_time_machine/DaisyExamples/DaisySP//DaisySP-LGPL/Source/Dynamics/compressor.h ****         RecalculateRelease();
 141:../temp_time_machine/DaisyExamples/DaisySP//DaisySP-LGPL/Source/Dynamics/compressor.h ****     }
 142:../temp_time_machine/DaisyExamples/DaisySP//DaisySP-LGPL/Source/Dynamics/compressor.h **** 
 143:../temp_time_machine/DaisyExamples/DaisySP//DaisySP-LGPL/Source/Dynamics/compressor.h ****     /** Gets the additional gain to make up for the compression */
 144:../temp_time_machine/DaisyExamples/DaisySP//DaisySP-LGPL/Source/Dynamics/compressor.h ****     float GetMakeup() { return makeup_gain_; }
 145:../temp_time_machine/DaisyExamples/DaisySP//DaisySP-LGPL/Source/Dynamics/compressor.h **** 
 146:../temp_time_machine/DaisyExamples/DaisySP//DaisySP-LGPL/Source/Dynamics/compressor.h ****     /** Manually sets the additional gain to make up for the compression
 147:../temp_time_machine/DaisyExamples/DaisySP//DaisySP-LGPL/Source/Dynamics/compressor.h ****         \param gain Expects 0.0 -> 80
 148:../temp_time_machine/DaisyExamples/DaisySP//DaisySP-LGPL/Source/Dynamics/compressor.h ****     */
 149:../temp_time_machine/DaisyExamples/DaisySP//DaisySP-LGPL/Source/Dynamics/compressor.h ****     void SetMakeup(float gain) { makeup_gain_ = gain; }
 150:../temp_time_machine/DaisyExamples/DaisySP//DaisySP-LGPL/Source/Dynamics/compressor.h **** 
 151:../temp_time_machine/DaisyExamples/DaisySP//DaisySP-LGPL/Source/Dynamics/compressor.h ****     /** Enables or disables the automatic makeup gain. Disabling sets the makeup gain to 0.0
 152:../temp_time_machine/DaisyExamples/DaisySP//DaisySP-LGPL/Source/Dynamics/compressor.h ****         \param enable true to enable, false to disable
 153:../temp_time_machine/DaisyExamples/DaisySP//DaisySP-LGPL/Source/Dynamics/compressor.h ****     */
 154:../temp_time_machine/DaisyExamples/DaisySP//DaisySP-LGPL/Source/Dynamics/compressor.h ****     void AutoMakeup(bool enable)
 155:../temp_time_machine/DaisyExamples/DaisySP//DaisySP-LGPL/Source/Dynamics/compressor.h ****     {
 156:../temp_time_machine/DaisyExamples/DaisySP//DaisySP-LGPL/Source/Dynamics/compressor.h ****         makeup_auto_ = enable;
 157:../temp_time_machine/DaisyExamples/DaisySP//DaisySP-LGPL/Source/Dynamics/compressor.h ****         makeup_gain_ = 0.0f;
 158:../temp_time_machine/DaisyExamples/DaisySP//DaisySP-LGPL/Source/Dynamics/compressor.h ****         RecalculateMakeup();
 159:../temp_time_machine/DaisyExamples/DaisySP//DaisySP-LGPL/Source/Dynamics/compressor.h ****     }
 160:../temp_time_machine/DaisyExamples/DaisySP//DaisySP-LGPL/Source/Dynamics/compressor.h **** 
 161:../temp_time_machine/DaisyExamples/DaisySP//DaisySP-LGPL/Source/Dynamics/compressor.h ****     /** Gets the gain reduction in dB
 162:../temp_time_machine/DaisyExamples/DaisySP//DaisySP-LGPL/Source/Dynamics/compressor.h ****     */
 163:../temp_time_machine/DaisyExamples/DaisySP//DaisySP-LGPL/Source/Dynamics/compressor.h ****     float GetGain() { return fastlog10f(gain_) * 20.0f; }
 164:../temp_time_machine/DaisyExamples/DaisySP//DaisySP-LGPL/Source/Dynamics/compressor.h **** 
 165:../temp_time_machine/DaisyExamples/DaisySP//DaisySP-LGPL/Source/Dynamics/compressor.h ****   private:
 166:../temp_time_machine/DaisyExamples/DaisySP//DaisySP-LGPL/Source/Dynamics/compressor.h ****     float ratio_, thresh_, atk_, rel_;
 167:../temp_time_machine/DaisyExamples/DaisySP//DaisySP-LGPL/Source/Dynamics/compressor.h ****     float makeup_gain_;
 168:../temp_time_machine/DaisyExamples/DaisySP//DaisySP-LGPL/Source/Dynamics/compressor.h ****     float gain_;
 169:../temp_time_machine/DaisyExamples/DaisySP//DaisySP-LGPL/Source/Dynamics/compressor.h **** 
 170:../temp_time_machine/DaisyExamples/DaisySP//DaisySP-LGPL/Source/Dynamics/compressor.h ****     // Recorded slope and gain, used in next sample
 171:../temp_time_machine/DaisyExamples/DaisySP//DaisySP-LGPL/Source/Dynamics/compressor.h ****     float slope_rec_, gain_rec_;
 172:../temp_time_machine/DaisyExamples/DaisySP//DaisySP-LGPL/Source/Dynamics/compressor.h **** 
 173:../temp_time_machine/DaisyExamples/DaisySP//DaisySP-LGPL/Source/Dynamics/compressor.h ****     // Internals from faust
 174:../temp_time_machine/DaisyExamples/DaisySP//DaisySP-LGPL/Source/Dynamics/compressor.h ****     float atk_slo2_, ratio_mul_, atk_slo_, rel_slo_;
 175:../temp_time_machine/DaisyExamples/DaisySP//DaisySP-LGPL/Source/Dynamics/compressor.h **** 
 176:../temp_time_machine/DaisyExamples/DaisySP//DaisySP-LGPL/Source/Dynamics/compressor.h ****     int   sample_rate_;
 177:../temp_time_machine/DaisyExamples/DaisySP//DaisySP-LGPL/Source/Dynamics/compressor.h ****     float sample_rate_inv2_, sample_rate_inv_;
 178:../temp_time_machine/DaisyExamples/DaisySP//DaisySP-LGPL/Source/Dynamics/compressor.h **** 
 179:../temp_time_machine/DaisyExamples/DaisySP//DaisySP-LGPL/Source/Dynamics/compressor.h ****     // Auto makeup gain enable
 180:../temp_time_machine/DaisyExamples/DaisySP//DaisySP-LGPL/Source/Dynamics/compressor.h ****     bool makeup_auto_;
 181:../temp_time_machine/DaisyExamples/DaisySP//DaisySP-LGPL/Source/Dynamics/compressor.h **** 
 182:../temp_time_machine/DaisyExamples/DaisySP//DaisySP-LGPL/Source/Dynamics/compressor.h ****     // Methods for recalculating internals
 183:../temp_time_machine/DaisyExamples/DaisySP//DaisySP-LGPL/Source/Dynamics/compressor.h ****     void RecalculateRatio()
 184:../temp_time_machine/DaisyExamples/DaisySP//DaisySP-LGPL/Source/Dynamics/compressor.h ****     {
 185:../temp_time_machine/DaisyExamples/DaisySP//DaisySP-LGPL/Source/Dynamics/compressor.h ****         ratio_mul_ = ((1.0f - atk_slo2_) * ((1.0f / ratio_) - 1.0f));
 186:../temp_time_machine/DaisyExamples/DaisySP//DaisySP-LGPL/Source/Dynamics/compressor.h ****     }
 187:../temp_time_machine/DaisyExamples/DaisySP//DaisySP-LGPL/Source/Dynamics/compressor.h **** 
 188:../temp_time_machine/DaisyExamples/DaisySP//DaisySP-LGPL/Source/Dynamics/compressor.h ****     void RecalculateAttack()
 189:../temp_time_machine/DaisyExamples/DaisySP//DaisySP-LGPL/Source/Dynamics/compressor.h ****     {
 190:../temp_time_machine/DaisyExamples/DaisySP//DaisySP-LGPL/Source/Dynamics/compressor.h ****         atk_slo_  = expf(-(sample_rate_inv_ / atk_));
 7745              		.loc 12 190 28 is_stmt 0 view .LVU2385
 7746 04b6 DBED9AAA 		vldr.32	s21, [fp, #616]
 7747              	.LBE1700:
 7748              	.LBE1699:
 127:../temp_time_machine/DaisyExamples/DaisySP//DaisySP-LGPL/Source/Dynamics/compressor.h ****         RecalculateAttack();
ARM GAS  /var/folders/v1/156fk8j97zv9pzndh61fy7zm0000gn/T//ccyHp6tG.s 			page 211


 7749              		.loc 12 127 14 view .LVU2386
 7750 04ba CBED8E9A 		vstr.32	s19, [fp, #568]
 128:../temp_time_machine/DaisyExamples/DaisySP//DaisySP-LGPL/Source/Dynamics/compressor.h ****         RecalculateAttack();
 7751              		.loc 12 128 9 is_stmt 1 view .LVU2387
 7752              	.LVL481:
 7753              	.LBB1709:
 7754              	.LBI1699:
 188:../temp_time_machine/DaisyExamples/DaisySP//DaisySP-LGPL/Source/Dynamics/compressor.h ****     {
 7755              		.loc 12 188 10 view .LVU2388
 7756              	.LBB1705:
 7757              		.loc 12 190 9 view .LVU2389
 7758              		.loc 12 190 45 is_stmt 0 view .LVU2390
 7759 04be 8AEEA90A 		vdiv.f32	s0, s21, s19
 7760              		.loc 12 190 25 view .LVU2391
 7761 04c2 B1EE400A 		vneg.f32	s0, s0
 7762 04c6 FFF7FEFF 		bl	expf
 7763              	.LVL482:
 191:../temp_time_machine/DaisyExamples/DaisySP//DaisySP-LGPL/Source/Dynamics/compressor.h ****         atk_slo2_ = expf(-(sample_rate_inv2_ / atk_));
 7764              		.loc 12 191 46 view .LVU2392
 7765 04ca DBED997A 		vldr.32	s15, [fp, #612]
 190:../temp_time_machine/DaisyExamples/DaisySP//DaisySP-LGPL/Source/Dynamics/compressor.h ****         atk_slo2_ = expf(-(sample_rate_inv2_ / atk_));
 7766              		.loc 12 190 19 discriminator 1 view .LVU2393
 7767 04ce 8BED960A 		vstr.32	s0, [fp, #600]
 7768              		.loc 12 191 9 is_stmt 1 view .LVU2394
 7769              		.loc 12 191 46 is_stmt 0 view .LVU2395
 7770 04d2 87EEA90A 		vdiv.f32	s0, s15, s19
 7771              		.loc 12 191 25 view .LVU2396
 7772 04d6 B1EE400A 		vneg.f32	s0, s0
 7773 04da FFF7FEFF 		bl	expf
 7774              	.LVL483:
 7775              	.LBE1705:
 7776              	.LBE1709:
 7777              	.LBE1713:
 7778              	.LBE1732:
 7779              	.LBB1733:
 7780              	.LBB1734:
 139:../temp_time_machine/DaisyExamples/DaisySP//DaisySP-LGPL/Source/Dynamics/compressor.h ****         RecalculateRelease();
 7781              		.loc 12 139 14 view .LVU2397
 7782 04de DFED5E7A 		vldr.32	s15, .L340+48
 7783              	.LBE1734:
 7784              	.LBE1733:
 7785              	.LBB1744:
 7786              	.LBB1714:
 7787              	.LBB1710:
 7788              	.LBB1706:
 7789              		.loc 12 191 25 view .LVU2398
 7790 04e2 F0EE409A 		vmov.f32	s19, s0
 7791              	.LBE1706:
 7792              	.LBE1710:
 7793              	.LBE1714:
 7794              	.LBE1744:
 7795              	.LBB1745:
 7796              	.LBB1741:
 7797              	.LBB1735:
 7798              	.LBB1736:
 192:../temp_time_machine/DaisyExamples/DaisySP//DaisySP-LGPL/Source/Dynamics/compressor.h **** 
 193:../temp_time_machine/DaisyExamples/DaisySP//DaisySP-LGPL/Source/Dynamics/compressor.h ****         RecalculateRatio();
ARM GAS  /var/folders/v1/156fk8j97zv9pzndh61fy7zm0000gn/T//ccyHp6tG.s 			page 212


 194:../temp_time_machine/DaisyExamples/DaisySP//DaisySP-LGPL/Source/Dynamics/compressor.h ****     }
 195:../temp_time_machine/DaisyExamples/DaisySP//DaisySP-LGPL/Source/Dynamics/compressor.h **** 
 196:../temp_time_machine/DaisyExamples/DaisySP//DaisySP-LGPL/Source/Dynamics/compressor.h ****     void RecalculateRelease() { rel_slo_ = expf((-(sample_rate_inv_ / rel_))); }
 7799              		.loc 12 196 69 view .LVU2399
 7800 04e6 8AEEA70A 		vdiv.f32	s0, s21, s15
 7801              	.LBE1736:
 7802              	.LBE1735:
 139:../temp_time_machine/DaisyExamples/DaisySP//DaisySP-LGPL/Source/Dynamics/compressor.h ****         RecalculateRelease();
 7803              		.loc 12 139 14 view .LVU2400
 7804 04ea CBED8F7A 		vstr.32	s15, [fp, #572]
 7805              	.LBE1741:
 7806              	.LBE1745:
 7807              	.LBB1746:
 7808              	.LBB1715:
 7809              	.LBB1711:
 7810              	.LBB1707:
 191:../temp_time_machine/DaisyExamples/DaisySP//DaisySP-LGPL/Source/Dynamics/compressor.h **** 
 7811              		.loc 12 191 19 discriminator 1 view .LVU2401
 7812 04ee CBED949A 		vstr.32	s19, [fp, #592]
 193:../temp_time_machine/DaisyExamples/DaisySP//DaisySP-LGPL/Source/Dynamics/compressor.h ****     }
 7813              		.loc 12 193 9 is_stmt 1 view .LVU2402
 7814              	.LVL484:
 7815              	.LBB1701:
 7816              	.LBI1701:
 183:../temp_time_machine/DaisyExamples/DaisySP//DaisySP-LGPL/Source/Dynamics/compressor.h ****     {
 7817              		.loc 12 183 10 view .LVU2403
 7818              	.LBB1702:
 185:../temp_time_machine/DaisyExamples/DaisySP//DaisySP-LGPL/Source/Dynamics/compressor.h ****     }
 7819              		.loc 12 185 9 view .LVU2404
 185:../temp_time_machine/DaisyExamples/DaisySP//DaisySP-LGPL/Source/Dynamics/compressor.h ****     }
 7820              		.loc 12 185 9 is_stmt 0 view .LVU2405
 7821              	.LBE1702:
 7822              	.LBE1701:
 7823              	.LBE1707:
 7824              	.LBE1711:
 7825              	.LBE1715:
 7826              	.LBE1746:
 199:legacy_engine.h ****     compressor.SetRatio(5.0f);
 7827              		.loc 11 199 5 is_stmt 1 view .LVU2406
 7828              	.LBB1747:
 7829              	.LBI1733:
 137:../temp_time_machine/DaisyExamples/DaisySP//DaisySP-LGPL/Source/Dynamics/compressor.h ****     {
 7830              		.loc 12 137 10 view .LVU2407
 7831              	.LBB1742:
 139:../temp_time_machine/DaisyExamples/DaisySP//DaisySP-LGPL/Source/Dynamics/compressor.h ****         RecalculateRelease();
 7832              		.loc 12 139 9 view .LVU2408
 140:../temp_time_machine/DaisyExamples/DaisySP//DaisySP-LGPL/Source/Dynamics/compressor.h ****     }
 7833              		.loc 12 140 9 view .LVU2409
 7834              	.LBB1739:
 7835              	.LBI1735:
 7836              		.loc 12 196 10 view .LVU2410
 7837              	.LBB1737:
 7838              		.loc 12 196 33 view .LVU2411
 7839              		.loc 12 196 48 is_stmt 0 view .LVU2412
 7840 04f2 B1EE400A 		vneg.f32	s0, s0
 7841 04f6 FFF7FEFF 		bl	expf
 7842              	.LVL485:
ARM GAS  /var/folders/v1/156fk8j97zv9pzndh61fy7zm0000gn/T//ccyHp6tG.s 			page 213


 7843              	.LBE1737:
 7844              	.LBE1739:
 7845              	.LBE1742:
 7846              	.LBE1747:
 7847              	.LBB1748:
 7848              	.LBB1716:
 7849              	.LBB1712:
 7850              	.LBB1708:
 7851              	.LBB1704:
 7852              	.LBB1703:
 185:../temp_time_machine/DaisyExamples/DaisySP//DaisySP-LGPL/Source/Dynamics/compressor.h ****     }
 7853              		.loc 12 185 29 view .LVU2413
 7854 04fa 78EEE98A 		vsub.f32	s17, s17, s19
 7855              	.LBE1703:
 7856              	.LBE1704:
 7857              	.LBE1708:
 7858              	.LBE1712:
 7859              	.LBE1716:
 7860              	.LBE1748:
 7861              	.LBB1749:
 7862              	.LBB1750:
 7863              	.LBB1751:
 7864              	.LBB1752:
 185:../temp_time_machine/DaisyExamples/DaisySP//DaisySP-LGPL/Source/Dynamics/compressor.h ****     }
 7865              		.loc 12 185 42 view .LVU2414
 7866 04fe DFED577A 		vldr.32	s15, .L340+52
 7867              	.LBE1752:
 7868              	.LBE1751:
 103:../temp_time_machine/DaisyExamples/DaisySP//DaisySP-LGPL/Source/Dynamics/compressor.h ****         RecalculateRatio();
 7869              		.loc 12 103 16 view .LVU2415
 7870 0502 574A     		ldr	r2, .L340+56
 7871              	.LBB1756:
 7872              	.LBB1753:
 185:../temp_time_machine/DaisyExamples/DaisySP//DaisySP-LGPL/Source/Dynamics/compressor.h ****     }
 7873              		.loc 12 185 42 view .LVU2416
 7874 0504 68EEA78A 		vmul.f32	s17, s17, s15
 7875              	.LBE1753:
 7876              	.LBE1756:
 7877              	.LBE1750:
 7878              	.LBE1749:
 7879              	.LBB1761:
 7880              	.LBB1743:
 7881              	.LBB1740:
 7882              	.LBB1738:
 7883              		.loc 12 196 42 discriminator 1 view .LVU2417
 7884 0508 8BED970A 		vstr.32	s0, [fp, #604]
 7885              	.LVL486:
 7886              		.loc 12 196 42 discriminator 1 view .LVU2418
 7887              	.LBE1738:
 7888              	.LBE1740:
 7889              	.LBE1743:
 7890              	.LBE1761:
 200:legacy_engine.h ****     compressor.SetThreshold(0.0f); // 0dB? Original was 0.0.
 7891              		.loc 11 200 5 is_stmt 1 view .LVU2419
 7892              	.LBB1762:
 7893              	.LBI1749:
 101:../temp_time_machine/DaisyExamples/DaisySP//DaisySP-LGPL/Source/Dynamics/compressor.h ****     {
ARM GAS  /var/folders/v1/156fk8j97zv9pzndh61fy7zm0000gn/T//ccyHp6tG.s 			page 214


 7894              		.loc 12 101 10 view .LVU2420
 7895              	.LBB1759:
 103:../temp_time_machine/DaisyExamples/DaisySP//DaisySP-LGPL/Source/Dynamics/compressor.h ****         RecalculateRatio();
 7896              		.loc 12 103 9 view .LVU2421
 103:../temp_time_machine/DaisyExamples/DaisySP//DaisySP-LGPL/Source/Dynamics/compressor.h ****         RecalculateRatio();
 7897              		.loc 12 103 16 is_stmt 0 view .LVU2422
 7898 050c CBF83022 		str	r2, [fp, #560]	@ float
 104:../temp_time_machine/DaisyExamples/DaisySP//DaisySP-LGPL/Source/Dynamics/compressor.h ****     }
 7899              		.loc 12 104 9 is_stmt 1 view .LVU2423
 7900              	.LVL487:
 7901              	.LBB1757:
 7902              	.LBI1751:
 183:../temp_time_machine/DaisyExamples/DaisySP//DaisySP-LGPL/Source/Dynamics/compressor.h ****     {
 7903              		.loc 12 183 10 view .LVU2424
 7904              	.LBB1754:
 185:../temp_time_machine/DaisyExamples/DaisySP//DaisySP-LGPL/Source/Dynamics/compressor.h ****     }
 7905              		.loc 12 185 9 view .LVU2425
 185:../temp_time_machine/DaisyExamples/DaisySP//DaisySP-LGPL/Source/Dynamics/compressor.h ****     }
 7906              		.loc 12 185 9 is_stmt 0 view .LVU2426
 7907              	.LBE1754:
 7908              	.LBE1757:
 7909              	.LBE1759:
 7910              	.LBE1762:
 201:legacy_engine.h ****   }
 7911              		.loc 11 201 5 is_stmt 1 view .LVU2427
 7912              	.LBB1763:
 7913              	.LBI1763:
 113:../temp_time_machine/DaisyExamples/DaisySP//DaisySP-LGPL/Source/Dynamics/compressor.h ****     {
 7914              		.loc 12 113 10 view .LVU2428
 7915              	.LBB1764:
 115:../temp_time_machine/DaisyExamples/DaisySP//DaisySP-LGPL/Source/Dynamics/compressor.h ****         RecalculateMakeup();
 7916              		.loc 12 115 9 view .LVU2429
 116:../temp_time_machine/DaisyExamples/DaisySP//DaisySP-LGPL/Source/Dynamics/compressor.h ****     }
 7917              		.loc 12 116 9 view .LVU2430
 7918              	.LBB1765:
 7919              	.LBI1765:
 197:../temp_time_machine/DaisyExamples/DaisySP//DaisySP-LGPL/Source/Dynamics/compressor.h **** 
 198:../temp_time_machine/DaisyExamples/DaisySP//DaisySP-LGPL/Source/Dynamics/compressor.h ****     void RecalculateMakeup()
 7920              		.loc 12 198 10 view .LVU2431
 7921              	.LBB1766:
 199:../temp_time_machine/DaisyExamples/DaisySP//DaisySP-LGPL/Source/Dynamics/compressor.h ****     {
 200:../temp_time_machine/DaisyExamples/DaisySP//DaisySP-LGPL/Source/Dynamics/compressor.h ****         if(makeup_auto_)
 7922              		.loc 12 200 9 view .LVU2432
 7923 0510 9BF86C22 		ldrb	r2, [fp, #620]	@ zero_extendqisi2
 7924              	.LBE1766:
 7925              	.LBE1765:
 115:../temp_time_machine/DaisyExamples/DaisySP//DaisySP-LGPL/Source/Dynamics/compressor.h ****         RecalculateMakeup();
 7926              		.loc 12 115 17 is_stmt 0 view .LVU2433
 7927 0514 CBF83492 		str	r9, [fp, #564]	@ float
 7928              	.LBE1764:
 7929              	.LBE1763:
 7930              	.LBB1772:
 7931              	.LBB1760:
 7932              	.LBB1758:
 7933              	.LBB1755:
 185:../temp_time_machine/DaisyExamples/DaisySP//DaisySP-LGPL/Source/Dynamics/compressor.h ****     }
 7934              		.loc 12 185 20 view .LVU2434
ARM GAS  /var/folders/v1/156fk8j97zv9pzndh61fy7zm0000gn/T//ccyHp6tG.s 			page 215


 7935 0518 CBED958A 		vstr.32	s17, [fp, #596]
 7936              	.LBE1755:
 7937              	.LBE1758:
 7938              	.LBE1760:
 7939              	.LBE1772:
 7940              	.LBB1773:
 7941              	.LBB1771:
 7942              	.LBB1770:
 7943              	.LBB1769:
 7944              		.loc 12 200 9 view .LVU2435
 7945 051c 0AB1     		cbz	r2, .L279
 7946              	.LVL488:
 7947              	.LBB1767:
 7948              	.LBI1767:
 198:../temp_time_machine/DaisyExamples/DaisySP//DaisySP-LGPL/Source/Dynamics/compressor.h ****     {
 7949              		.loc 12 198 10 is_stmt 1 view .LVU2436
 7950              	.LBB1768:
 201:../temp_time_machine/DaisyExamples/DaisySP//DaisySP-LGPL/Source/Dynamics/compressor.h ****             makeup_gain_ = fabsf(thresh_ - thresh_ / ratio_) * 0.5f;
 7951              		.loc 12 201 13 view .LVU2437
 7952              		.loc 12 201 26 is_stmt 0 view .LVU2438
 7953 051e CBF84092 		str	r9, [fp, #576]	@ float
 7954              	.LVL489:
 7955              	.L279:
 7956              		.loc 12 201 26 view .LVU2439
 7957              	.LBE1768:
 7958              	.LBE1767:
 7959              	.LBE1769:
 7960              	.LBE1770:
 7961              	.LBE1771:
 7962              	.LBE1773:
 7963              	.LBE1652:
 7964              	.LBE1651:
 252:legacy_engine.h ****   }
 7965              		.loc 11 252 5 is_stmt 1 view .LVU2440
 7966              	.LBB1774:
 7967              	.LBI1774:
 180:legacy_engine.h ****     sampleRate = sr;
 7968              		.loc 11 180 8 view .LVU2441
 7969              	.LBB1775:
 181:legacy_engine.h ****     bufferSize = LegacyHelpers::seconds_to_samples(maxDelay, sr);
 7970              		.loc 11 181 5 view .LVU2442
 181:legacy_engine.h ****     bufferSize = LegacyHelpers::seconds_to_samples(maxDelay, sr);
 7971              		.loc 11 181 16 is_stmt 0 view .LVU2443
 7972 0522 504A     		ldr	r2, .L340+60
 7973              	.LBB1776:
 184:legacy_engine.h ****       buffer[i] = 0.0f;
 7974              		.loc 11 184 23 discriminator 1 view .LVU2444
 7975 0524 002D     		cmp	r5, #0
 7976              	.LBE1776:
 183:legacy_engine.h ****     for (int i = 0; i < bufferSize; i++)
 7977              		.loc 11 183 12 view .LVU2445
 7978 0526 504B     		ldr	r3, .L340+64
 7979              	.LVL490:
 182:legacy_engine.h ****     buffer = buf;
 7980              		.loc 11 182 16 discriminator 1 view .LVU2446
 7981 0528 CBF86454 		str	r5, [fp, #1124]
 181:legacy_engine.h ****     bufferSize = LegacyHelpers::seconds_to_samples(maxDelay, sr);
ARM GAS  /var/folders/v1/156fk8j97zv9pzndh61fy7zm0000gn/T//ccyHp6tG.s 			page 216


 7982              		.loc 11 181 16 view .LVU2447
 7983 052c 82ED008A 		vstr.32	s16, [r2]
 182:legacy_engine.h ****     buffer = buf;
 7984              		.loc 11 182 5 is_stmt 1 view .LVU2448
 183:legacy_engine.h ****     for (int i = 0; i < bufferSize; i++)
 7985              		.loc 11 183 5 view .LVU2449
 183:legacy_engine.h ****     for (int i = 0; i < bufferSize; i++)
 7986              		.loc 11 183 12 is_stmt 0 view .LVU2450
 7987 0530 CBF86034 		str	r3, [fp, #1120]
 184:legacy_engine.h ****       buffer[i] = 0.0f;
 7988              		.loc 11 184 5 is_stmt 1 view .LVU2451
 7989              	.LVL491:
 7990              	.LBB1777:
 184:legacy_engine.h ****       buffer[i] = 0.0f;
 7991              		.loc 11 184 23 discriminator 1 view .LVU2452
 7992 0534 05DD     		ble	.L281
 185:legacy_engine.h ****     for (int i = 0; i < 8; i++)
 7993              		.loc 11 185 17 is_stmt 0 view .LVU2453
 7994 0536 1846     		mov	r0, r3
 7995 0538 3246     		mov	r2, r6
 7996 053a 0021     		movs	r1, #0
 7997 053c FFF7FEFF 		bl	memset
 7998              	.LVL492:
 185:legacy_engine.h ****     for (int i = 0; i < 8; i++)
 7999              		.loc 11 185 17 view .LVU2454
 8000 0540 0346     		mov	r3, r0
 8001              	.LVL493:
 185:legacy_engine.h ****     for (int i = 0; i < 8; i++)
 8002              		.loc 11 185 17 view .LVU2455
 8003              	.LBE1777:
 8004              	.LBB1778:
 186:legacy_engine.h ****       readHeads[i].Init(sr, buffer, bufferSize);
 8005              		.loc 11 186 23 is_stmt 1 discriminator 1 view .LVU2456
 8006              	.L281:
 187:legacy_engine.h ****     writeHeadPosition = 0;
 8007              		.loc 11 187 7 view .LVU2457
 8008              	.LBB1779:
 8009              	.LBI1779:
 112:legacy_engine.h ****     sampleRate = sr;
 8010              		.loc 11 112 8 view .LVU2458
 8011              	.LBB1780:
 113:legacy_engine.h ****     delta = 5.0f / sr;
 8012              		.loc 11 113 5 view .LVU2459
 117:legacy_engine.h ****     loudness.Init();
 8013              		.loc 11 117 16 is_stmt 0 view .LVU2460
 8014 0542 0026     		movs	r6, #0
 8015              	.LBB1781:
 8016              	.LBB1782:
 8017              	.LBB1783:
  62:legacy_engine.h ****   float Process(float x) {
 8018              		.loc 11 62 38 view .LVU2461
 8019 0544 3F49     		ldr	r1, .L340+28
 8020              	.LBE1783:
 8021              	.LBE1782:
 8022              	.LBE1781:
 113:legacy_engine.h ****     delta = 5.0f / sr;
 8023              		.loc 11 113 16 view .LVU2462
ARM GAS  /var/folders/v1/156fk8j97zv9pzndh61fy7zm0000gn/T//ccyHp6tG.s 			page 217


 8024 0546 84EDA78A 		vstr.32	s16, [r4, #668]
 114:legacy_engine.h ****     buffer = buf;
 8025              		.loc 11 114 5 is_stmt 1 view .LVU2463
 114:legacy_engine.h ****     buffer = buf;
 8026              		.loc 11 114 11 is_stmt 0 view .LVU2464
 8027 054a 84EDA9AA 		vstr.32	s20, [r4, #676]
 115:legacy_engine.h ****     bufferSize = size;
 8028              		.loc 11 115 5 is_stmt 1 view .LVU2465
 117:legacy_engine.h ****     loudness.Init();
 8029              		.loc 11 117 16 is_stmt 0 view .LVU2466
 8030 054e C4F8A862 		str	r6, [r4, #680]	@ float
 8031              	.LBB1788:
 8032              	.LBB1786:
 8033              	.LBB1784:
  62:legacy_engine.h ****   float Process(float x) {
 8034              		.loc 11 62 38 view .LVU2467
 8035 0552 C4F87412 		str	r1, [r4, #628]	@ float
 8036              	.LBE1784:
 8037              	.LBE1786:
 8038              	.LBE1788:
 116:legacy_engine.h ****     blurAmount = 0.0f;
 8039              		.loc 11 116 16 view .LVU2468
 8040 0556 C4E99F35 		strd	r3, r5, [r4, #636]
 117:legacy_engine.h ****     loudness.Init();
 8041              		.loc 11 117 5 is_stmt 1 view .LVU2469
 118:legacy_engine.h ****   }
 8042              		.loc 11 118 5 view .LVU2470
 8043              	.LVL494:
 8044              	.LBB1789:
 8045              	.LBI1781:
  92:legacy_engine.h ****   float Get() { return this->lastVal; }
 8046              		.loc 11 92 8 view .LVU2471
  92:legacy_engine.h ****   float Get() { return this->lastVal; }
 8047              		.loc 11 92 17 view .LVU2472
 8048              	.LBB1787:
 8049              	.LBI1782:
  62:legacy_engine.h ****   float Process(float x) {
 8050              		.loc 11 62 8 view .LVU2473
 8051              	.LBB1785:
  62:legacy_engine.h ****   float Process(float x) {
 8052              		.loc 11 62 33 view .LVU2474
  62:legacy_engine.h ****   float Process(float x) {
 8053              		.loc 11 62 33 is_stmt 0 view .LVU2475
 8054              	.LBE1785:
 8055              	.LBE1787:
 8056              	.LBE1789:
 8057              	.LBE1780:
 8058              	.LBE1779:
 186:legacy_engine.h ****       readHeads[i].Init(sr, buffer, bufferSize);
 8059              		.loc 11 186 5 is_stmt 1 discriminator 3 view .LVU2476
 186:legacy_engine.h ****       readHeads[i].Init(sr, buffer, bufferSize);
 8060              		.loc 11 186 23 discriminator 1 view .LVU2477
 8061 055a 3C34     		adds	r4, r4, #60
 8062 055c BC42     		cmp	r4, r7
 8063 055e F0D1     		bne	.L281
 186:legacy_engine.h ****       readHeads[i].Init(sr, buffer, bufferSize);
 8064              		.loc 11 186 23 is_stmt 0 discriminator 1 view .LVU2478
ARM GAS  /var/folders/v1/156fk8j97zv9pzndh61fy7zm0000gn/T//ccyHp6tG.s 			page 218


 8065              	.LBE1778:
 188:legacy_engine.h **** 
 8066              		.loc 11 188 5 is_stmt 1 view .LVU2479
 8067              	.LBB1790:
 8068              	.LBB1791:
  62:legacy_engine.h ****   float Process(float x) {
 8069              		.loc 11 62 38 is_stmt 0 view .LVU2480
 8070 0560 424C     		ldr	r4, .L340+68
 8071              	.LBE1791:
 8072              	.LBE1790:
 8073              	.LBB1795:
 8074              	.LBB1796:
  74:legacy_engine.h ****     releaseCoef = 16.0f / sampleRate;
 8075              		.loc 11 74 14 view .LVU2481
 8076 0562 F7EE008A 		vmov.f32	s17, #1.0e+0
 8077              	.LBE1796:
 8078              	.LBE1795:
 197:legacy_engine.h ****     compressor.SetAttack(0.02f);
 8079              		.loc 11 197 20 view .LVU2482
 8080 0566 B0EE480A 		vmov.f32	s0, s16
 8081              	.LBB1800:
 8082              	.LBB1801:
 127:../temp_time_machine/DaisyExamples/DaisySP//DaisySP-LGPL/Source/Dynamics/compressor.h ****         RecalculateAttack();
 8083              		.loc 12 127 14 view .LVU2483
 8084 056a 9FED398A 		vldr.32	s16, .L340+40
 8085              	.LVL495:
 127:../temp_time_machine/DaisyExamples/DaisySP//DaisySP-LGPL/Source/Dynamics/compressor.h ****         RecalculateAttack();
 8086              		.loc 12 127 14 view .LVU2484
 8087              	.LBE1801:
 8088              	.LBE1800:
 8089              	.LBB1820:
 8090              	.LBB1792:
  62:legacy_engine.h ****   float Process(float x) {
 8091              		.loc 11 62 38 view .LVU2485
 8092 056e 2246     		mov	r2, r4
 8093              	.LBE1792:
 8094              	.LBE1820:
 8095              	.LBB1821:
 8096              	.LBB1822:
 8097              	.LBB1823:
 8098 0570 44F8281C 		str	r1, [r4, #-40]	@ float
 8099              	.LBE1823:
 8100              	.LBE1822:
 8101              	.LBE1821:
 197:legacy_engine.h ****     compressor.SetAttack(0.02f);
 8102              		.loc 11 197 20 view .LVU2486
 8103 0574 04F12400 		add	r0, r4, #36
 8104              	.LBB1826:
 8105              	.LBB1797:
  74:legacy_engine.h ****     releaseCoef = 16.0f / sampleRate;
 8106              		.loc 11 74 14 view .LVU2487
 8107 0578 C4ED058A 		vstr.32	s17, [r4, #20]
 8108              	.LBE1797:
 8109              	.LBE1826:
 8110              	.LBB1827:
 8111              	.LBB1793:
  62:legacy_engine.h ****   float Process(float x) {
ARM GAS  /var/folders/v1/156fk8j97zv9pzndh61fy7zm0000gn/T//ccyHp6tG.s 			page 219


 8112              		.loc 11 62 38 view .LVU2488
 8113 057c 42F8081B 		str	r1, [r2], #8	@ float
 8114              	.LBE1793:
 8115              	.LBE1827:
 188:legacy_engine.h **** 
 8116              		.loc 11 188 23 view .LVU2489
 8117 0580 0021     		movs	r1, #0
 8118              	.LBB1828:
 8119              	.LBB1798:
  75:legacy_engine.h ****   }
 8120              		.loc 11 75 17 view .LVU2490
 8121 0582 84ED069A 		vstr.32	s18, [r4, #24]
 8122              	.LBE1798:
 8123              	.LBE1828:
 188:legacy_engine.h **** 
 8124              		.loc 11 188 23 view .LVU2491
 8125 0586 CBF86814 		str	r1, [fp, #1128]
 190:legacy_engine.h ****     feedbackSlew.Init(0.01f);
 8126              		.loc 11 190 5 is_stmt 1 view .LVU2492
 8127              	.LVL496:
 8128              	.LBB1829:
 8129              	.LBI1790:
  62:legacy_engine.h ****   float Process(float x) {
 8130              		.loc 11 62 8 view .LVU2493
 8131              	.LBB1794:
  62:legacy_engine.h ****   float Process(float x) {
 8132              		.loc 11 62 33 view .LVU2494
  62:legacy_engine.h ****   float Process(float x) {
 8133              		.loc 11 62 33 is_stmt 0 view .LVU2495
 8134              	.LBE1794:
 8135              	.LBE1829:
 191:legacy_engine.h ****     ampCoefSlew.Init(0.0001f);
 8136              		.loc 11 191 5 is_stmt 1 view .LVU2496
 8137              	.LBB1830:
 8138              	.LBI1830:
  62:legacy_engine.h ****   float Process(float x) {
 8139              		.loc 11 62 8 view .LVU2497
 8140              	.LBB1831:
  62:legacy_engine.h ****   float Process(float x) {
 8141              		.loc 11 62 33 view .LVU2498
  62:legacy_engine.h ****   float Process(float x) {
 8142              		.loc 11 62 38 is_stmt 0 view .LVU2499
 8143 058a 3049     		ldr	r1, .L340+36
 8144              	.LBE1831:
 8145              	.LBE1830:
 8146              	.LBB1833:
 8147              	.LBB1834:
  74:legacy_engine.h ****     releaseCoef = 16.0f / sampleRate;
 8148              		.loc 11 74 14 view .LVU2500
 8149 058c C4ED078A 		vstr.32	s17, [r4, #28]
 8150              	.LBE1834:
 8151              	.LBE1833:
 8152              	.LBB1837:
 8153              	.LBB1832:
  62:legacy_engine.h ****   float Process(float x) {
 8154              		.loc 11 62 38 view .LVU2501
 8155 0590 1160     		str	r1, [r2]	@ float
ARM GAS  /var/folders/v1/156fk8j97zv9pzndh61fy7zm0000gn/T//ccyHp6tG.s 			page 220


 8156              	.LVL497:
  62:legacy_engine.h ****   float Process(float x) {
 8157              		.loc 11 62 38 view .LVU2502
 8158              	.LBE1832:
 8159              	.LBE1837:
 192:legacy_engine.h ****     outputLimiter.Init(sr);
 8160              		.loc 11 192 5 is_stmt 1 view .LVU2503
 8161              	.LBB1838:
 8162              	.LBI1838:
  62:legacy_engine.h ****   float Process(float x) {
 8163              		.loc 11 62 8 view .LVU2504
 8164              	.LBB1839:
  62:legacy_engine.h ****   float Process(float x) {
 8165              		.loc 11 62 33 view .LVU2505
  62:legacy_engine.h ****   float Process(float x) {
 8166              		.loc 11 62 38 is_stmt 0 view .LVU2506
 8167 0592 304A     		ldr	r2, .L340+44
 8168              	.LBE1839:
 8169              	.LBE1838:
 8170              	.LBB1841:
 8171              	.LBB1835:
  75:legacy_engine.h ****   }
 8172              		.loc 11 75 17 view .LVU2507
 8173 0594 84ED089A 		vstr.32	s18, [r4, #32]
 8174              	.LBE1835:
 8175              	.LBE1841:
 8176              	.LBB1842:
 8177              	.LBB1840:
  62:legacy_engine.h ****   float Process(float x) {
 8178              		.loc 11 62 38 view .LVU2508
 8179 0598 2261     		str	r2, [r4, #16]	@ float
 8180              	.LVL498:
  62:legacy_engine.h ****   float Process(float x) {
 8181              		.loc 11 62 38 view .LVU2509
 8182              	.LBE1840:
 8183              	.LBE1842:
 193:legacy_engine.h ****     feedbackLimiter.Init(sr);
 8184              		.loc 11 193 5 is_stmt 1 view .LVU2510
 8185              	.LBB1843:
 8186              	.LBI1795:
  73:legacy_engine.h ****     gainCoef = 1.0f;
 8187              		.loc 11 73 8 view .LVU2511
 8188              	.LBB1799:
  74:legacy_engine.h ****     releaseCoef = 16.0f / sampleRate;
 8189              		.loc 11 74 5 view .LVU2512
  75:legacy_engine.h ****   }
 8190              		.loc 11 75 5 view .LVU2513
  75:legacy_engine.h ****   }
 8191              		.loc 11 75 5 is_stmt 0 view .LVU2514
 8192              	.LBE1799:
 8193              	.LBE1843:
 194:legacy_engine.h ****     loudness.Init();
 8194              		.loc 11 194 5 is_stmt 1 view .LVU2515
 8195              	.LBB1844:
 8196              	.LBI1833:
  73:legacy_engine.h ****     gainCoef = 1.0f;
 8197              		.loc 11 73 8 view .LVU2516
ARM GAS  /var/folders/v1/156fk8j97zv9pzndh61fy7zm0000gn/T//ccyHp6tG.s 			page 221


 8198              	.LBB1836:
  74:legacy_engine.h ****     releaseCoef = 16.0f / sampleRate;
 8199              		.loc 11 74 5 view .LVU2517
  75:legacy_engine.h ****   }
 8200              		.loc 11 75 5 view .LVU2518
  75:legacy_engine.h ****   }
 8201              		.loc 11 75 5 is_stmt 0 view .LVU2519
 8202              	.LBE1836:
 8203              	.LBE1844:
 195:legacy_engine.h **** 
 8204              		.loc 11 195 5 is_stmt 1 view .LVU2520
 8205              	.LBB1845:
 8206              	.LBI1821:
  92:legacy_engine.h ****   float Get() { return this->lastVal; }
 8207              		.loc 11 92 8 view .LVU2521
  92:legacy_engine.h ****   float Get() { return this->lastVal; }
 8208              		.loc 11 92 17 view .LVU2522
 8209              	.LBB1825:
 8210              	.LBI1822:
  62:legacy_engine.h ****   float Process(float x) {
 8211              		.loc 11 62 8 view .LVU2523
 8212              	.LBB1824:
  62:legacy_engine.h ****   float Process(float x) {
 8213              		.loc 11 62 33 view .LVU2524
  62:legacy_engine.h ****   float Process(float x) {
 8214              		.loc 11 62 33 is_stmt 0 view .LVU2525
 8215              	.LBE1824:
 8216              	.LBE1825:
 8217              	.LBE1845:
 197:legacy_engine.h ****     compressor.SetAttack(0.02f);
 8218              		.loc 11 197 5 is_stmt 1 view .LVU2526
 197:legacy_engine.h ****     compressor.SetAttack(0.02f);
 8219              		.loc 11 197 20 is_stmt 0 view .LVU2527
 8220 059a FFF7FEFF 		bl	_ZN7daisysp10Compressor4InitEf
 8221              	.LVL499:
 198:legacy_engine.h ****     compressor.SetRelease(0.2f);
 8222              		.loc 11 198 5 is_stmt 1 view .LVU2528
 8223              	.LBB1846:
 8224              	.LBI1800:
 125:../temp_time_machine/DaisyExamples/DaisySP//DaisySP-LGPL/Source/Dynamics/compressor.h ****     {
 8225              		.loc 12 125 10 view .LVU2529
 8226              	.LBB1816:
 127:../temp_time_machine/DaisyExamples/DaisySP//DaisySP-LGPL/Source/Dynamics/compressor.h ****         RecalculateAttack();
 8227              		.loc 12 127 9 view .LVU2530
 8228              	.LBB1802:
 8229              	.LBB1803:
 190:../temp_time_machine/DaisyExamples/DaisySP//DaisySP-LGPL/Source/Dynamics/compressor.h ****         atk_slo2_ = expf(-(sample_rate_inv2_ / atk_));
 8230              		.loc 12 190 28 is_stmt 0 view .LVU2531
 8231 059e 94ED179A 		vldr.32	s18, [r4, #92]
 8232              	.LBE1803:
 8233              	.LBE1802:
 127:../temp_time_machine/DaisyExamples/DaisySP//DaisySP-LGPL/Source/Dynamics/compressor.h ****         RecalculateAttack();
 8234              		.loc 12 127 14 view .LVU2532
 8235 05a2 84ED0B8A 		vstr.32	s16, [r4, #44]
 128:../temp_time_machine/DaisyExamples/DaisySP//DaisySP-LGPL/Source/Dynamics/compressor.h ****     }
 8236              		.loc 12 128 9 is_stmt 1 view .LVU2533
 8237              	.LVL500:
ARM GAS  /var/folders/v1/156fk8j97zv9pzndh61fy7zm0000gn/T//ccyHp6tG.s 			page 222


 8238              	.LBB1812:
 8239              	.LBI1802:
 188:../temp_time_machine/DaisyExamples/DaisySP//DaisySP-LGPL/Source/Dynamics/compressor.h ****     {
 8240              		.loc 12 188 10 view .LVU2534
 8241              	.LBB1808:
 190:../temp_time_machine/DaisyExamples/DaisySP//DaisySP-LGPL/Source/Dynamics/compressor.h ****         atk_slo2_ = expf(-(sample_rate_inv2_ / atk_));
 8242              		.loc 12 190 9 view .LVU2535
 190:../temp_time_machine/DaisyExamples/DaisySP//DaisySP-LGPL/Source/Dynamics/compressor.h ****         atk_slo2_ = expf(-(sample_rate_inv2_ / atk_));
 8243              		.loc 12 190 45 is_stmt 0 view .LVU2536
 8244 05a6 89EE080A 		vdiv.f32	s0, s18, s16
 190:../temp_time_machine/DaisyExamples/DaisySP//DaisySP-LGPL/Source/Dynamics/compressor.h ****         atk_slo2_ = expf(-(sample_rate_inv2_ / atk_));
 8245              		.loc 12 190 25 view .LVU2537
 8246 05aa B1EE400A 		vneg.f32	s0, s0
 8247 05ae FFF7FEFF 		bl	expf
 8248              	.LVL501:
 191:../temp_time_machine/DaisyExamples/DaisySP//DaisySP-LGPL/Source/Dynamics/compressor.h **** 
 8249              		.loc 12 191 46 view .LVU2538
 8250 05b2 D4ED167A 		vldr.32	s15, [r4, #88]
 190:../temp_time_machine/DaisyExamples/DaisySP//DaisySP-LGPL/Source/Dynamics/compressor.h ****         atk_slo2_ = expf(-(sample_rate_inv2_ / atk_));
 8251              		.loc 12 190 19 discriminator 1 view .LVU2539
 8252 05b6 84ED130A 		vstr.32	s0, [r4, #76]
 191:../temp_time_machine/DaisyExamples/DaisySP//DaisySP-LGPL/Source/Dynamics/compressor.h **** 
 8253              		.loc 12 191 9 is_stmt 1 view .LVU2540
 191:../temp_time_machine/DaisyExamples/DaisySP//DaisySP-LGPL/Source/Dynamics/compressor.h **** 
 8254              		.loc 12 191 46 is_stmt 0 view .LVU2541
 8255 05ba 87EE880A 		vdiv.f32	s0, s15, s16
 191:../temp_time_machine/DaisyExamples/DaisySP//DaisySP-LGPL/Source/Dynamics/compressor.h **** 
 8256              		.loc 12 191 25 view .LVU2542
 8257 05be B1EE400A 		vneg.f32	s0, s0
 8258 05c2 FFF7FEFF 		bl	expf
 8259              	.LVL502:
 8260              	.LBE1808:
 8261              	.LBE1812:
 8262              	.LBE1816:
 8263              	.LBE1846:
 8264              	.LBB1847:
 8265              	.LBB1848:
 139:../temp_time_machine/DaisyExamples/DaisySP//DaisySP-LGPL/Source/Dynamics/compressor.h ****         RecalculateRelease();
 8266              		.loc 12 139 14 view .LVU2543
 8267 05c6 DFED247A 		vldr.32	s15, .L340+48
 8268              	.LBE1848:
 8269              	.LBE1847:
 8270              	.LBB1858:
 8271              	.LBB1817:
 8272              	.LBB1813:
 8273              	.LBB1809:
 191:../temp_time_machine/DaisyExamples/DaisySP//DaisySP-LGPL/Source/Dynamics/compressor.h **** 
 8274              		.loc 12 191 25 view .LVU2544
 8275 05ca B0EE408A 		vmov.f32	s16, s0
 8276              	.LBE1809:
 8277              	.LBE1813:
 8278              	.LBE1817:
 8279              	.LBE1858:
 8280              	.LBB1859:
 8281              	.LBB1855:
 8282              	.LBB1849:
 8283              	.LBB1850:
ARM GAS  /var/folders/v1/156fk8j97zv9pzndh61fy7zm0000gn/T//ccyHp6tG.s 			page 223


 196:../temp_time_machine/DaisyExamples/DaisySP//DaisySP-LGPL/Source/Dynamics/compressor.h **** 
 8284              		.loc 12 196 69 view .LVU2545
 8285 05ce 89EE270A 		vdiv.f32	s0, s18, s15
 8286              	.LBE1850:
 8287              	.LBE1849:
 139:../temp_time_machine/DaisyExamples/DaisySP//DaisySP-LGPL/Source/Dynamics/compressor.h ****         RecalculateRelease();
 8288              		.loc 12 139 14 view .LVU2546
 8289 05d2 C4ED0C7A 		vstr.32	s15, [r4, #48]
 8290              	.LBE1855:
 8291              	.LBE1859:
 8292              	.LBB1860:
 8293              	.LBB1818:
 8294              	.LBB1814:
 8295              	.LBB1810:
 191:../temp_time_machine/DaisyExamples/DaisySP//DaisySP-LGPL/Source/Dynamics/compressor.h **** 
 8296              		.loc 12 191 19 discriminator 1 view .LVU2547
 8297 05d6 84ED118A 		vstr.32	s16, [r4, #68]
 193:../temp_time_machine/DaisyExamples/DaisySP//DaisySP-LGPL/Source/Dynamics/compressor.h ****     }
 8298              		.loc 12 193 9 is_stmt 1 view .LVU2548
 8299              	.LVL503:
 8300              	.LBB1804:
 8301              	.LBI1804:
 183:../temp_time_machine/DaisyExamples/DaisySP//DaisySP-LGPL/Source/Dynamics/compressor.h ****     {
 8302              		.loc 12 183 10 view .LVU2549
 8303              	.LBB1805:
 185:../temp_time_machine/DaisyExamples/DaisySP//DaisySP-LGPL/Source/Dynamics/compressor.h ****     }
 8304              		.loc 12 185 9 view .LVU2550
 185:../temp_time_machine/DaisyExamples/DaisySP//DaisySP-LGPL/Source/Dynamics/compressor.h ****     }
 8305              		.loc 12 185 9 is_stmt 0 view .LVU2551
 8306              	.LBE1805:
 8307              	.LBE1804:
 8308              	.LBE1810:
 8309              	.LBE1814:
 8310              	.LBE1818:
 8311              	.LBE1860:
 199:legacy_engine.h ****     compressor.SetRatio(5.0f);
 8312              		.loc 11 199 5 is_stmt 1 view .LVU2552
 8313              	.LBB1861:
 8314              	.LBI1847:
 137:../temp_time_machine/DaisyExamples/DaisySP//DaisySP-LGPL/Source/Dynamics/compressor.h ****     {
 8315              		.loc 12 137 10 view .LVU2553
 8316              	.LBB1856:
 139:../temp_time_machine/DaisyExamples/DaisySP//DaisySP-LGPL/Source/Dynamics/compressor.h ****         RecalculateRelease();
 8317              		.loc 12 139 9 view .LVU2554
 140:../temp_time_machine/DaisyExamples/DaisySP//DaisySP-LGPL/Source/Dynamics/compressor.h ****     }
 8318              		.loc 12 140 9 view .LVU2555
 8319              	.LBB1853:
 8320              	.LBI1849:
 196:../temp_time_machine/DaisyExamples/DaisySP//DaisySP-LGPL/Source/Dynamics/compressor.h **** 
 8321              		.loc 12 196 10 view .LVU2556
 8322              	.LBB1851:
 196:../temp_time_machine/DaisyExamples/DaisySP//DaisySP-LGPL/Source/Dynamics/compressor.h **** 
 8323              		.loc 12 196 33 view .LVU2557
 196:../temp_time_machine/DaisyExamples/DaisySP//DaisySP-LGPL/Source/Dynamics/compressor.h **** 
 8324              		.loc 12 196 48 is_stmt 0 view .LVU2558
 8325 05da B1EE400A 		vneg.f32	s0, s0
 8326 05de FFF7FEFF 		bl	expf
ARM GAS  /var/folders/v1/156fk8j97zv9pzndh61fy7zm0000gn/T//ccyHp6tG.s 			page 224


 8327              	.LVL504:
 8328              	.LBE1851:
 8329              	.LBE1853:
 8330              	.LBE1856:
 8331              	.LBE1861:
 8332              	.LBB1862:
 8333              	.LBB1819:
 8334              	.LBB1815:
 8335              	.LBB1811:
 8336              	.LBB1807:
 8337              	.LBB1806:
 185:../temp_time_machine/DaisyExamples/DaisySP//DaisySP-LGPL/Source/Dynamics/compressor.h ****     }
 8338              		.loc 12 185 29 view .LVU2559
 8339 05e2 78EEC88A 		vsub.f32	s17, s17, s16
 8340              	.LBE1806:
 8341              	.LBE1807:
 8342              	.LBE1811:
 8343              	.LBE1815:
 8344              	.LBE1819:
 8345              	.LBE1862:
 8346              	.LBB1863:
 8347              	.LBB1864:
 8348              	.LBB1865:
 8349              	.LBB1866:
 185:../temp_time_machine/DaisyExamples/DaisySP//DaisySP-LGPL/Source/Dynamics/compressor.h ****     }
 8350              		.loc 12 185 42 view .LVU2560
 8351 05e6 DFED1D7A 		vldr.32	s15, .L340+52
 8352              	.LBE1866:
 8353              	.LBE1865:
 103:../temp_time_machine/DaisyExamples/DaisySP//DaisySP-LGPL/Source/Dynamics/compressor.h ****         RecalculateRatio();
 8354              		.loc 12 103 16 view .LVU2561
 8355 05ea 1D4A     		ldr	r2, .L340+56
 8356              	.LBB1870:
 8357              	.LBB1867:
 185:../temp_time_machine/DaisyExamples/DaisySP//DaisySP-LGPL/Source/Dynamics/compressor.h ****     }
 8358              		.loc 12 185 42 view .LVU2562
 8359 05ec 68EEA78A 		vmul.f32	s17, s17, s15
 8360              	.LBE1867:
 8361              	.LBE1870:
 8362              	.LBE1864:
 8363              	.LBE1863:
 8364              	.LBB1875:
 8365              	.LBB1857:
 8366              	.LBB1854:
 8367              	.LBB1852:
 196:../temp_time_machine/DaisyExamples/DaisySP//DaisySP-LGPL/Source/Dynamics/compressor.h **** 
 8368              		.loc 12 196 42 discriminator 1 view .LVU2563
 8369 05f0 84ED140A 		vstr.32	s0, [r4, #80]
 8370              	.LVL505:
 196:../temp_time_machine/DaisyExamples/DaisySP//DaisySP-LGPL/Source/Dynamics/compressor.h **** 
 8371              		.loc 12 196 42 discriminator 1 view .LVU2564
 8372              	.LBE1852:
 8373              	.LBE1854:
 8374              	.LBE1857:
 8375              	.LBE1875:
 200:legacy_engine.h ****     compressor.SetThreshold(0.0f); // 0dB? Original was 0.0.
 8376              		.loc 11 200 5 is_stmt 1 view .LVU2565
ARM GAS  /var/folders/v1/156fk8j97zv9pzndh61fy7zm0000gn/T//ccyHp6tG.s 			page 225


 8377              	.LBB1876:
 8378              	.LBI1863:
 101:../temp_time_machine/DaisyExamples/DaisySP//DaisySP-LGPL/Source/Dynamics/compressor.h ****     {
 8379              		.loc 12 101 10 view .LVU2566
 8380              	.LBB1873:
 103:../temp_time_machine/DaisyExamples/DaisySP//DaisySP-LGPL/Source/Dynamics/compressor.h ****         RecalculateRatio();
 8381              		.loc 12 103 9 view .LVU2567
 103:../temp_time_machine/DaisyExamples/DaisySP//DaisySP-LGPL/Source/Dynamics/compressor.h ****         RecalculateRatio();
 8382              		.loc 12 103 16 is_stmt 0 view .LVU2568
 8383 05f4 6262     		str	r2, [r4, #36]	@ float
 104:../temp_time_machine/DaisyExamples/DaisySP//DaisySP-LGPL/Source/Dynamics/compressor.h ****     }
 8384              		.loc 12 104 9 is_stmt 1 view .LVU2569
 8385              	.LVL506:
 8386              	.LBB1871:
 8387              	.LBI1865:
 183:../temp_time_machine/DaisyExamples/DaisySP//DaisySP-LGPL/Source/Dynamics/compressor.h ****     {
 8388              		.loc 12 183 10 view .LVU2570
 8389              	.LBB1868:
 185:../temp_time_machine/DaisyExamples/DaisySP//DaisySP-LGPL/Source/Dynamics/compressor.h ****     }
 8390              		.loc 12 185 9 view .LVU2571
 185:../temp_time_machine/DaisyExamples/DaisySP//DaisySP-LGPL/Source/Dynamics/compressor.h ****     }
 8391              		.loc 12 185 9 is_stmt 0 view .LVU2572
 8392              	.LBE1868:
 8393              	.LBE1871:
 8394              	.LBE1873:
 8395              	.LBE1876:
 201:legacy_engine.h ****   }
 8396              		.loc 11 201 5 is_stmt 1 view .LVU2573
 8397              	.LBB1877:
 8398              	.LBI1877:
 113:../temp_time_machine/DaisyExamples/DaisySP//DaisySP-LGPL/Source/Dynamics/compressor.h ****     {
 8399              		.loc 12 113 10 view .LVU2574
 8400              	.LBB1878:
 115:../temp_time_machine/DaisyExamples/DaisySP//DaisySP-LGPL/Source/Dynamics/compressor.h ****         RecalculateMakeup();
 8401              		.loc 12 115 9 view .LVU2575
 116:../temp_time_machine/DaisyExamples/DaisySP//DaisySP-LGPL/Source/Dynamics/compressor.h ****     }
 8402              		.loc 12 116 9 view .LVU2576
 8403              	.LBB1879:
 8404              	.LBI1879:
 198:../temp_time_machine/DaisyExamples/DaisySP//DaisySP-LGPL/Source/Dynamics/compressor.h ****     {
 8405              		.loc 12 198 10 view .LVU2577
 8406              	.LBB1880:
 200:../temp_time_machine/DaisyExamples/DaisySP//DaisySP-LGPL/Source/Dynamics/compressor.h ****             makeup_gain_ = fabsf(thresh_ - thresh_ / ratio_) * 0.5f;
 8407              		.loc 12 200 9 view .LVU2578
 8408 05f6 9BF8DC24 		ldrb	r2, [fp, #1244]	@ zero_extendqisi2
 8409              	.LBE1880:
 8410              	.LBE1879:
 115:../temp_time_machine/DaisyExamples/DaisySP//DaisySP-LGPL/Source/Dynamics/compressor.h ****         RecalculateMakeup();
 8411              		.loc 12 115 17 is_stmt 0 view .LVU2579
 8412 05fa A662     		str	r6, [r4, #40]	@ float
 8413              	.LBE1878:
 8414              	.LBE1877:
 8415              	.LBB1886:
 8416              	.LBB1874:
 8417              	.LBB1872:
 8418              	.LBB1869:
 185:../temp_time_machine/DaisyExamples/DaisySP//DaisySP-LGPL/Source/Dynamics/compressor.h ****     }
ARM GAS  /var/folders/v1/156fk8j97zv9pzndh61fy7zm0000gn/T//ccyHp6tG.s 			page 226


 8419              		.loc 12 185 20 view .LVU2580
 8420 05fc C4ED128A 		vstr.32	s17, [r4, #72]
 8421              	.LBE1869:
 8422              	.LBE1872:
 8423              	.LBE1874:
 8424              	.LBE1886:
 8425              	.LBB1887:
 8426              	.LBB1885:
 8427              	.LBB1884:
 8428              	.LBB1883:
 200:../temp_time_machine/DaisyExamples/DaisySP//DaisySP-LGPL/Source/Dynamics/compressor.h ****             makeup_gain_ = fabsf(thresh_ - thresh_ / ratio_) * 0.5f;
 8429              		.loc 12 200 9 view .LVU2581
 8430 0600 002A     		cmp	r2, #0
 8431 0602 3FF44DAD 		beq	.L283
 8432              	.LVL507:
 8433              	.LBB1881:
 8434              	.LBI1881:
 198:../temp_time_machine/DaisyExamples/DaisySP//DaisySP-LGPL/Source/Dynamics/compressor.h ****     {
 8435              		.loc 12 198 10 is_stmt 1 view .LVU2582
 8436              	.LBB1882:
 8437              		.loc 12 201 13 view .LVU2583
 8438              		.loc 12 201 26 is_stmt 0 view .LVU2584
 8439 0606 6663     		str	r6, [r4, #52]	@ float
 8440              	.LVL508:
 202:../temp_time_machine/DaisyExamples/DaisySP//DaisySP-LGPL/Source/Dynamics/compressor.h ****     }
 8441              		.loc 12 202 5 view .LVU2585
 8442 0608 4AE5     		b	.L283
 8443              	.LVL509:
 8444              	.L329:
 8445              		.loc 12 202 5 view .LVU2586
 8446              	.LBE1882:
 8447              	.LBE1881:
 8448              	.LBE1883:
 8449              	.LBE1884:
 8450              	.LBE1885:
 8451              	.LBE1887:
 8452              	.LBE1775:
 8453              	.LBE1774:
 8454              	.LBE1650:
 8455              	.LBE1649:
 8456              	.LBE1968:
 103:main.cpp      ****     current_mode = APP_RESONATOR;
 8457              		.loc 1 103 10 is_stmt 1 view .LVU2587
 8458 060a 9FED197A 		vldr.32	s14, .L340+72
 104:main.cpp      ****   } else {
 8459              		.loc 1 104 18 is_stmt 0 view .LVU2588
 8460 060e 194A     		ldr	r2, .L340+76
 103:main.cpp      ****     current_mode = APP_RESONATOR;
 8461              		.loc 1 103 10 view .LVU2589
 8462 0610 B4EEC70A 		vcmpe.f32	s0, s14
 8463 0614 1849     		ldr	r1, .L340+80
 104:main.cpp      ****   } else {
 8464              		.loc 1 104 18 view .LVU2590
 8465 0616 0092     		str	r2, [sp]
 104:main.cpp      ****   } else {
 8466              		.loc 1 104 5 is_stmt 1 view .LVU2591
 8467 0618 0191     		str	r1, [sp, #4]
ARM GAS  /var/folders/v1/156fk8j97zv9pzndh61fy7zm0000gn/T//ccyHp6tG.s 			page 227


 103:main.cpp      ****     current_mode = APP_RESONATOR;
 8468              		.loc 1 103 10 is_stmt 0 view .LVU2592
 8469 061a F1EE10FA 		vmrs	APSR_nzcv, FPSCR
 104:main.cpp      ****   } else {
 8470              		.loc 1 104 18 view .LVU2593
 8471 061e 4CBF     		ite	mi
 8472 0620 0323     		movmi	r3, #3
 106:main.cpp      ****   }
 8473              		.loc 1 106 5 is_stmt 1 view .LVU2594
 106:main.cpp      ****   }
 8474              		.loc 1 106 18 is_stmt 0 view .LVU2595
 8475 0622 0423     		movpl	r3, #4
 8476 0624 1370     		strb	r3, [r2]
 8477 0626 16E5     		b	.L267
 8478              	.L341:
 8479              		.align	2
 8480              	.L340:
 8481 0628 00000000 		.word	res_engine
 8482 062c 0000DC43 		.word	1138491392
 8483 0630 84050000 		.word	res_engine+1412
 8484 0634 0000DC42 		.word	1121714176
 8485 0638 00001643 		.word	1125515264
 8486 063c 00000000 		.word	big_sdram_buffer
 8487 0640 00000000 		.word	legacy_engine
 8488 0644 6F12833A 		.word	981668463
 8489 0648 30020000 		.word	legacy_engine+560
 8490 064c 0AD7233C 		.word	1008981770
 8491 0650 0AD7A33C 		.word	1017370378
 8492 0654 17B7D138 		.word	953267991
 8493 0658 CDCC4C3E 		.word	1045220557
 8494 065c CDCC4CBF 		.word	-1085485875
 8495 0660 0000A040 		.word	1084227584
 8496 0664 5C040000 		.word	legacy_engine+1116
 8497 0668 80C3C901 		.word	big_sdram_buffer+30000000
 8498 066c 7C040000 		.word	legacy_engine+1148
 8499 0670 CDCC4C3F 		.word	1061997773
 8500 0674 00000000 		.word	current_mode
 8501 0678 00200400 		.word	fdn_engine+270336
 8502              		.cfi_endproc
 8503              	.LFE4991:
 8505              		.section	.text.startup._GLOBAL__sub_I_hw,"ax",%progbits
 8506              		.align	1
 8507              		.p2align 2,,3
 8508              		.syntax unified
 8509              		.thumb
 8510              		.thumb_func
 8512              	_GLOBAL__sub_I_hw:
 8513              	.LFB5616:
 220:main.cpp      ****   }
 221:main.cpp      **** }
 8514              		.loc 1 221 1 is_stmt 1 view -0
 8515              		.cfi_startproc
 8516              		@ args = 0, pretend = 0, frame = 0
 8517              		@ frame_needed = 0, uses_anonymous_args = 0
 8518              	.LBB2030:
 8519              	.LBI2030:
 8520              		.loc 1 221 1 view .LVU2597
ARM GAS  /var/folders/v1/156fk8j97zv9pzndh61fy7zm0000gn/T//ccyHp6tG.s 			page 228


 8521              	.LVL510:
 8522              	.LBB2031:
 8523              	.LBB2032:
 8524              	.LBI2032:
  86:time_machine_hardware.h ****         ~TimeMachineHardware() {}
 8525              		.loc 2 86 9 view .LVU2598
 8526              	.LBB2033:
 8527              	.LBB2034:
 8528              	.LBI2034:
  96:../temp_time_machine/DaisyExamples/libDaisy/src/sys/system.h ****     ~System() {}
 8529              		.loc 8 96 5 view .LVU2599
  96:../temp_time_machine/DaisyExamples/libDaisy/src/sys/system.h ****     ~System() {}
 8530              		.loc 8 96 5 is_stmt 0 view .LVU2600
 8531              	.LBE2034:
 8532              	.LBB2035:
 8533              	.LBI2035:
 8534              		.file 19 "../temp_time_machine/DaisyExamples/libDaisy/src/per/qspi.h"
   1:../temp_time_machine/DaisyExamples/libDaisy/src/per/qspi.h **** #ifndef DSY_QSPI
   2:../temp_time_machine/DaisyExamples/libDaisy/src/per/qspi.h **** #define DSY_QSPI /**< Macro */
   3:../temp_time_machine/DaisyExamples/libDaisy/src/per/qspi.h **** 
   4:../temp_time_machine/DaisyExamples/libDaisy/src/per/qspi.h **** #ifndef UNIT_TEST // for unit tests, a dummy implementation
   5:../temp_time_machine/DaisyExamples/libDaisy/src/per/qspi.h **** 
   6:../temp_time_machine/DaisyExamples/libDaisy/src/per/qspi.h **** #include <cstdint>
   7:../temp_time_machine/DaisyExamples/libDaisy/src/per/qspi.h **** #include "daisy_core.h" // Added for dsy_gpio_pin typedef
   8:../temp_time_machine/DaisyExamples/libDaisy/src/per/qspi.h **** 
   9:../temp_time_machine/DaisyExamples/libDaisy/src/per/qspi.h **** #define DSY_QSPI_TEXT       \
  10:../temp_time_machine/DaisyExamples/libDaisy/src/per/qspi.h ****     __attribute__((section( \
  11:../temp_time_machine/DaisyExamples/libDaisy/src/per/qspi.h ****         ".qspiflash_text"))) /**< used for reading memory in memory_mapped mode. */
  12:../temp_time_machine/DaisyExamples/libDaisy/src/per/qspi.h **** #define DSY_QSPI_DATA       \
  13:../temp_time_machine/DaisyExamples/libDaisy/src/per/qspi.h ****     __attribute__((section( \
  14:../temp_time_machine/DaisyExamples/libDaisy/src/per/qspi.h ****         ".qspiflash_data"))) /**< used for reading memory in memory_mapped mode. */
  15:../temp_time_machine/DaisyExamples/libDaisy/src/per/qspi.h **** #define DSY_QSPI_BSS        \
  16:../temp_time_machine/DaisyExamples/libDaisy/src/per/qspi.h ****     __attribute__((section( \
  17:../temp_time_machine/DaisyExamples/libDaisy/src/per/qspi.h ****         ".qspiflash_bss"))) /**< used for reading memory in memory_mapped mode. */
  18:../temp_time_machine/DaisyExamples/libDaisy/src/per/qspi.h **** 
  19:../temp_time_machine/DaisyExamples/libDaisy/src/per/qspi.h **** namespace daisy
  20:../temp_time_machine/DaisyExamples/libDaisy/src/per/qspi.h **** {
  21:../temp_time_machine/DaisyExamples/libDaisy/src/per/qspi.h **** /** @addtogroup serial
  22:../temp_time_machine/DaisyExamples/libDaisy/src/per/qspi.h **** @{
  23:../temp_time_machine/DaisyExamples/libDaisy/src/per/qspi.h **** */
  24:../temp_time_machine/DaisyExamples/libDaisy/src/per/qspi.h **** 
  25:../temp_time_machine/DaisyExamples/libDaisy/src/per/qspi.h **** /** 
  26:../temp_time_machine/DaisyExamples/libDaisy/src/per/qspi.h ****  Driver for QSPI peripheral to interface with external flash memory. \n 
  27:../temp_time_machine/DaisyExamples/libDaisy/src/per/qspi.h ****     Currently supported QSPI Devices: \n 
  28:../temp_time_machine/DaisyExamples/libDaisy/src/per/qspi.h ****     * IS25LP080D
  29:../temp_time_machine/DaisyExamples/libDaisy/src/per/qspi.h **** */
  30:../temp_time_machine/DaisyExamples/libDaisy/src/per/qspi.h **** class QSPIHandle
  31:../temp_time_machine/DaisyExamples/libDaisy/src/per/qspi.h **** {
  32:../temp_time_machine/DaisyExamples/libDaisy/src/per/qspi.h ****   public:
  33:../temp_time_machine/DaisyExamples/libDaisy/src/per/qspi.h ****     enum Result
  34:../temp_time_machine/DaisyExamples/libDaisy/src/per/qspi.h ****     {
  35:../temp_time_machine/DaisyExamples/libDaisy/src/per/qspi.h ****         OK = 0,
  36:../temp_time_machine/DaisyExamples/libDaisy/src/per/qspi.h ****         ERR
  37:../temp_time_machine/DaisyExamples/libDaisy/src/per/qspi.h ****     };
  38:../temp_time_machine/DaisyExamples/libDaisy/src/per/qspi.h **** 
  39:../temp_time_machine/DaisyExamples/libDaisy/src/per/qspi.h ****     /** Indicates the current status of the module. 
  40:../temp_time_machine/DaisyExamples/libDaisy/src/per/qspi.h ****          *  Warnings are indicated by a leading W.
ARM GAS  /var/folders/v1/156fk8j97zv9pzndh61fy7zm0000gn/T//ccyHp6tG.s 			page 229


  41:../temp_time_machine/DaisyExamples/libDaisy/src/per/qspi.h ****          *  Errors are indicated by a leading E and cause an immediate exit.
  42:../temp_time_machine/DaisyExamples/libDaisy/src/per/qspi.h ****          * 
  43:../temp_time_machine/DaisyExamples/libDaisy/src/per/qspi.h ****          *  \param GOOD - No errors have been reported.
  44:../temp_time_machine/DaisyExamples/libDaisy/src/per/qspi.h ****          *  \param E_HAL_ERROR - HAL code did not return HAL_OK.
  45:../temp_time_machine/DaisyExamples/libDaisy/src/per/qspi.h ****          *  \param E_SWITCHING_MODES - An error was encountered while switching QSPI peripheral mod
  46:../temp_time_machine/DaisyExamples/libDaisy/src/per/qspi.h ****          *  \param E_INVALID_MODE - QSPI should not be written to while the program is executing fr
  47:../temp_time_machine/DaisyExamples/libDaisy/src/per/qspi.h ****          */
  48:../temp_time_machine/DaisyExamples/libDaisy/src/per/qspi.h ****     enum Status
  49:../temp_time_machine/DaisyExamples/libDaisy/src/per/qspi.h ****     {
  50:../temp_time_machine/DaisyExamples/libDaisy/src/per/qspi.h ****         GOOD = 0,
  51:../temp_time_machine/DaisyExamples/libDaisy/src/per/qspi.h ****         E_HAL_ERROR,
  52:../temp_time_machine/DaisyExamples/libDaisy/src/per/qspi.h ****         E_SWITCHING_MODES,
  53:../temp_time_machine/DaisyExamples/libDaisy/src/per/qspi.h ****         E_INVALID_MODE,
  54:../temp_time_machine/DaisyExamples/libDaisy/src/per/qspi.h ****     };
  55:../temp_time_machine/DaisyExamples/libDaisy/src/per/qspi.h **** 
  56:../temp_time_machine/DaisyExamples/libDaisy/src/per/qspi.h ****     /** Configuration structure for interfacing with QSPI Driver */
  57:../temp_time_machine/DaisyExamples/libDaisy/src/per/qspi.h ****     struct Config
  58:../temp_time_machine/DaisyExamples/libDaisy/src/per/qspi.h ****     {
  59:../temp_time_machine/DaisyExamples/libDaisy/src/per/qspi.h ****         /** Flash Devices supported. (Both of these are more-or-less the same, just different sizes
  60:../temp_time_machine/DaisyExamples/libDaisy/src/per/qspi.h ****         enum Device
  61:../temp_time_machine/DaisyExamples/libDaisy/src/per/qspi.h ****         {
  62:../temp_time_machine/DaisyExamples/libDaisy/src/per/qspi.h ****             IS25LP080D,  /**< & */
  63:../temp_time_machine/DaisyExamples/libDaisy/src/per/qspi.h ****             IS25LP064A,  /**< & */
  64:../temp_time_machine/DaisyExamples/libDaisy/src/per/qspi.h ****             DEVICE_LAST, /**< & */
  65:../temp_time_machine/DaisyExamples/libDaisy/src/per/qspi.h ****         };
  66:../temp_time_machine/DaisyExamples/libDaisy/src/per/qspi.h **** 
  67:../temp_time_machine/DaisyExamples/libDaisy/src/per/qspi.h ****         /** 
  68:../temp_time_machine/DaisyExamples/libDaisy/src/per/qspi.h ****         Modes of operation.
  69:../temp_time_machine/DaisyExamples/libDaisy/src/per/qspi.h ****         Memory Mapped mode: QSPI configured so that the QSPI can be
  70:../temp_time_machine/DaisyExamples/libDaisy/src/per/qspi.h ****         read from starting address 0x90000000. Writing is not
  71:../temp_time_machine/DaisyExamples/libDaisy/src/per/qspi.h ****         possible in this mode. \n 
  72:../temp_time_machine/DaisyExamples/libDaisy/src/per/qspi.h ****         Indirect Polling mode: Device driver enabled. 
  73:../temp_time_machine/DaisyExamples/libDaisy/src/per/qspi.h ****         */
  74:../temp_time_machine/DaisyExamples/libDaisy/src/per/qspi.h ****         enum Mode
  75:../temp_time_machine/DaisyExamples/libDaisy/src/per/qspi.h ****         {
  76:../temp_time_machine/DaisyExamples/libDaisy/src/per/qspi.h ****             MEMORY_MAPPED,    /**< & */
  77:../temp_time_machine/DaisyExamples/libDaisy/src/per/qspi.h ****             INDIRECT_POLLING, /**< & */
  78:../temp_time_machine/DaisyExamples/libDaisy/src/per/qspi.h ****             MODE_LAST,
  79:../temp_time_machine/DaisyExamples/libDaisy/src/per/qspi.h ****         };
  80:../temp_time_machine/DaisyExamples/libDaisy/src/per/qspi.h **** 
  81:../temp_time_machine/DaisyExamples/libDaisy/src/per/qspi.h ****         //SCK,  CE# (active low)
  82:../temp_time_machine/DaisyExamples/libDaisy/src/per/qspi.h ****         struct
  83:../temp_time_machine/DaisyExamples/libDaisy/src/per/qspi.h ****         {
  84:../temp_time_machine/DaisyExamples/libDaisy/src/per/qspi.h ****             dsy_gpio_pin io0; /**< & */
  85:../temp_time_machine/DaisyExamples/libDaisy/src/per/qspi.h ****             dsy_gpio_pin io1; /**< & */
  86:../temp_time_machine/DaisyExamples/libDaisy/src/per/qspi.h ****             dsy_gpio_pin io2; /**< & */
  87:../temp_time_machine/DaisyExamples/libDaisy/src/per/qspi.h ****             dsy_gpio_pin io3; /**< & */
  88:../temp_time_machine/DaisyExamples/libDaisy/src/per/qspi.h ****             dsy_gpio_pin clk; /**< & */
  89:../temp_time_machine/DaisyExamples/libDaisy/src/per/qspi.h ****             dsy_gpio_pin ncs; /**< & */
  90:../temp_time_machine/DaisyExamples/libDaisy/src/per/qspi.h ****         } pin_config;
  91:../temp_time_machine/DaisyExamples/libDaisy/src/per/qspi.h **** 
  92:../temp_time_machine/DaisyExamples/libDaisy/src/per/qspi.h ****         Device device;
  93:../temp_time_machine/DaisyExamples/libDaisy/src/per/qspi.h ****         Mode   mode;
  94:../temp_time_machine/DaisyExamples/libDaisy/src/per/qspi.h ****     };
  95:../temp_time_machine/DaisyExamples/libDaisy/src/per/qspi.h **** 
  96:../temp_time_machine/DaisyExamples/libDaisy/src/per/qspi.h ****     /** 
  97:../temp_time_machine/DaisyExamples/libDaisy/src/per/qspi.h ****         Initializes QSPI peripheral, and Resets, and prepares memory for access.
ARM GAS  /var/folders/v1/156fk8j97zv9pzndh61fy7zm0000gn/T//ccyHp6tG.s 			page 230


  98:../temp_time_machine/DaisyExamples/libDaisy/src/per/qspi.h ****         \param config should be populated with the mode, device and pin_config before calling this 
  99:../temp_time_machine/DaisyExamples/libDaisy/src/per/qspi.h ****         \return Result::OK or Result::ERR
 100:../temp_time_machine/DaisyExamples/libDaisy/src/per/qspi.h ****         */
 101:../temp_time_machine/DaisyExamples/libDaisy/src/per/qspi.h ****     Result Init(const Config& config);
 102:../temp_time_machine/DaisyExamples/libDaisy/src/per/qspi.h **** 
 103:../temp_time_machine/DaisyExamples/libDaisy/src/per/qspi.h ****     /** Returns the current config. */
 104:../temp_time_machine/DaisyExamples/libDaisy/src/per/qspi.h ****     const Config& GetConfig() const;
 105:../temp_time_machine/DaisyExamples/libDaisy/src/per/qspi.h **** 
 106:../temp_time_machine/DaisyExamples/libDaisy/src/per/qspi.h ****     // Couldn't this just be called before anything else in init? That
 107:../temp_time_machine/DaisyExamples/libDaisy/src/per/qspi.h ****     // would make manually calling it unnecessary.
 108:../temp_time_machine/DaisyExamples/libDaisy/src/per/qspi.h ****     /** 
 109:../temp_time_machine/DaisyExamples/libDaisy/src/per/qspi.h ****         Deinitializes the peripheral
 110:../temp_time_machine/DaisyExamples/libDaisy/src/per/qspi.h ****         This should be called before reinitializing QSPI in a different mode.
 111:../temp_time_machine/DaisyExamples/libDaisy/src/per/qspi.h ****         \return Result::OK or Result::ERR
 112:../temp_time_machine/DaisyExamples/libDaisy/src/per/qspi.h ****         */
 113:../temp_time_machine/DaisyExamples/libDaisy/src/per/qspi.h ****     Result DeInit();
 114:../temp_time_machine/DaisyExamples/libDaisy/src/per/qspi.h **** 
 115:../temp_time_machine/DaisyExamples/libDaisy/src/per/qspi.h ****     /** 
 116:../temp_time_machine/DaisyExamples/libDaisy/src/per/qspi.h ****         Writes a single page to to the specified address on the QSPI chip.
 117:../temp_time_machine/DaisyExamples/libDaisy/src/per/qspi.h ****         For IS25LP*, page size is 256 bytes.
 118:../temp_time_machine/DaisyExamples/libDaisy/src/per/qspi.h ****         \param address Address to write to
 119:../temp_time_machine/DaisyExamples/libDaisy/src/per/qspi.h ****         \param size Buffer size
 120:../temp_time_machine/DaisyExamples/libDaisy/src/per/qspi.h ****         \param buffer Buffer to write
 121:../temp_time_machine/DaisyExamples/libDaisy/src/per/qspi.h ****         \return Result::OK or Result::ERR
 122:../temp_time_machine/DaisyExamples/libDaisy/src/per/qspi.h ****         */
 123:../temp_time_machine/DaisyExamples/libDaisy/src/per/qspi.h ****     Result WritePage(uint32_t address, uint32_t size, uint8_t* buffer);
 124:../temp_time_machine/DaisyExamples/libDaisy/src/per/qspi.h **** 
 125:../temp_time_machine/DaisyExamples/libDaisy/src/per/qspi.h ****     /** 
 126:../temp_time_machine/DaisyExamples/libDaisy/src/per/qspi.h ****         Writes data in buffer to to the QSPI. Starting at address to address+size 
 127:../temp_time_machine/DaisyExamples/libDaisy/src/per/qspi.h ****         \param address Address to write to
 128:../temp_time_machine/DaisyExamples/libDaisy/src/per/qspi.h ****         \param size Buffer size
 129:../temp_time_machine/DaisyExamples/libDaisy/src/per/qspi.h ****         \param buffer Buffer to write
 130:../temp_time_machine/DaisyExamples/libDaisy/src/per/qspi.h ****         \return Result::OK or Result::ERR
 131:../temp_time_machine/DaisyExamples/libDaisy/src/per/qspi.h ****         */
 132:../temp_time_machine/DaisyExamples/libDaisy/src/per/qspi.h ****     Result Write(uint32_t address, uint32_t size, uint8_t* buffer);
 133:../temp_time_machine/DaisyExamples/libDaisy/src/per/qspi.h **** 
 134:../temp_time_machine/DaisyExamples/libDaisy/src/per/qspi.h ****     /** 
 135:../temp_time_machine/DaisyExamples/libDaisy/src/per/qspi.h ****         Erases the area specified on the chip.
 136:../temp_time_machine/DaisyExamples/libDaisy/src/per/qspi.h ****         Erasures will happen by 4K, 32K or 64K increments.
 137:../temp_time_machine/DaisyExamples/libDaisy/src/per/qspi.h ****         Smallest erase possible is 4kB at a time. (on IS25LP*)
 138:../temp_time_machine/DaisyExamples/libDaisy/src/per/qspi.h ****         \param start_addr Address to begin erasing from
 139:../temp_time_machine/DaisyExamples/libDaisy/src/per/qspi.h ****         \param end_addr  Address to stop erasing at
 140:../temp_time_machine/DaisyExamples/libDaisy/src/per/qspi.h ****         \return Result::OK or Result::ERR
 141:../temp_time_machine/DaisyExamples/libDaisy/src/per/qspi.h ****         */
 142:../temp_time_machine/DaisyExamples/libDaisy/src/per/qspi.h ****     Result Erase(uint32_t start_addr, uint32_t end_addr);
 143:../temp_time_machine/DaisyExamples/libDaisy/src/per/qspi.h **** 
 144:../temp_time_machine/DaisyExamples/libDaisy/src/per/qspi.h ****     /**  
 145:../temp_time_machine/DaisyExamples/libDaisy/src/per/qspi.h ****          Erases a single sector of the chip.  
 146:../temp_time_machine/DaisyExamples/libDaisy/src/per/qspi.h ****         TODO: Document the size of this function. 
 147:../temp_time_machine/DaisyExamples/libDaisy/src/per/qspi.h ****         \param address Address of sector to erase
 148:../temp_time_machine/DaisyExamples/libDaisy/src/per/qspi.h ****         \return Result::OK or Result::ERR
 149:../temp_time_machine/DaisyExamples/libDaisy/src/per/qspi.h ****         */
 150:../temp_time_machine/DaisyExamples/libDaisy/src/per/qspi.h ****     Result EraseSector(uint32_t address);
 151:../temp_time_machine/DaisyExamples/libDaisy/src/per/qspi.h **** 
 152:../temp_time_machine/DaisyExamples/libDaisy/src/per/qspi.h ****     /** Returns the current class status. Useful for debugging.
 153:../temp_time_machine/DaisyExamples/libDaisy/src/per/qspi.h ****      *  \returns Status
 154:../temp_time_machine/DaisyExamples/libDaisy/src/per/qspi.h ****      */
ARM GAS  /var/folders/v1/156fk8j97zv9pzndh61fy7zm0000gn/T//ccyHp6tG.s 			page 231


 155:../temp_time_machine/DaisyExamples/libDaisy/src/per/qspi.h ****     Status GetStatus();
 156:../temp_time_machine/DaisyExamples/libDaisy/src/per/qspi.h **** 
 157:../temp_time_machine/DaisyExamples/libDaisy/src/per/qspi.h ****     /** Returns a pointer to the actual memory used 
 158:../temp_time_machine/DaisyExamples/libDaisy/src/per/qspi.h ****      *  The memory at this address is read-only
 159:../temp_time_machine/DaisyExamples/libDaisy/src/per/qspi.h ****      *  to write to it use the Write function.
 160:../temp_time_machine/DaisyExamples/libDaisy/src/per/qspi.h ****      * 
 161:../temp_time_machine/DaisyExamples/libDaisy/src/per/qspi.h ****      *  \param offset returns the pointer starting this 
 162:../temp_time_machine/DaisyExamples/libDaisy/src/per/qspi.h ****      *                many bytes into the memory
 163:../temp_time_machine/DaisyExamples/libDaisy/src/per/qspi.h ****     */
 164:../temp_time_machine/DaisyExamples/libDaisy/src/per/qspi.h ****     void* GetData(uint32_t offset = 0);
 165:../temp_time_machine/DaisyExamples/libDaisy/src/per/qspi.h **** 
 166:../temp_time_machine/DaisyExamples/libDaisy/src/per/qspi.h ****     QSPIHandle() : pimpl_(nullptr) {}
 8535              		.loc 19 166 5 is_stmt 1 view .LVU2601
 8536              	.LBE2035:
 8537              	.LBE2033:
 8538              	.LBE2032:
 8539              	.LBE2031:
 8540              	.LBE2030:
 8541              		.loc 1 221 1 is_stmt 0 view .LVU2602
 8542 0000 70B5     		push	{r4, r5, r6, lr}
 8543              		.cfi_def_cfa_offset 16
 8544              		.cfi_offset 4, -16
 8545              		.cfi_offset 5, -12
 8546              		.cfi_offset 6, -8
 8547              		.cfi_offset 14, -4
 8548              	.LBB2151:
 8549              	.LBB2149:
 8550              	.LBB2134:
 8551              	.LBB2130:
 8552              	.LBB2038:
 8553              	.LBB2036:
 8554              	.LBB2037:
 8555              		.loc 19 166 20 view .LVU2603
 8556 0002 2049     		ldr	r1, .L344
 8557 0004 0024     		movs	r4, #0
 8558              	.LBE2037:
 8559              	.LBE2036:
 8560              	.LBE2038:
 8561              	.LBB2039:
 8562              	.LBB2040:
 8563              	.LBB2041:
 8564              	.LBB2042:
 8565              	.LBB2043:
 8566              	.LBB2044:
 8567              	.LBB2045:
 8568              	.LBB2046:
 8569              	.LBB2047:
 8570              	.LBB2048:
 8571              		.file 20 "../temp_time_machine/DaisyExamples/libDaisy/src/daisy_core.h"
   1:../temp_time_machine/DaisyExamples/libDaisy/src/daisy_core.h **** #pragma once
   2:../temp_time_machine/DaisyExamples/libDaisy/src/daisy_core.h **** #ifndef DSY_CORE_HW_H
   3:../temp_time_machine/DaisyExamples/libDaisy/src/daisy_core.h **** #define DSY_CORE_HW_H /**< & */
   4:../temp_time_machine/DaisyExamples/libDaisy/src/daisy_core.h **** #include <stdint.h>
   5:../temp_time_machine/DaisyExamples/libDaisy/src/daisy_core.h **** #include <stdlib.h>
   6:../temp_time_machine/DaisyExamples/libDaisy/src/daisy_core.h **** 
   7:../temp_time_machine/DaisyExamples/libDaisy/src/daisy_core.h **** #if defined(_MSC_VER)
   8:../temp_time_machine/DaisyExamples/libDaisy/src/daisy_core.h **** #define FORCE_INLINE __forceinline /**< & */
ARM GAS  /var/folders/v1/156fk8j97zv9pzndh61fy7zm0000gn/T//ccyHp6tG.s 			page 232


   9:../temp_time_machine/DaisyExamples/libDaisy/src/daisy_core.h **** #elif defined(__clang__)
  10:../temp_time_machine/DaisyExamples/libDaisy/src/daisy_core.h **** #define FORCE_INLINE inline __attribute__((always_inline)) /**< & */
  11:../temp_time_machine/DaisyExamples/libDaisy/src/daisy_core.h **** #pragma clang diagnostic ignored "-Wduplicate-decl-specifier"
  12:../temp_time_machine/DaisyExamples/libDaisy/src/daisy_core.h **** #elif defined(__GNUC__)
  13:../temp_time_machine/DaisyExamples/libDaisy/src/daisy_core.h **** #define FORCE_INLINE inline __attribute__((always_inline)) /**< & */
  14:../temp_time_machine/DaisyExamples/libDaisy/src/daisy_core.h **** #else
  15:../temp_time_machine/DaisyExamples/libDaisy/src/daisy_core.h **** #error unknown compiler
  16:../temp_time_machine/DaisyExamples/libDaisy/src/daisy_core.h **** #endif
  17:../temp_time_machine/DaisyExamples/libDaisy/src/daisy_core.h **** 
  18:../temp_time_machine/DaisyExamples/libDaisy/src/daisy_core.h **** /** @addtogroup utility
  19:../temp_time_machine/DaisyExamples/libDaisy/src/daisy_core.h ****     @{
  20:../temp_time_machine/DaisyExamples/libDaisy/src/daisy_core.h **** */
  21:../temp_time_machine/DaisyExamples/libDaisy/src/daisy_core.h **** 
  22:../temp_time_machine/DaisyExamples/libDaisy/src/daisy_core.h **** /** Macro for area of memory that is configured as cacheless
  23:../temp_time_machine/DaisyExamples/libDaisy/src/daisy_core.h **** This should be used primarily for DMA buffers, and the like.
  24:../temp_time_machine/DaisyExamples/libDaisy/src/daisy_core.h **** */
  25:../temp_time_machine/DaisyExamples/libDaisy/src/daisy_core.h **** #define DMA_BUFFER_MEM_SECTION __attribute__((section(".sram1_bss")))
  26:../temp_time_machine/DaisyExamples/libDaisy/src/daisy_core.h **** /** 
  27:../temp_time_machine/DaisyExamples/libDaisy/src/daisy_core.h **** THE DTCM RAM section is also non-cached. However, is not suitable 
  28:../temp_time_machine/DaisyExamples/libDaisy/src/daisy_core.h **** for DMA transfers. Performance is on par with internal SRAM w/ 
  29:../temp_time_machine/DaisyExamples/libDaisy/src/daisy_core.h **** cache enabled.
  30:../temp_time_machine/DaisyExamples/libDaisy/src/daisy_core.h **** */
  31:../temp_time_machine/DaisyExamples/libDaisy/src/daisy_core.h **** #define DTCM_MEM_SECTION __attribute__((section(".dtcmram_bss")))
  32:../temp_time_machine/DaisyExamples/libDaisy/src/daisy_core.h **** 
  33:../temp_time_machine/DaisyExamples/libDaisy/src/daisy_core.h **** #define FBIPMAX 0.999985f             /**< close to 1.0f-LSB at 16 bit */
  34:../temp_time_machine/DaisyExamples/libDaisy/src/daisy_core.h **** #define FBIPMIN (-FBIPMAX)            /**< - (1 - LSB) */
  35:../temp_time_machine/DaisyExamples/libDaisy/src/daisy_core.h **** #define U82F_SCALE 0.0078740f         /**< 1 / 127 */
  36:../temp_time_machine/DaisyExamples/libDaisy/src/daisy_core.h **** #define F2U8_SCALE 127.0f             /**< 128 - 1 */
  37:../temp_time_machine/DaisyExamples/libDaisy/src/daisy_core.h **** #define S82F_SCALE 0.0078125f         /**< 1 / (2**7) */
  38:../temp_time_machine/DaisyExamples/libDaisy/src/daisy_core.h **** #define F2S8_SCALE 127.0f             /**< (2 ** 7) - 1 */
  39:../temp_time_machine/DaisyExamples/libDaisy/src/daisy_core.h **** #define S162F_SCALE 3.0517578125e-05f /**< 1 / (2** 15) */
  40:../temp_time_machine/DaisyExamples/libDaisy/src/daisy_core.h **** #define F2S16_SCALE 32767.0f          /**< (2 ** 15) - 1 */
  41:../temp_time_machine/DaisyExamples/libDaisy/src/daisy_core.h **** #define F2S24_SCALE 8388608.0f        /**< 2 ** 23 */
  42:../temp_time_machine/DaisyExamples/libDaisy/src/daisy_core.h **** #define S242F_SCALE 1.192092896e-07f  /**< 1 / (2 ** 23) */
  43:../temp_time_machine/DaisyExamples/libDaisy/src/daisy_core.h **** #define S24SIGN 0x800000              /**< 2 ** 23 */
  44:../temp_time_machine/DaisyExamples/libDaisy/src/daisy_core.h **** #define S322F_SCALE 4.6566129e-10f    /**< 1 / (2** 31) */
  45:../temp_time_machine/DaisyExamples/libDaisy/src/daisy_core.h **** #define F2S32_SCALE 2147483647.f      /**< (2 ** 31) - 1 */
  46:../temp_time_machine/DaisyExamples/libDaisy/src/daisy_core.h **** 
  47:../temp_time_machine/DaisyExamples/libDaisy/src/daisy_core.h **** 
  48:../temp_time_machine/DaisyExamples/libDaisy/src/daisy_core.h **** /** shorthand macro for simplifying the reading of the left 
  49:../temp_time_machine/DaisyExamples/libDaisy/src/daisy_core.h ****  *  channel of a non-interleaved output buffer named out */
  50:../temp_time_machine/DaisyExamples/libDaisy/src/daisy_core.h **** #define OUT_L out[0]
  51:../temp_time_machine/DaisyExamples/libDaisy/src/daisy_core.h **** 
  52:../temp_time_machine/DaisyExamples/libDaisy/src/daisy_core.h **** /** shorthand macro for simplifying the reading of the right 
  53:../temp_time_machine/DaisyExamples/libDaisy/src/daisy_core.h ****  *  channel of a non-interleaved output buffer named out */
  54:../temp_time_machine/DaisyExamples/libDaisy/src/daisy_core.h **** #define OUT_R out[1]
  55:../temp_time_machine/DaisyExamples/libDaisy/src/daisy_core.h **** 
  56:../temp_time_machine/DaisyExamples/libDaisy/src/daisy_core.h **** /** shorthand macro for simplifying the reading of the left 
  57:../temp_time_machine/DaisyExamples/libDaisy/src/daisy_core.h ****  *  channel of a non-interleaved input buffer named in */
  58:../temp_time_machine/DaisyExamples/libDaisy/src/daisy_core.h **** #define IN_L in[0]
  59:../temp_time_machine/DaisyExamples/libDaisy/src/daisy_core.h **** 
  60:../temp_time_machine/DaisyExamples/libDaisy/src/daisy_core.h **** /** shorthand macro for simplifying the reading of the right 
  61:../temp_time_machine/DaisyExamples/libDaisy/src/daisy_core.h ****  *  channel of a non-interleaved input buffer named in */
  62:../temp_time_machine/DaisyExamples/libDaisy/src/daisy_core.h **** #define IN_R in[1]
  63:../temp_time_machine/DaisyExamples/libDaisy/src/daisy_core.h **** 
  64:../temp_time_machine/DaisyExamples/libDaisy/src/daisy_core.h **** /** 
  65:../temp_time_machine/DaisyExamples/libDaisy/src/daisy_core.h ****     Computes cube.
ARM GAS  /var/folders/v1/156fk8j97zv9pzndh61fy7zm0000gn/T//ccyHp6tG.s 			page 233


  66:../temp_time_machine/DaisyExamples/libDaisy/src/daisy_core.h ****     \param x Number to be cubed
  67:../temp_time_machine/DaisyExamples/libDaisy/src/daisy_core.h ****     \return x ^ 3
  68:../temp_time_machine/DaisyExamples/libDaisy/src/daisy_core.h **** */
  69:../temp_time_machine/DaisyExamples/libDaisy/src/daisy_core.h **** FORCE_INLINE float cube(float x)
  70:../temp_time_machine/DaisyExamples/libDaisy/src/daisy_core.h **** {
  71:../temp_time_machine/DaisyExamples/libDaisy/src/daisy_core.h ****     return (x * x) * x;
  72:../temp_time_machine/DaisyExamples/libDaisy/src/daisy_core.h **** }
  73:../temp_time_machine/DaisyExamples/libDaisy/src/daisy_core.h **** 
  74:../temp_time_machine/DaisyExamples/libDaisy/src/daisy_core.h **** /** 
  75:../temp_time_machine/DaisyExamples/libDaisy/src/daisy_core.h ****     Converts unsigned 8-bit to float
  76:../temp_time_machine/DaisyExamples/libDaisy/src/daisy_core.h ****     \param x Number to be scaled.
  77:../temp_time_machine/DaisyExamples/libDaisy/src/daisy_core.h ****     \return Scaled number.
  78:../temp_time_machine/DaisyExamples/libDaisy/src/daisy_core.h **** */
  79:../temp_time_machine/DaisyExamples/libDaisy/src/daisy_core.h **** FORCE_INLINE float u82f(uint8_t x)
  80:../temp_time_machine/DaisyExamples/libDaisy/src/daisy_core.h **** {
  81:../temp_time_machine/DaisyExamples/libDaisy/src/daisy_core.h ****     return ((float)x - 127.f) * U82F_SCALE;
  82:../temp_time_machine/DaisyExamples/libDaisy/src/daisy_core.h **** }
  83:../temp_time_machine/DaisyExamples/libDaisy/src/daisy_core.h **** 
  84:../temp_time_machine/DaisyExamples/libDaisy/src/daisy_core.h **** /**
  85:../temp_time_machine/DaisyExamples/libDaisy/src/daisy_core.h ****     Converts float to unsigned 8-bit
  86:../temp_time_machine/DaisyExamples/libDaisy/src/daisy_core.h **** */
  87:../temp_time_machine/DaisyExamples/libDaisy/src/daisy_core.h **** FORCE_INLINE uint8_t f2u8(float x)
  88:../temp_time_machine/DaisyExamples/libDaisy/src/daisy_core.h **** {
  89:../temp_time_machine/DaisyExamples/libDaisy/src/daisy_core.h ****     x = x <= FBIPMIN ? FBIPMIN : x;
  90:../temp_time_machine/DaisyExamples/libDaisy/src/daisy_core.h ****     x = x >= FBIPMAX ? FBIPMAX : x;
  91:../temp_time_machine/DaisyExamples/libDaisy/src/daisy_core.h ****     return (uint8_t)((x * F2U8_SCALE) + F2U8_SCALE);
  92:../temp_time_machine/DaisyExamples/libDaisy/src/daisy_core.h **** }
  93:../temp_time_machine/DaisyExamples/libDaisy/src/daisy_core.h **** 
  94:../temp_time_machine/DaisyExamples/libDaisy/src/daisy_core.h **** 
  95:../temp_time_machine/DaisyExamples/libDaisy/src/daisy_core.h **** /** 
  96:../temp_time_machine/DaisyExamples/libDaisy/src/daisy_core.h ****     Converts Signed 8-bit to float
  97:../temp_time_machine/DaisyExamples/libDaisy/src/daisy_core.h ****     \param x Number to be scaled.
  98:../temp_time_machine/DaisyExamples/libDaisy/src/daisy_core.h ****     \return Scaled number.
  99:../temp_time_machine/DaisyExamples/libDaisy/src/daisy_core.h **** */
 100:../temp_time_machine/DaisyExamples/libDaisy/src/daisy_core.h **** FORCE_INLINE float s82f(int8_t x)
 101:../temp_time_machine/DaisyExamples/libDaisy/src/daisy_core.h **** {
 102:../temp_time_machine/DaisyExamples/libDaisy/src/daisy_core.h ****     return (float)x * S82F_SCALE;
 103:../temp_time_machine/DaisyExamples/libDaisy/src/daisy_core.h **** }
 104:../temp_time_machine/DaisyExamples/libDaisy/src/daisy_core.h **** 
 105:../temp_time_machine/DaisyExamples/libDaisy/src/daisy_core.h **** /**
 106:../temp_time_machine/DaisyExamples/libDaisy/src/daisy_core.h ****     Converts float to Signed 8-bit
 107:../temp_time_machine/DaisyExamples/libDaisy/src/daisy_core.h **** */
 108:../temp_time_machine/DaisyExamples/libDaisy/src/daisy_core.h **** FORCE_INLINE int8_t f2s8(float x)
 109:../temp_time_machine/DaisyExamples/libDaisy/src/daisy_core.h **** {
 110:../temp_time_machine/DaisyExamples/libDaisy/src/daisy_core.h ****     x = x <= FBIPMIN ? FBIPMIN : x;
 111:../temp_time_machine/DaisyExamples/libDaisy/src/daisy_core.h ****     x = x >= FBIPMAX ? FBIPMAX : x;
 112:../temp_time_machine/DaisyExamples/libDaisy/src/daisy_core.h ****     return (int32_t)(x * F2S8_SCALE);
 113:../temp_time_machine/DaisyExamples/libDaisy/src/daisy_core.h **** }
 114:../temp_time_machine/DaisyExamples/libDaisy/src/daisy_core.h **** 
 115:../temp_time_machine/DaisyExamples/libDaisy/src/daisy_core.h **** /** 
 116:../temp_time_machine/DaisyExamples/libDaisy/src/daisy_core.h ****     Converts Signed 16-bit to float
 117:../temp_time_machine/DaisyExamples/libDaisy/src/daisy_core.h ****     \param x Number to be scaled.
 118:../temp_time_machine/DaisyExamples/libDaisy/src/daisy_core.h ****     \return Scaled number.
 119:../temp_time_machine/DaisyExamples/libDaisy/src/daisy_core.h **** */
 120:../temp_time_machine/DaisyExamples/libDaisy/src/daisy_core.h **** FORCE_INLINE float s162f(int16_t x)
 121:../temp_time_machine/DaisyExamples/libDaisy/src/daisy_core.h **** {
 122:../temp_time_machine/DaisyExamples/libDaisy/src/daisy_core.h ****     return (float)x * S162F_SCALE;
ARM GAS  /var/folders/v1/156fk8j97zv9pzndh61fy7zm0000gn/T//ccyHp6tG.s 			page 234


 123:../temp_time_machine/DaisyExamples/libDaisy/src/daisy_core.h **** }
 124:../temp_time_machine/DaisyExamples/libDaisy/src/daisy_core.h **** 
 125:../temp_time_machine/DaisyExamples/libDaisy/src/daisy_core.h **** /**
 126:../temp_time_machine/DaisyExamples/libDaisy/src/daisy_core.h ****     Converts float to Signed 16-bit
 127:../temp_time_machine/DaisyExamples/libDaisy/src/daisy_core.h **** */
 128:../temp_time_machine/DaisyExamples/libDaisy/src/daisy_core.h **** FORCE_INLINE int16_t f2s16(float x)
 129:../temp_time_machine/DaisyExamples/libDaisy/src/daisy_core.h **** {
 130:../temp_time_machine/DaisyExamples/libDaisy/src/daisy_core.h ****     x = x <= FBIPMIN ? FBIPMIN : x;
 131:../temp_time_machine/DaisyExamples/libDaisy/src/daisy_core.h ****     x = x >= FBIPMAX ? FBIPMAX : x;
 132:../temp_time_machine/DaisyExamples/libDaisy/src/daisy_core.h ****     return (int32_t)(x * F2S16_SCALE);
 133:../temp_time_machine/DaisyExamples/libDaisy/src/daisy_core.h **** }
 134:../temp_time_machine/DaisyExamples/libDaisy/src/daisy_core.h **** 
 135:../temp_time_machine/DaisyExamples/libDaisy/src/daisy_core.h **** /**
 136:../temp_time_machine/DaisyExamples/libDaisy/src/daisy_core.h ****     Converts Signed 24-bit to float
 137:../temp_time_machine/DaisyExamples/libDaisy/src/daisy_core.h ****  */
 138:../temp_time_machine/DaisyExamples/libDaisy/src/daisy_core.h **** FORCE_INLINE float s242f(int32_t x)
 139:../temp_time_machine/DaisyExamples/libDaisy/src/daisy_core.h **** {
 140:../temp_time_machine/DaisyExamples/libDaisy/src/daisy_core.h ****     x = (x ^ S24SIGN) - S24SIGN; //sign extend aka ((x<<8)>>8)
 141:../temp_time_machine/DaisyExamples/libDaisy/src/daisy_core.h ****     return (float)x * S242F_SCALE;
 142:../temp_time_machine/DaisyExamples/libDaisy/src/daisy_core.h **** }
 143:../temp_time_machine/DaisyExamples/libDaisy/src/daisy_core.h **** /**
 144:../temp_time_machine/DaisyExamples/libDaisy/src/daisy_core.h ****     Converts float to Signed 24-bit
 145:../temp_time_machine/DaisyExamples/libDaisy/src/daisy_core.h ****  */
 146:../temp_time_machine/DaisyExamples/libDaisy/src/daisy_core.h **** FORCE_INLINE int32_t f2s24(float x)
 147:../temp_time_machine/DaisyExamples/libDaisy/src/daisy_core.h **** {
 148:../temp_time_machine/DaisyExamples/libDaisy/src/daisy_core.h ****     x = x <= FBIPMIN ? FBIPMIN : x;
 149:../temp_time_machine/DaisyExamples/libDaisy/src/daisy_core.h ****     x = x >= FBIPMAX ? FBIPMAX : x;
 150:../temp_time_machine/DaisyExamples/libDaisy/src/daisy_core.h ****     return (int32_t)(x * F2S24_SCALE);
 151:../temp_time_machine/DaisyExamples/libDaisy/src/daisy_core.h **** }
 152:../temp_time_machine/DaisyExamples/libDaisy/src/daisy_core.h **** 
 153:../temp_time_machine/DaisyExamples/libDaisy/src/daisy_core.h **** /**
 154:../temp_time_machine/DaisyExamples/libDaisy/src/daisy_core.h ****     Converts Signed 32-bit to float
 155:../temp_time_machine/DaisyExamples/libDaisy/src/daisy_core.h ****  */
 156:../temp_time_machine/DaisyExamples/libDaisy/src/daisy_core.h **** FORCE_INLINE float s322f(int32_t x)
 157:../temp_time_machine/DaisyExamples/libDaisy/src/daisy_core.h **** {
 158:../temp_time_machine/DaisyExamples/libDaisy/src/daisy_core.h ****     return (float)x * S322F_SCALE;
 159:../temp_time_machine/DaisyExamples/libDaisy/src/daisy_core.h **** }
 160:../temp_time_machine/DaisyExamples/libDaisy/src/daisy_core.h **** /**
 161:../temp_time_machine/DaisyExamples/libDaisy/src/daisy_core.h ****     Converts float to Signed 24-bit
 162:../temp_time_machine/DaisyExamples/libDaisy/src/daisy_core.h ****  */
 163:../temp_time_machine/DaisyExamples/libDaisy/src/daisy_core.h **** FORCE_INLINE int32_t f2s32(float x)
 164:../temp_time_machine/DaisyExamples/libDaisy/src/daisy_core.h **** {
 165:../temp_time_machine/DaisyExamples/libDaisy/src/daisy_core.h ****     x = x <= FBIPMIN ? FBIPMIN : x;
 166:../temp_time_machine/DaisyExamples/libDaisy/src/daisy_core.h ****     x = x >= FBIPMAX ? FBIPMAX : x;
 167:../temp_time_machine/DaisyExamples/libDaisy/src/daisy_core.h ****     return (int32_t)(x * F2S32_SCALE);
 168:../temp_time_machine/DaisyExamples/libDaisy/src/daisy_core.h **** }
 169:../temp_time_machine/DaisyExamples/libDaisy/src/daisy_core.h **** 
 170:../temp_time_machine/DaisyExamples/libDaisy/src/daisy_core.h **** 
 171:../temp_time_machine/DaisyExamples/libDaisy/src/daisy_core.h **** /** Enums and a simple struct for defining a hardware pin on the MCU
 172:../temp_time_machine/DaisyExamples/libDaisy/src/daisy_core.h ****  *  These correlate with the stm32 datasheet, and are used to configure
 173:../temp_time_machine/DaisyExamples/libDaisy/src/daisy_core.h ****  *  the hardware.
 174:../temp_time_machine/DaisyExamples/libDaisy/src/daisy_core.h ****  * 
 175:../temp_time_machine/DaisyExamples/libDaisy/src/daisy_core.h ****  *  This along with the dsy_gpio_pin class should no longer be used.
 176:../temp_time_machine/DaisyExamples/libDaisy/src/daisy_core.h ****  *  They are available for backwards compatability. 
 177:../temp_time_machine/DaisyExamples/libDaisy/src/daisy_core.h ****  * 
 178:../temp_time_machine/DaisyExamples/libDaisy/src/daisy_core.h ****  *  Please use GPIOPort enum and the Pin struct instead.
 179:../temp_time_machine/DaisyExamples/libDaisy/src/daisy_core.h ****  */
ARM GAS  /var/folders/v1/156fk8j97zv9pzndh61fy7zm0000gn/T//ccyHp6tG.s 			page 235


 180:../temp_time_machine/DaisyExamples/libDaisy/src/daisy_core.h **** typedef enum
 181:../temp_time_machine/DaisyExamples/libDaisy/src/daisy_core.h **** {
 182:../temp_time_machine/DaisyExamples/libDaisy/src/daisy_core.h ****     DSY_GPIOA, /**< & */
 183:../temp_time_machine/DaisyExamples/libDaisy/src/daisy_core.h ****     DSY_GPIOB, /**< & */
 184:../temp_time_machine/DaisyExamples/libDaisy/src/daisy_core.h ****     DSY_GPIOC, /**< & */
 185:../temp_time_machine/DaisyExamples/libDaisy/src/daisy_core.h ****     DSY_GPIOD, /**< & */
 186:../temp_time_machine/DaisyExamples/libDaisy/src/daisy_core.h ****     DSY_GPIOE, /**< & */
 187:../temp_time_machine/DaisyExamples/libDaisy/src/daisy_core.h ****     DSY_GPIOF, /**< & */
 188:../temp_time_machine/DaisyExamples/libDaisy/src/daisy_core.h ****     DSY_GPIOG, /**< & */
 189:../temp_time_machine/DaisyExamples/libDaisy/src/daisy_core.h ****     DSY_GPIOH, /**< & */
 190:../temp_time_machine/DaisyExamples/libDaisy/src/daisy_core.h ****     DSY_GPIOI, /**< & */
 191:../temp_time_machine/DaisyExamples/libDaisy/src/daisy_core.h ****     DSY_GPIOJ, /**< & */
 192:../temp_time_machine/DaisyExamples/libDaisy/src/daisy_core.h ****     DSY_GPIOK, /**< & */
 193:../temp_time_machine/DaisyExamples/libDaisy/src/daisy_core.h ****     DSY_GPIOX, /** This is a non-existant port for unsupported bits of hardware. */
 194:../temp_time_machine/DaisyExamples/libDaisy/src/daisy_core.h ****     DSY_GPIO_LAST, /** Final enum member */
 195:../temp_time_machine/DaisyExamples/libDaisy/src/daisy_core.h **** } dsy_gpio_port;
 196:../temp_time_machine/DaisyExamples/libDaisy/src/daisy_core.h **** 
 197:../temp_time_machine/DaisyExamples/libDaisy/src/daisy_core.h **** /** Hardware define pins 
 198:../temp_time_machine/DaisyExamples/libDaisy/src/daisy_core.h ****  *  
 199:../temp_time_machine/DaisyExamples/libDaisy/src/daisy_core.h ****  *  The dsy_gpio_pin struct should no longer be used, and is only available for
 200:../temp_time_machine/DaisyExamples/libDaisy/src/daisy_core.h ****  *  backwards compatability.
 201:../temp_time_machine/DaisyExamples/libDaisy/src/daisy_core.h ****  * 
 202:../temp_time_machine/DaisyExamples/libDaisy/src/daisy_core.h ****  *  Please use Pin struct instead.
 203:../temp_time_machine/DaisyExamples/libDaisy/src/daisy_core.h ****  */
 204:../temp_time_machine/DaisyExamples/libDaisy/src/daisy_core.h **** typedef struct
 205:../temp_time_machine/DaisyExamples/libDaisy/src/daisy_core.h **** {
 206:../temp_time_machine/DaisyExamples/libDaisy/src/daisy_core.h ****     dsy_gpio_port port; /**< & */
 207:../temp_time_machine/DaisyExamples/libDaisy/src/daisy_core.h ****     uint8_t       pin;  /**< number 0-15 */
 208:../temp_time_machine/DaisyExamples/libDaisy/src/daisy_core.h **** } dsy_gpio_pin;
 209:../temp_time_machine/DaisyExamples/libDaisy/src/daisy_core.h **** 
 210:../temp_time_machine/DaisyExamples/libDaisy/src/daisy_core.h **** /** Helper for creating pins from port/pin combos easily
 211:../temp_time_machine/DaisyExamples/libDaisy/src/daisy_core.h ****  * 
 212:../temp_time_machine/DaisyExamples/libDaisy/src/daisy_core.h ****  *  The dsy_gpio_pin struct should no longer be used, and is only available for
 213:../temp_time_machine/DaisyExamples/libDaisy/src/daisy_core.h ****  *  backwards compatability.
 214:../temp_time_machine/DaisyExamples/libDaisy/src/daisy_core.h ****  * 
 215:../temp_time_machine/DaisyExamples/libDaisy/src/daisy_core.h ****  *  Please use Pin struct instead.
 216:../temp_time_machine/DaisyExamples/libDaisy/src/daisy_core.h **** */
 217:../temp_time_machine/DaisyExamples/libDaisy/src/daisy_core.h **** FORCE_INLINE dsy_gpio_pin dsy_pin(dsy_gpio_port port, uint8_t pin)
 218:../temp_time_machine/DaisyExamples/libDaisy/src/daisy_core.h **** {
 219:../temp_time_machine/DaisyExamples/libDaisy/src/daisy_core.h ****     dsy_gpio_pin p;
 220:../temp_time_machine/DaisyExamples/libDaisy/src/daisy_core.h ****     p.port = port;
 221:../temp_time_machine/DaisyExamples/libDaisy/src/daisy_core.h ****     p.pin  = pin;
 222:../temp_time_machine/DaisyExamples/libDaisy/src/daisy_core.h ****     return p;
 223:../temp_time_machine/DaisyExamples/libDaisy/src/daisy_core.h **** }
 224:../temp_time_machine/DaisyExamples/libDaisy/src/daisy_core.h **** 
 225:../temp_time_machine/DaisyExamples/libDaisy/src/daisy_core.h **** /** Helper for testing sameness of two dsy_gpio_pins
 226:../temp_time_machine/DaisyExamples/libDaisy/src/daisy_core.h ****  *  \return    1 if same, 0 if different
 227:../temp_time_machine/DaisyExamples/libDaisy/src/daisy_core.h ****  * 
 228:../temp_time_machine/DaisyExamples/libDaisy/src/daisy_core.h ****  *  The dsy_gpio_pin struct should no longer be used, and is only available for
 229:../temp_time_machine/DaisyExamples/libDaisy/src/daisy_core.h ****  *  backwards compatability.
 230:../temp_time_machine/DaisyExamples/libDaisy/src/daisy_core.h ****  * 
 231:../temp_time_machine/DaisyExamples/libDaisy/src/daisy_core.h ****  *  Please use Pin struct instead.
 232:../temp_time_machine/DaisyExamples/libDaisy/src/daisy_core.h ****  */
 233:../temp_time_machine/DaisyExamples/libDaisy/src/daisy_core.h **** FORCE_INLINE uint8_t dsy_pin_cmp(dsy_gpio_pin *a, dsy_gpio_pin *b)
 234:../temp_time_machine/DaisyExamples/libDaisy/src/daisy_core.h **** {
 235:../temp_time_machine/DaisyExamples/libDaisy/src/daisy_core.h ****     return ((a->port == b->port) && (a->pin == b->pin));
 236:../temp_time_machine/DaisyExamples/libDaisy/src/daisy_core.h **** }
ARM GAS  /var/folders/v1/156fk8j97zv9pzndh61fy7zm0000gn/T//ccyHp6tG.s 			page 236


 237:../temp_time_machine/DaisyExamples/libDaisy/src/daisy_core.h **** 
 238:../temp_time_machine/DaisyExamples/libDaisy/src/daisy_core.h **** #ifdef __cplusplus
 239:../temp_time_machine/DaisyExamples/libDaisy/src/daisy_core.h **** 
 240:../temp_time_machine/DaisyExamples/libDaisy/src/daisy_core.h **** namespace daisy
 241:../temp_time_machine/DaisyExamples/libDaisy/src/daisy_core.h **** {
 242:../temp_time_machine/DaisyExamples/libDaisy/src/daisy_core.h **** /** @brief GPIO Port names */
 243:../temp_time_machine/DaisyExamples/libDaisy/src/daisy_core.h **** enum GPIOPort
 244:../temp_time_machine/DaisyExamples/libDaisy/src/daisy_core.h **** {
 245:../temp_time_machine/DaisyExamples/libDaisy/src/daisy_core.h ****     PORTA, /**< Port A */
 246:../temp_time_machine/DaisyExamples/libDaisy/src/daisy_core.h ****     PORTB, /**< Port B */
 247:../temp_time_machine/DaisyExamples/libDaisy/src/daisy_core.h ****     PORTC, /**< Port C */
 248:../temp_time_machine/DaisyExamples/libDaisy/src/daisy_core.h ****     PORTD, /**< Port D */
 249:../temp_time_machine/DaisyExamples/libDaisy/src/daisy_core.h ****     PORTE, /**< Port E */
 250:../temp_time_machine/DaisyExamples/libDaisy/src/daisy_core.h ****     PORTF, /**< Port F */
 251:../temp_time_machine/DaisyExamples/libDaisy/src/daisy_core.h ****     PORTG, /**< Port G */
 252:../temp_time_machine/DaisyExamples/libDaisy/src/daisy_core.h ****     PORTH, /**< Port H */
 253:../temp_time_machine/DaisyExamples/libDaisy/src/daisy_core.h ****     PORTI, /**< Port I */
 254:../temp_time_machine/DaisyExamples/libDaisy/src/daisy_core.h ****     PORTJ, /**< Port J */
 255:../temp_time_machine/DaisyExamples/libDaisy/src/daisy_core.h ****     PORTK, /**< Port K */
 256:../temp_time_machine/DaisyExamples/libDaisy/src/daisy_core.h ****     PORTX, /**< Used as a dummy port to signal an invalid pin. */
 257:../temp_time_machine/DaisyExamples/libDaisy/src/daisy_core.h **** };
 258:../temp_time_machine/DaisyExamples/libDaisy/src/daisy_core.h **** 
 259:../temp_time_machine/DaisyExamples/libDaisy/src/daisy_core.h **** /** @brief representation of hardware port/pin combination */
 260:../temp_time_machine/DaisyExamples/libDaisy/src/daisy_core.h **** struct Pin
 261:../temp_time_machine/DaisyExamples/libDaisy/src/daisy_core.h **** {
 262:../temp_time_machine/DaisyExamples/libDaisy/src/daisy_core.h ****     GPIOPort port;
 263:../temp_time_machine/DaisyExamples/libDaisy/src/daisy_core.h ****     uint8_t  pin;
 264:../temp_time_machine/DaisyExamples/libDaisy/src/daisy_core.h **** 
 265:../temp_time_machine/DaisyExamples/libDaisy/src/daisy_core.h ****     /** @brief Constructor creates a valid pin. 
 266:../temp_time_machine/DaisyExamples/libDaisy/src/daisy_core.h ****      *  @param pt GPIOPort between PA, and PK corresponding to STM32 Port.
 267:../temp_time_machine/DaisyExamples/libDaisy/src/daisy_core.h ****      *  @param pn pin number in range of 0-15
 268:../temp_time_machine/DaisyExamples/libDaisy/src/daisy_core.h ****     */
 269:../temp_time_machine/DaisyExamples/libDaisy/src/daisy_core.h ****     constexpr Pin(const GPIOPort pt, const uint8_t pn) : port(pt), pin(pn) {}
 270:../temp_time_machine/DaisyExamples/libDaisy/src/daisy_core.h **** 
 271:../temp_time_machine/DaisyExamples/libDaisy/src/daisy_core.h ****     /** @brief Basic Constructor creates an invalid Pin object */
 272:../temp_time_machine/DaisyExamples/libDaisy/src/daisy_core.h ****     constexpr Pin() : port(PORTX), pin(255) {}
 8572              		.loc 20 272 23 view .LVU2604
 8573 0006 4FF60B73 		movw	r3, #65291
 8574              	.LBE2048:
 8575              	.LBE2047:
 8576              	.LBE2046:
 8577              	.LBE2045:
 8578              	.LBE2044:
 8579              	.LBE2043:
 8580              	.LBE2042:
 8581              	.LBE2041:
 8582              	.LBE2040:
 8583              	.LBE2039:
 8584              	.LBE2130:
 8585              	.LBE2134:
  12:main.cpp      **** 
 8586              		.loc 1 12 21 discriminator 1 view .LVU2605
 8587 000a 1F4A     		ldr	r2, .L344+4
 8588              	.LBB2135:
 8589              	.LBB2131:
 8590              	.LBB2077:
 8591              	.LBB2078:
ARM GAS  /var/folders/v1/156fk8j97zv9pzndh61fy7zm0000gn/T//ccyHp6tG.s 			page 237


 8592              	.LBB2079:
 8593              	.LBB2080:
 8594              	.LBB2081:
 8595              		.file 21 "../temp_time_machine/DaisyExamples/libDaisy/src/per/i2c.h"
   1:../temp_time_machine/DaisyExamples/libDaisy/src/per/i2c.h **** #pragma once
   2:../temp_time_machine/DaisyExamples/libDaisy/src/per/i2c.h **** #include "daisy_core.h"
   3:../temp_time_machine/DaisyExamples/libDaisy/src/per/i2c.h **** 
   4:../temp_time_machine/DaisyExamples/libDaisy/src/per/i2c.h **** namespace daisy
   5:../temp_time_machine/DaisyExamples/libDaisy/src/per/i2c.h **** {
   6:../temp_time_machine/DaisyExamples/libDaisy/src/per/i2c.h **** /** A handle for interacting with an I2C peripheral. This is a dumb
   7:../temp_time_machine/DaisyExamples/libDaisy/src/per/i2c.h ****  *  gateway that internally points to one of the four I2C peripherals
   8:../temp_time_machine/DaisyExamples/libDaisy/src/per/i2c.h ****  *  after it was initialised. It can then be copied and passed around.
   9:../temp_time_machine/DaisyExamples/libDaisy/src/per/i2c.h ****  *  Use an I2CHandle like this:
  10:../temp_time_machine/DaisyExamples/libDaisy/src/per/i2c.h ****  *  
  11:../temp_time_machine/DaisyExamples/libDaisy/src/per/i2c.h ****  *      // setup the configuration
  12:../temp_time_machine/DaisyExamples/libDaisy/src/per/i2c.h ****  *      I2CHandle::Config i2c_conf;
  13:../temp_time_machine/DaisyExamples/libDaisy/src/per/i2c.h ****  *      i2c_conf.periph = I2CHandle::Config::Peripheral::I2C_1;
  14:../temp_time_machine/DaisyExamples/libDaisy/src/per/i2c.h ****  *      i2c_conf.speed  = I2CHandle::Config::Speed::I2C_400KHZ;
  15:../temp_time_machine/DaisyExamples/libDaisy/src/per/i2c.h ****  *      i2c_conf.mode   = I2CHandle::Config::Mode::Master;
  16:../temp_time_machine/DaisyExamples/libDaisy/src/per/i2c.h ****  *      i2c_conf.pin_config.scl  = {DSY_GPIOB, 8};
  17:../temp_time_machine/DaisyExamples/libDaisy/src/per/i2c.h ****  *      i2c_conf.pin_config.sda  = {DSY_GPIOB, 9};
  18:../temp_time_machine/DaisyExamples/libDaisy/src/per/i2c.h ****  *      // initialise the peripheral
  19:../temp_time_machine/DaisyExamples/libDaisy/src/per/i2c.h ****  *      I2CHandle i2c;
  20:../temp_time_machine/DaisyExamples/libDaisy/src/per/i2c.h ****  *      i2c.Init(i2c_conf);
  21:../temp_time_machine/DaisyExamples/libDaisy/src/per/i2c.h ****  *      // now i2c points to the corresponding peripheral and can be used.
  22:../temp_time_machine/DaisyExamples/libDaisy/src/per/i2c.h ****  *      i2c.TransmitBlocking( ... );
  23:../temp_time_machine/DaisyExamples/libDaisy/src/per/i2c.h ****  */
  24:../temp_time_machine/DaisyExamples/libDaisy/src/per/i2c.h **** class I2CHandle
  25:../temp_time_machine/DaisyExamples/libDaisy/src/per/i2c.h **** {
  26:../temp_time_machine/DaisyExamples/libDaisy/src/per/i2c.h ****   public:
  27:../temp_time_machine/DaisyExamples/libDaisy/src/per/i2c.h ****     /** Contains settings for initialising an I2C interface. */
  28:../temp_time_machine/DaisyExamples/libDaisy/src/per/i2c.h ****     struct Config
  29:../temp_time_machine/DaisyExamples/libDaisy/src/per/i2c.h ****     {
  30:../temp_time_machine/DaisyExamples/libDaisy/src/per/i2c.h ****         /** Specifies whether the interface will operate in master or slave mode. */
  31:../temp_time_machine/DaisyExamples/libDaisy/src/per/i2c.h ****         enum class Mode
  32:../temp_time_machine/DaisyExamples/libDaisy/src/per/i2c.h ****         {
  33:../temp_time_machine/DaisyExamples/libDaisy/src/per/i2c.h ****             I2C_MASTER,
  34:../temp_time_machine/DaisyExamples/libDaisy/src/per/i2c.h ****             I2C_SLAVE,
  35:../temp_time_machine/DaisyExamples/libDaisy/src/per/i2c.h ****         };
  36:../temp_time_machine/DaisyExamples/libDaisy/src/per/i2c.h **** 
  37:../temp_time_machine/DaisyExamples/libDaisy/src/per/i2c.h ****         /** Specifices the internal peripheral to use (these are mapped to different pins on the ha
  38:../temp_time_machine/DaisyExamples/libDaisy/src/per/i2c.h ****         enum class Peripheral
  39:../temp_time_machine/DaisyExamples/libDaisy/src/per/i2c.h ****         {
  40:../temp_time_machine/DaisyExamples/libDaisy/src/per/i2c.h ****             I2C_1 = 0, /**< & */
  41:../temp_time_machine/DaisyExamples/libDaisy/src/per/i2c.h ****             I2C_2,     /**< & */
  42:../temp_time_machine/DaisyExamples/libDaisy/src/per/i2c.h ****             I2C_3,     /**< & */
  43:../temp_time_machine/DaisyExamples/libDaisy/src/per/i2c.h ****             I2C_4,     /**< & */
  44:../temp_time_machine/DaisyExamples/libDaisy/src/per/i2c.h ****         };
  45:../temp_time_machine/DaisyExamples/libDaisy/src/per/i2c.h **** 
  46:../temp_time_machine/DaisyExamples/libDaisy/src/per/i2c.h ****         /** Rate at which the clock/data will be sent/received. The device being used will have max
  47:../temp_time_machine/DaisyExamples/libDaisy/src/per/i2c.h ****          *  1MHZ Mode is currently 886kHz
  48:../temp_time_machine/DaisyExamples/libDaisy/src/per/i2c.h ****          */
  49:../temp_time_machine/DaisyExamples/libDaisy/src/per/i2c.h ****         enum class Speed
  50:../temp_time_machine/DaisyExamples/libDaisy/src/per/i2c.h ****         {
  51:../temp_time_machine/DaisyExamples/libDaisy/src/per/i2c.h ****             I2C_100KHZ, /**< & */
  52:../temp_time_machine/DaisyExamples/libDaisy/src/per/i2c.h ****             I2C_400KHZ, /**< & */
  53:../temp_time_machine/DaisyExamples/libDaisy/src/per/i2c.h ****             I2C_1MHZ,   /**< & */
ARM GAS  /var/folders/v1/156fk8j97zv9pzndh61fy7zm0000gn/T//ccyHp6tG.s 			page 238


  54:../temp_time_machine/DaisyExamples/libDaisy/src/per/i2c.h ****         };
  55:../temp_time_machine/DaisyExamples/libDaisy/src/per/i2c.h **** 
  56:../temp_time_machine/DaisyExamples/libDaisy/src/per/i2c.h ****         Peripheral periph; /**< & */
  57:../temp_time_machine/DaisyExamples/libDaisy/src/per/i2c.h ****         struct
  58:../temp_time_machine/DaisyExamples/libDaisy/src/per/i2c.h ****         {
  59:../temp_time_machine/DaisyExamples/libDaisy/src/per/i2c.h ****             dsy_gpio_pin scl; /**< & */
  60:../temp_time_machine/DaisyExamples/libDaisy/src/per/i2c.h ****             dsy_gpio_pin sda; /**< & */
  61:../temp_time_machine/DaisyExamples/libDaisy/src/per/i2c.h ****         } pin_config;         /**< & */
  62:../temp_time_machine/DaisyExamples/libDaisy/src/per/i2c.h **** 
  63:../temp_time_machine/DaisyExamples/libDaisy/src/per/i2c.h ****         Speed speed; /**< & */
  64:../temp_time_machine/DaisyExamples/libDaisy/src/per/i2c.h ****         Mode  mode;  /**< & */
  65:../temp_time_machine/DaisyExamples/libDaisy/src/per/i2c.h ****         // 0x10 is chosen as a default to avoid conflicts with reserved addresses
  66:../temp_time_machine/DaisyExamples/libDaisy/src/per/i2c.h ****         uint8_t address = 0x10; /**< & */
  67:../temp_time_machine/DaisyExamples/libDaisy/src/per/i2c.h ****     };
  68:../temp_time_machine/DaisyExamples/libDaisy/src/per/i2c.h **** 
  69:../temp_time_machine/DaisyExamples/libDaisy/src/per/i2c.h ****     /** Return values for I2C functions. */
  70:../temp_time_machine/DaisyExamples/libDaisy/src/per/i2c.h ****     enum class Result
  71:../temp_time_machine/DaisyExamples/libDaisy/src/per/i2c.h ****     {
  72:../temp_time_machine/DaisyExamples/libDaisy/src/per/i2c.h ****         OK, /**< & */
  73:../temp_time_machine/DaisyExamples/libDaisy/src/per/i2c.h ****         ERR /**< & */
  74:../temp_time_machine/DaisyExamples/libDaisy/src/per/i2c.h ****     };
  75:../temp_time_machine/DaisyExamples/libDaisy/src/per/i2c.h **** 
  76:../temp_time_machine/DaisyExamples/libDaisy/src/per/i2c.h ****     enum class Direction
  77:../temp_time_machine/DaisyExamples/libDaisy/src/per/i2c.h ****     {
  78:../temp_time_machine/DaisyExamples/libDaisy/src/per/i2c.h ****         TRANSMIT, /**< & */
  79:../temp_time_machine/DaisyExamples/libDaisy/src/per/i2c.h ****         RECEIVE,  /**< & */
  80:../temp_time_machine/DaisyExamples/libDaisy/src/per/i2c.h ****     };
  81:../temp_time_machine/DaisyExamples/libDaisy/src/per/i2c.h **** 
  82:../temp_time_machine/DaisyExamples/libDaisy/src/per/i2c.h ****     I2CHandle() : pimpl_(nullptr) {}
 8596              		.loc 21 82 19 view .LVU2606
 8597 000c 0C62     		str	r4, [r1, #32]
 8598              	.LBE2081:
 8599              	.LBE2080:
 8600              	.LBE2079:
 8601              	.LBE2078:
 8602              	.LBE2077:
 8603              	.LBE2131:
 8604              	.LBE2135:
  12:main.cpp      **** 
 8605              		.loc 1 12 21 discriminator 1 view .LVU2607
 8606 000e 0846     		mov	r0, r1
 8607              	.LBB2136:
 8608              	.LBB2132:
 8609              	.LBB2084:
 8610              	.LBB2073:
 8611              	.LBB2069:
 8612              	.LBB2065:
 8613              	.LBB2061:
 8614              	.LBB2057:
 8615              	.LBB2053:
 8616              	.LBB2051:
 8617              	.LBB2050:
 8618              	.LBB2049:
 8619              		.loc 20 272 23 view .LVU2608
 8620 0010 A1F8B031 		strh	r3, [r1, #432]	@ movhi
 8621              	.LBE2049:
 8622              	.LBE2050:
ARM GAS  /var/folders/v1/156fk8j97zv9pzndh61fy7zm0000gn/T//ccyHp6tG.s 			page 239


 8623              	.LBE2051:
 8624              	.LBE2053:
 8625              	.LBE2057:
 8626              	.LBE2061:
 8627              	.LBE2065:
 8628              	.LBE2069:
 8629              	.LBE2073:
 8630              	.LBE2084:
 8631              	.LBB2085:
 8632              	.LBB2086:
 8633              	.LBB2087:
 8634              	.LBB2088:
 8635              	.LBB2089:
 8636              	.LBB2090:
 8637              	.LBB2091:
 8638              	.LBB2092:
 8639              	.LBB2093:
 8640              	.LBB2094:
 8641 0014 A1F8C831 		strh	r3, [r1, #456]	@ movhi
 8642              	.LBE2094:
 8643              	.LBE2093:
 8644              	.LBE2092:
 8645              	.LBE2091:
 8646              	.LBE2090:
 8647              	.LBE2089:
 8648              	.LBE2088:
 8649              	.LBE2087:
 8650              	.LBE2086:
 8651              	.LBE2085:
 8652              	.LBB2114:
 8653              	.LBB2115:
 8654              	.LBB2116:
 8655              		.file 22 "../temp_time_machine/DaisyExamples/libDaisy/src/per/dac.h"
   1:../temp_time_machine/DaisyExamples/libDaisy/src/per/dac.h **** #pragma once
   2:../temp_time_machine/DaisyExamples/libDaisy/src/per/dac.h **** #ifndef DSY_DAC_H
   3:../temp_time_machine/DaisyExamples/libDaisy/src/per/dac.h **** #define DSY_DAC_H
   4:../temp_time_machine/DaisyExamples/libDaisy/src/per/dac.h **** 
   5:../temp_time_machine/DaisyExamples/libDaisy/src/per/dac.h **** #include "daisy_core.h"
   6:../temp_time_machine/DaisyExamples/libDaisy/src/per/dac.h **** 
   7:../temp_time_machine/DaisyExamples/libDaisy/src/per/dac.h **** namespace daisy
   8:../temp_time_machine/DaisyExamples/libDaisy/src/per/dac.h **** {
   9:../temp_time_machine/DaisyExamples/libDaisy/src/per/dac.h **** /** @brief DAC handle for Built-in DAC Peripheral 
  10:../temp_time_machine/DaisyExamples/libDaisy/src/per/dac.h ****  *  @ingroup per_analog
  11:../temp_time_machine/DaisyExamples/libDaisy/src/per/dac.h ****  ** 
  12:../temp_time_machine/DaisyExamples/libDaisy/src/per/dac.h ****  ** For now only Normal Mode is supported,
  13:../temp_time_machine/DaisyExamples/libDaisy/src/per/dac.h ****  ** Sample and hold mode provides reduced power consumption, but requires a bit more setup.
  14:../temp_time_machine/DaisyExamples/libDaisy/src/per/dac.h ****  **
  15:../temp_time_machine/DaisyExamples/libDaisy/src/per/dac.h ****  ** For now connecting the DAC through other internal peripherals is also not supported.
  16:../temp_time_machine/DaisyExamples/libDaisy/src/per/dac.h ****  **
  17:../temp_time_machine/DaisyExamples/libDaisy/src/per/dac.h ****  ** Since the DAC channels have dedicated pins we don't need to pass in a pin config like with
  18:../temp_time_machine/DaisyExamples/libDaisy/src/per/dac.h ****  ** other modules. However, it is still important to not try to use the DAC pins for anything else.
  19:../temp_time_machine/DaisyExamples/libDaisy/src/per/dac.h ****  ** DAC Channel 1 is on PA4, and DAC Channel 2 is on PA5
  20:../temp_time_machine/DaisyExamples/libDaisy/src/per/dac.h ****  ***/
  21:../temp_time_machine/DaisyExamples/libDaisy/src/per/dac.h **** class DacHandle
  22:../temp_time_machine/DaisyExamples/libDaisy/src/per/dac.h **** {
  23:../temp_time_machine/DaisyExamples/libDaisy/src/per/dac.h ****   public:
  24:../temp_time_machine/DaisyExamples/libDaisy/src/per/dac.h ****     /** Return Values for the DacHandle class */
ARM GAS  /var/folders/v1/156fk8j97zv9pzndh61fy7zm0000gn/T//ccyHp6tG.s 			page 240


  25:../temp_time_machine/DaisyExamples/libDaisy/src/per/dac.h ****     enum class Result
  26:../temp_time_machine/DaisyExamples/libDaisy/src/per/dac.h ****     {
  27:../temp_time_machine/DaisyExamples/libDaisy/src/per/dac.h ****         OK,
  28:../temp_time_machine/DaisyExamples/libDaisy/src/per/dac.h ****         ERR,
  29:../temp_time_machine/DaisyExamples/libDaisy/src/per/dac.h ****     };
  30:../temp_time_machine/DaisyExamples/libDaisy/src/per/dac.h **** 
  31:../temp_time_machine/DaisyExamples/libDaisy/src/per/dac.h ****     /** Selects which channel(s) will be configured for use. */
  32:../temp_time_machine/DaisyExamples/libDaisy/src/per/dac.h ****     enum class Channel
  33:../temp_time_machine/DaisyExamples/libDaisy/src/per/dac.h ****     {
  34:../temp_time_machine/DaisyExamples/libDaisy/src/per/dac.h ****         ONE,
  35:../temp_time_machine/DaisyExamples/libDaisy/src/per/dac.h ****         TWO,
  36:../temp_time_machine/DaisyExamples/libDaisy/src/per/dac.h ****         BOTH,
  37:../temp_time_machine/DaisyExamples/libDaisy/src/per/dac.h ****     };
  38:../temp_time_machine/DaisyExamples/libDaisy/src/per/dac.h **** 
  39:../temp_time_machine/DaisyExamples/libDaisy/src/per/dac.h ****     /** Sets the Mode for the DAC channels.
  40:../temp_time_machine/DaisyExamples/libDaisy/src/per/dac.h ****      **
  41:../temp_time_machine/DaisyExamples/libDaisy/src/per/dac.h ****      ** Polling mode uses the blocking mode to transmit a single value at a time.
  42:../temp_time_machine/DaisyExamples/libDaisy/src/per/dac.h ****      **
  43:../temp_time_machine/DaisyExamples/libDaisy/src/per/dac.h ****      ** DMA mode uses a buffer, and periodically transmits it triggering a 
  44:../temp_time_machine/DaisyExamples/libDaisy/src/per/dac.h ****      ** callback to fill the buffer when it is ready for more samples.
  45:../temp_time_machine/DaisyExamples/libDaisy/src/per/dac.h ****      ***/
  46:../temp_time_machine/DaisyExamples/libDaisy/src/per/dac.h ****     enum class Mode
  47:../temp_time_machine/DaisyExamples/libDaisy/src/per/dac.h ****     {
  48:../temp_time_machine/DaisyExamples/libDaisy/src/per/dac.h ****         POLLING,
  49:../temp_time_machine/DaisyExamples/libDaisy/src/per/dac.h ****         DMA,
  50:../temp_time_machine/DaisyExamples/libDaisy/src/per/dac.h ****     };
  51:../temp_time_machine/DaisyExamples/libDaisy/src/per/dac.h **** 
  52:../temp_time_machine/DaisyExamples/libDaisy/src/per/dac.h ****     /** Sets the number of bits per sample transmitted out of the DAC.
  53:../temp_time_machine/DaisyExamples/libDaisy/src/per/dac.h ****      ** The output range will be: 0V - VDDA
  54:../temp_time_machine/DaisyExamples/libDaisy/src/per/dac.h ****      ** The resolution will be roughly: bitdepth / (VDDA - 0V) 
  55:../temp_time_machine/DaisyExamples/libDaisy/src/per/dac.h ****      ***/
  56:../temp_time_machine/DaisyExamples/libDaisy/src/per/dac.h ****     enum class BitDepth
  57:../temp_time_machine/DaisyExamples/libDaisy/src/per/dac.h ****     {
  58:../temp_time_machine/DaisyExamples/libDaisy/src/per/dac.h ****         BITS_8,
  59:../temp_time_machine/DaisyExamples/libDaisy/src/per/dac.h ****         BITS_12
  60:../temp_time_machine/DaisyExamples/libDaisy/src/per/dac.h ****     };
  61:../temp_time_machine/DaisyExamples/libDaisy/src/per/dac.h **** 
  62:../temp_time_machine/DaisyExamples/libDaisy/src/per/dac.h ****     /** Sets whether the DAC output is buffered for higher drive ability. */
  63:../temp_time_machine/DaisyExamples/libDaisy/src/per/dac.h ****     enum class BufferState
  64:../temp_time_machine/DaisyExamples/libDaisy/src/per/dac.h ****     {
  65:../temp_time_machine/DaisyExamples/libDaisy/src/per/dac.h ****         ENABLED,
  66:../temp_time_machine/DaisyExamples/libDaisy/src/per/dac.h ****         DISABLED,
  67:../temp_time_machine/DaisyExamples/libDaisy/src/per/dac.h ****     };
  68:../temp_time_machine/DaisyExamples/libDaisy/src/per/dac.h **** 
  69:../temp_time_machine/DaisyExamples/libDaisy/src/per/dac.h ****     /** Configuration structure for initializing the DAC structure. */
  70:../temp_time_machine/DaisyExamples/libDaisy/src/per/dac.h ****     struct Config
  71:../temp_time_machine/DaisyExamples/libDaisy/src/per/dac.h ****     {
  72:../temp_time_machine/DaisyExamples/libDaisy/src/per/dac.h ****         /** Target Samplerate in Hz used to configure the internal 
  73:../temp_time_machine/DaisyExamples/libDaisy/src/per/dac.h ****          ** timebase for DMA mode. Does nothing in POLLING mode.
  74:../temp_time_machine/DaisyExamples/libDaisy/src/per/dac.h ****          ** If the value is 0 at Init time this will default to 48000Hz 
  75:../temp_time_machine/DaisyExamples/libDaisy/src/per/dac.h ****          ** otherwise the driver will attempt meet the target.*/
  76:../temp_time_machine/DaisyExamples/libDaisy/src/per/dac.h ****         uint32_t target_samplerate;
  77:../temp_time_machine/DaisyExamples/libDaisy/src/per/dac.h **** 
  78:../temp_time_machine/DaisyExamples/libDaisy/src/per/dac.h ****         Channel     chn;
  79:../temp_time_machine/DaisyExamples/libDaisy/src/per/dac.h ****         Mode        mode;
  80:../temp_time_machine/DaisyExamples/libDaisy/src/per/dac.h ****         BitDepth    bitdepth;
  81:../temp_time_machine/DaisyExamples/libDaisy/src/per/dac.h ****         BufferState buff_state;
ARM GAS  /var/folders/v1/156fk8j97zv9pzndh61fy7zm0000gn/T//ccyHp6tG.s 			page 241


  82:../temp_time_machine/DaisyExamples/libDaisy/src/per/dac.h ****     };
  83:../temp_time_machine/DaisyExamples/libDaisy/src/per/dac.h **** 
  84:../temp_time_machine/DaisyExamples/libDaisy/src/per/dac.h ****     DacHandle() : pimpl_(nullptr) {}
 8656              		.loc 22 84 19 view .LVU2609
 8657 0018 8C62     		str	r4, [r1, #40]
 8658              	.LBE2116:
 8659              	.LBE2115:
 8660              	.LBE2114:
 8661              	.LBB2117:
 8662              	.LBB2074:
 8663              	.LBB2070:
 8664              	.LBB2066:
 8665              	.LBB2062:
 8666              	.LBB2058:
 8667              	.LBB2054:
 8668              		.file 23 "../temp_time_machine/DaisyExamples/libDaisy/src/per/gpio.h"
   1:../temp_time_machine/DaisyExamples/libDaisy/src/per/gpio.h **** #pragma once
   2:../temp_time_machine/DaisyExamples/libDaisy/src/per/gpio.h **** #ifndef DSY_GPIO_H
   3:../temp_time_machine/DaisyExamples/libDaisy/src/per/gpio.h **** #define DSY_GPIO_H
   4:../temp_time_machine/DaisyExamples/libDaisy/src/per/gpio.h **** #include "daisy_core.h"
   5:../temp_time_machine/DaisyExamples/libDaisy/src/per/gpio.h **** 
   6:../temp_time_machine/DaisyExamples/libDaisy/src/per/gpio.h **** #ifdef __cplusplus
   7:../temp_time_machine/DaisyExamples/libDaisy/src/per/gpio.h **** 
   8:../temp_time_machine/DaisyExamples/libDaisy/src/per/gpio.h **** namespace daisy
   9:../temp_time_machine/DaisyExamples/libDaisy/src/per/gpio.h **** {
  10:../temp_time_machine/DaisyExamples/libDaisy/src/per/gpio.h **** /** @brief General Purpose I/O control 
  11:../temp_time_machine/DaisyExamples/libDaisy/src/per/gpio.h ****  *  @details peripheral control over a single GPIO
  12:../temp_time_machine/DaisyExamples/libDaisy/src/per/gpio.h ****  *  @ingroup peripheral
  13:../temp_time_machine/DaisyExamples/libDaisy/src/per/gpio.h ****  *   
  14:../temp_time_machine/DaisyExamples/libDaisy/src/per/gpio.h ****  *  Button Input (with internal Pullup resistor)
  15:../temp_time_machine/DaisyExamples/libDaisy/src/per/gpio.h ****  *  @include GPIO_Input.cpp 
  16:../temp_time_machine/DaisyExamples/libDaisy/src/per/gpio.h ****  * 
  17:../temp_time_machine/DaisyExamples/libDaisy/src/per/gpio.h ****  *  Output Example (perfect for blinking an LED)
  18:../temp_time_machine/DaisyExamples/libDaisy/src/per/gpio.h ****  *  @include GPIO_Output.cpp
  19:../temp_time_machine/DaisyExamples/libDaisy/src/per/gpio.h ****  * 
  20:../temp_time_machine/DaisyExamples/libDaisy/src/per/gpio.h **** */
  21:../temp_time_machine/DaisyExamples/libDaisy/src/per/gpio.h **** class GPIO
  22:../temp_time_machine/DaisyExamples/libDaisy/src/per/gpio.h **** {
  23:../temp_time_machine/DaisyExamples/libDaisy/src/per/gpio.h ****   public:
  24:../temp_time_machine/DaisyExamples/libDaisy/src/per/gpio.h ****     /** @brief Mode of operation for the specified GPIO */
  25:../temp_time_machine/DaisyExamples/libDaisy/src/per/gpio.h ****     enum class Mode
  26:../temp_time_machine/DaisyExamples/libDaisy/src/per/gpio.h ****     {
  27:../temp_time_machine/DaisyExamples/libDaisy/src/per/gpio.h ****         INPUT,     /**< Input for reading state of pin */
  28:../temp_time_machine/DaisyExamples/libDaisy/src/per/gpio.h ****         OUTPUT,    /**< Output w/ push-pull configuration */
  29:../temp_time_machine/DaisyExamples/libDaisy/src/per/gpio.h ****         OUTPUT_OD, /**< Output w/ open-drain configuration */
  30:../temp_time_machine/DaisyExamples/libDaisy/src/per/gpio.h ****         ANALOG,    /**< Analog for connection to ADC or DAC peripheral */
  31:../temp_time_machine/DaisyExamples/libDaisy/src/per/gpio.h ****     };
  32:../temp_time_machine/DaisyExamples/libDaisy/src/per/gpio.h **** 
  33:../temp_time_machine/DaisyExamples/libDaisy/src/per/gpio.h ****     /** @brief Configures whether an internal Pull up or Pull down resistor is used. 
  34:../temp_time_machine/DaisyExamples/libDaisy/src/per/gpio.h ****      *  
  35:../temp_time_machine/DaisyExamples/libDaisy/src/per/gpio.h ****      * Internal Pull up/down resistors are typically 40k ohms, and will be between
  36:../temp_time_machine/DaisyExamples/libDaisy/src/per/gpio.h ****      * 30k and 50k
  37:../temp_time_machine/DaisyExamples/libDaisy/src/per/gpio.h ****      * 
  38:../temp_time_machine/DaisyExamples/libDaisy/src/per/gpio.h ****      * When the Pin is configured in Analog mode, the pull up/down resistors are
  39:../temp_time_machine/DaisyExamples/libDaisy/src/per/gpio.h ****      * disabled by hardware. 
  40:../temp_time_machine/DaisyExamples/libDaisy/src/per/gpio.h ****      */
  41:../temp_time_machine/DaisyExamples/libDaisy/src/per/gpio.h ****     enum class Pull
ARM GAS  /var/folders/v1/156fk8j97zv9pzndh61fy7zm0000gn/T//ccyHp6tG.s 			page 242


  42:../temp_time_machine/DaisyExamples/libDaisy/src/per/gpio.h ****     {
  43:../temp_time_machine/DaisyExamples/libDaisy/src/per/gpio.h ****         NOPULL,   /**< No pull up resistor */
  44:../temp_time_machine/DaisyExamples/libDaisy/src/per/gpio.h ****         PULLUP,   /**< Internal pull up enabled */
  45:../temp_time_machine/DaisyExamples/libDaisy/src/per/gpio.h ****         PULLDOWN, /**< Internal pull down enabled*/
  46:../temp_time_machine/DaisyExamples/libDaisy/src/per/gpio.h ****     };
  47:../temp_time_machine/DaisyExamples/libDaisy/src/per/gpio.h **** 
  48:../temp_time_machine/DaisyExamples/libDaisy/src/per/gpio.h ****     /** @brief Output speed controls the drive strength, and slew rate of the pin */
  49:../temp_time_machine/DaisyExamples/libDaisy/src/per/gpio.h ****     enum class Speed
  50:../temp_time_machine/DaisyExamples/libDaisy/src/per/gpio.h ****     {
  51:../temp_time_machine/DaisyExamples/libDaisy/src/per/gpio.h ****         LOW,
  52:../temp_time_machine/DaisyExamples/libDaisy/src/per/gpio.h ****         MEDIUM,
  53:../temp_time_machine/DaisyExamples/libDaisy/src/per/gpio.h ****         HIGH,
  54:../temp_time_machine/DaisyExamples/libDaisy/src/per/gpio.h ****         VERY_HIGH,
  55:../temp_time_machine/DaisyExamples/libDaisy/src/per/gpio.h ****     };
  56:../temp_time_machine/DaisyExamples/libDaisy/src/per/gpio.h **** 
  57:../temp_time_machine/DaisyExamples/libDaisy/src/per/gpio.h ****     /** @brief Configuration for a given GPIO */
  58:../temp_time_machine/DaisyExamples/libDaisy/src/per/gpio.h ****     struct Config
  59:../temp_time_machine/DaisyExamples/libDaisy/src/per/gpio.h ****     {
  60:../temp_time_machine/DaisyExamples/libDaisy/src/per/gpio.h ****         Pin   pin;
  61:../temp_time_machine/DaisyExamples/libDaisy/src/per/gpio.h ****         Mode  mode;
  62:../temp_time_machine/DaisyExamples/libDaisy/src/per/gpio.h ****         Pull  pull;
  63:../temp_time_machine/DaisyExamples/libDaisy/src/per/gpio.h ****         Speed speed;
  64:../temp_time_machine/DaisyExamples/libDaisy/src/per/gpio.h **** 
  65:../temp_time_machine/DaisyExamples/libDaisy/src/per/gpio.h ****         /** Constructor with no arguments will prepare an invalid GPIO set as
  66:../temp_time_machine/DaisyExamples/libDaisy/src/per/gpio.h ****          *  an input, with no pullup. 
  67:../temp_time_machine/DaisyExamples/libDaisy/src/per/gpio.h ****          */
  68:../temp_time_machine/DaisyExamples/libDaisy/src/per/gpio.h ****         Config()
  69:../temp_time_machine/DaisyExamples/libDaisy/src/per/gpio.h ****         : pin(), mode(Mode::INPUT), pull(Pull::NOPULL), speed(Speed::LOW)
 8669              		.loc 23 69 57 discriminator 1 view .LVU2610
 8670 001a C1F8BC41 		str	r4, [r1, #444]
 8671              	.LBE2054:
 8672              	.LBE2058:
 8673              	.LBE2062:
 8674              	.LBE2066:
 8675              	.LBE2070:
 8676              	.LBE2074:
 8677              	.LBE2117:
 8678              	.LBB2118:
 8679              	.LBB2111:
 8680              	.LBB2108:
 8681              	.LBB2105:
 8682              	.LBB2102:
 8683              	.LBB2099:
 8684              	.LBB2096:
 8685 001e C1F8D441 		str	r4, [r1, #468]
 8686              	.LBE2096:
 8687              	.LBE2099:
 8688              	.LBE2102:
 8689              	.LBE2105:
 8690              	.LBE2108:
 8691              	.LBE2111:
 8692              	.LBE2118:
 8693              	.LBE2132:
 8694              	.LBE2136:
 8695              	.LBB2137:
 8696              	.LBB2138:
  98:uber_fdn.h    **** public:
ARM GAS  /var/folders/v1/156fk8j97zv9pzndh61fy7zm0000gn/T//ccyHp6tG.s 			page 243


 8697              		.loc 9 98 34 discriminator 20 view .LVU2611
 8698 0022 1A4E     		ldr	r6, .L344+8
 8699 0024 1A4D     		ldr	r5, .L344+12
 8700              	.LBE2138:
 8701              	.LBE2137:
 8702              	.LBB2142:
 8703              	.LBB2133:
 8704              	.LBB2119:
 8705              	.LBB2120:
 8706              	.LBB2121:
  95:../temp_time_machine/DaisyExamples/libDaisy/src/hid/audio.h ****     ~AudioHandle() {}
 8707              		.loc 7 95 21 view .LVU2612
 8708 0026 C1E90344 		strd	r4, r4, [r1, #12]
 8709              	.LVL511:
  95:../temp_time_machine/DaisyExamples/libDaisy/src/hid/audio.h ****     ~AudioHandle() {}
 8710              		.loc 7 95 21 view .LVU2613
 8711              	.LBE2121:
 8712              	.LBE2120:
 8713              	.LBE2119:
 8714              	.LBB2122:
 8715              	.LBI2122:
 109:../temp_time_machine/DaisyExamples/libDaisy/src/per/adc.h ****     ~AdcHandle() {}
 8716              		.loc 6 109 5 is_stmt 1 view .LVU2614
 109:../temp_time_machine/DaisyExamples/libDaisy/src/per/adc.h ****     ~AdcHandle() {}
 8717              		.loc 6 109 5 is_stmt 0 view .LVU2615
 8718              	.LBE2122:
 8719              	.LBB2123:
 8720              	.LBI2123:
  40:../temp_time_machine/DaisyExamples/libDaisy/src/hid/usb.h **** 
 8721              		.loc 5 40 5 is_stmt 1 view .LVU2616
  40:../temp_time_machine/DaisyExamples/libDaisy/src/hid/usb.h **** 
 8722              		.loc 5 40 5 is_stmt 0 view .LVU2617
 8723              	.LBE2123:
 8724              	.LBB2124:
 8725              	.LBI2077:
  28:../temp_time_machine/DaisyExamples/libDaisy/src/dev/codec_pcm3060.h ****     ~Pcm3060() {}
 8726              		.loc 4 28 5 is_stmt 1 view .LVU2618
 8727              	.LBB2083:
 8728              	.LBB2082:
 8729              	.LBI2079:
 8730              		.loc 21 82 5 view .LVU2619
 8731              		.loc 21 82 5 is_stmt 0 view .LVU2620
 8732              	.LBE2082:
 8733              	.LBE2083:
 8734              	.LBE2124:
 8735              	.LBB2125:
 8736              	.LBI2114:
 8737              		.loc 22 84 5 is_stmt 1 view .LVU2621
 8738              		.loc 22 84 5 is_stmt 0 view .LVU2622
 8739              	.LBE2125:
 8740              	.LBB2126:
 8741              	.LBI2039:
  18:../temp_time_machine/DaisyExamples/libDaisy/src/hid/gatein.h **** 
 8742              		.loc 3 18 5 is_stmt 1 view .LVU2623
 8743              	.LBB2075:
 8744              	.LBB2071:
 8745              	.LBI2041:
ARM GAS  /var/folders/v1/156fk8j97zv9pzndh61fy7zm0000gn/T//ccyHp6tG.s 			page 244


  70:../temp_time_machine/DaisyExamples/libDaisy/src/per/gpio.h ****         {
  71:../temp_time_machine/DaisyExamples/libDaisy/src/per/gpio.h ****         }
  72:../temp_time_machine/DaisyExamples/libDaisy/src/per/gpio.h ****     };
  73:../temp_time_machine/DaisyExamples/libDaisy/src/per/gpio.h **** 
  74:../temp_time_machine/DaisyExamples/libDaisy/src/per/gpio.h ****     GPIO() {}
 8746              		.loc 23 74 5 view .LVU2624
 8747              	.LBB2067:
 8748              	.LBB2063:
 8749              	.LBI2043:
  68:../temp_time_machine/DaisyExamples/libDaisy/src/per/gpio.h ****         : pin(), mode(Mode::INPUT), pull(Pull::NOPULL), speed(Speed::LOW)
 8750              		.loc 23 68 9 view .LVU2625
 8751              	.LBB2059:
 8752              	.LBB2055:
 8753              	.LBB2052:
 8754              	.LBI2046:
 8755              		.loc 20 272 15 view .LVU2626
 8756              		.loc 20 272 15 is_stmt 0 view .LVU2627
 8757              	.LBE2052:
 8758              	.LBE2055:
 8759              	.LBE2059:
 8760              	.LBE2063:
 8761              	.LBE2067:
 8762              	.LBE2071:
 8763              	.LBE2075:
 8764              	.LBE2126:
 8765              	.LBB2127:
 8766              	.LBI2085:
  18:../temp_time_machine/DaisyExamples/libDaisy/src/hid/gatein.h **** 
 8767              		.loc 3 18 5 is_stmt 1 view .LVU2628
 8768              	.LBB2112:
 8769              	.LBB2109:
 8770              	.LBI2087:
 8771              		.loc 23 74 5 view .LVU2629
 8772              	.LBB2106:
 8773              	.LBB2103:
 8774              	.LBI2089:
  68:../temp_time_machine/DaisyExamples/libDaisy/src/per/gpio.h ****         : pin(), mode(Mode::INPUT), pull(Pull::NOPULL), speed(Speed::LOW)
 8775              		.loc 23 68 9 view .LVU2630
 8776              	.LBB2100:
 8777              	.LBB2097:
 8778              	.LBB2095:
 8779              	.LBI2092:
 8780              		.loc 20 272 15 view .LVU2631
 8781              		.loc 20 272 15 is_stmt 0 view .LVU2632
 8782              	.LBE2095:
 8783              	.LBE2097:
 8784              	.LBE2100:
 8785              	.LBE2103:
 8786              	.LBE2106:
 8787              	.LBE2109:
 8788              	.LBE2112:
 8789              	.LBE2127:
 8790              	.LBB2128:
 8791              	.LBB2076:
 8792              	.LBB2072:
 8793              	.LBB2068:
 8794              	.LBB2064:
ARM GAS  /var/folders/v1/156fk8j97zv9pzndh61fy7zm0000gn/T//ccyHp6tG.s 			page 245


 8795              	.LBB2060:
 8796              	.LBB2056:
  69:../temp_time_machine/DaisyExamples/libDaisy/src/per/gpio.h ****         {
 8797              		.loc 23 69 37 discriminator 1 view .LVU2633
 8798 002a C1E96D44 		strd	r4, r4, [r1, #436]
 8799              	.LBE2056:
 8800              	.LBE2060:
 8801              	.LBE2064:
 8802              	.LBE2068:
 8803              	.LBE2072:
 8804              	.LBE2076:
 8805              	.LBE2128:
 8806              	.LBB2129:
 8807              	.LBB2113:
 8808              	.LBB2110:
 8809              	.LBB2107:
 8810              	.LBB2104:
 8811              	.LBB2101:
 8812              	.LBB2098:
 8813 002e C1E97344 		strd	r4, r4, [r1, #460]
 8814              	.LBE2098:
 8815              	.LBE2101:
 8816              	.LBE2104:
 8817              	.LBE2107:
 8818              	.LBE2110:
 8819              	.LBE2113:
 8820              	.LBE2129:
 8821              	.LBE2133:
 8822              	.LBE2142:
  12:main.cpp      **** 
 8823              		.loc 1 12 21 discriminator 1 view .LVU2634
 8824 0032 1849     		ldr	r1, .L344+16
 8825 0034 FFF7FEFF 		bl	__aeabi_atexit
 8826              	.LVL512:
  21:main.cpp      **** 
 8827              		.loc 1 21 39 is_stmt 1 discriminator 2 view .LVU2635
  12:main.cpp      **** 
 8828              		.loc 1 12 21 is_stmt 0 view .LVU2636
 8829 0038 2046     		mov	r0, r4
 8830              	.LBB2143:
 8831              	.LBB2139:
  98:uber_fdn.h    **** public:
 8832              		.loc 9 98 34 discriminator 20 view .LVU2637
 8833 003a 174C     		ldr	r4, .L344+20
 8834              	.LBE2139:
 8835              	.LBE2143:
  12:main.cpp      **** 
 8836              		.loc 1 12 21 view .LVU2638
 8837 003c 124A     		ldr	r2, .L344+4
 8838 003e 1749     		ldr	r1, .L344+24
 8839              	.LBB2144:
 8840              	.LBB2140:
  98:uber_fdn.h    **** public:
 8841              		.loc 9 98 34 discriminator 20 view .LVU2639
 8842 0040 3444     		add	r4, r4, r6
 8843              	.LBE2140:
 8844              	.LBE2144:
ARM GAS  /var/folders/v1/156fk8j97zv9pzndh61fy7zm0000gn/T//ccyHp6tG.s 			page 246


  12:main.cpp      **** 
 8845              		.loc 1 12 21 view .LVU2640
 8846 0042 FFF7FEFF 		bl	__aeabi_atexit
 8847              	.LVL513:
 8848              	.LBB2145:
 8849              	.LBI2137:
  98:uber_fdn.h    **** public:
 8850              		.loc 9 98 34 is_stmt 1 view .LVU2641
 8851              	.LBB2141:
  98:uber_fdn.h    **** public:
 8852              		.loc 9 98 34 discriminator 2 view .LVU2642
  98:uber_fdn.h    **** public:
 8853              		.loc 9 98 34 discriminator 6 view .LVU2643
  98:uber_fdn.h    **** public:
 8854              		.loc 9 98 34 discriminator 10 view .LVU2644
  98:uber_fdn.h    **** public:
 8855              		.loc 9 98 34 discriminator 14 view .LVU2645
  98:uber_fdn.h    **** public:
 8856              		.loc 9 98 34 discriminator 18 view .LVU2646
  98:uber_fdn.h    **** public:
 8857              		.loc 9 98 34 is_stmt 0 discriminator 20 view .LVU2647
 8858 0046 0FCD     		ldmia	r5!, {r0, r1, r2, r3}
 8859 0048 0FC4     		stmia	r4!, {r0, r1, r2, r3}
 8860 004a 95E80F00 		ldm	r5, {r0, r1, r2, r3}
 8861 004e 84E80F00 		stm	r4, {r0, r1, r2, r3}
 8862              	.LVL514:
  98:uber_fdn.h    **** public:
 8863              		.loc 9 98 34 discriminator 20 view .LVU2648
 8864              	.LBE2141:
 8865              	.LBE2145:
  12:main.cpp      **** 
 8866              		.loc 1 12 21 view .LVU2649
 8867 0052 0D4A     		ldr	r2, .L344+4
 8868 0054 3046     		mov	r0, r6
 8869 0056 1249     		ldr	r1, .L344+28
 8870 0058 FFF7FEFF 		bl	__aeabi_atexit
 8871              	.LVL515:
 8872              	.LBB2146:
 8873              	.LBI2146:
  30:omni_resonator.h **** public:
 8874              		.loc 10 30 7 is_stmt 1 view .LVU2650
  30:omni_resonator.h **** public:
 8875              		.loc 10 30 7 is_stmt 0 view .LVU2651
 8876              	.LBE2146:
  12:main.cpp      **** 
 8877              		.loc 1 12 21 view .LVU2652
 8878 005c 0A4A     		ldr	r2, .L344+4
 8879 005e 1149     		ldr	r1, .L344+32
 8880 0060 1148     		ldr	r0, .L344+36
 8881 0062 FFF7FEFF 		bl	__aeabi_atexit
 8882              	.LVL516:
 8883              	.LBB2147:
 8884              	.LBI2147:
 242:legacy_engine.h **** public:
 8885              		.loc 11 242 7 is_stmt 1 view .LVU2653
 8886              	.LBB2148:
 8887 0066 1148     		ldr	r0, .L344+40
ARM GAS  /var/folders/v1/156fk8j97zv9pzndh61fy7zm0000gn/T//ccyHp6tG.s 			page 247


 8888 0068 FFF7FEFF 		bl	_ZN3oam6legacy16LegacyMonoEngineC1Ev
 8889              	.LVL517:
 242:legacy_engine.h **** public:
 8890              		.loc 11 242 7 is_stmt 0 discriminator 1 view .LVU2654
 8891 006c 0F4B     		ldr	r3, .L344+40
 8892 006e 03F51C70 		add	r0, r3, #624
 8893 0072 FFF7FEFF 		bl	_ZN3oam6legacy16LegacyMonoEngineC1Ev
 8894              	.LVL518:
 242:legacy_engine.h **** public:
 8895              		.loc 11 242 7 discriminator 1 view .LVU2655
 8896              	.LBE2148:
 8897              	.LBE2147:
  12:main.cpp      **** 
 8898              		.loc 1 12 21 view .LVU2656
 8899 0076 044A     		ldr	r2, .L344+4
 8900 0078 0D49     		ldr	r1, .L344+44
 8901 007a 0C48     		ldr	r0, .L344+40
 8902              	.LBE2149:
 8903              	.LBE2151:
 8904              		.loc 1 221 1 view .LVU2657
 8905 007c BDE87040 		pop	{r4, r5, r6, lr}
 8906              		.cfi_restore 14
 8907              		.cfi_restore 6
 8908              		.cfi_restore 5
 8909              		.cfi_restore 4
 8910              		.cfi_def_cfa_offset 0
 8911              	.LBB2152:
 8912              	.LBB2150:
  12:main.cpp      **** 
 8913              		.loc 1 12 21 view .LVU2658
 8914 0080 FFF7FEBF 		b	__aeabi_atexit
 8915              	.LVL519:
 8916              	.L345:
 8917              		.align	2
 8918              	.L344:
 8919 0084 00000000 		.word	hw
 8920 0088 00000000 		.word	__dso_handle
 8921 008c 00000000 		.word	fdn_engine
 8922 0090 10000000 		.word	.LANCHOR0+16
 8923 0094 00000000 		.word	_ZN3oam12time_machine19TimeMachineHardwareD1Ev
 8924 0098 5C2E0400 		.word	274012
 8925 009c 00000000 		.word	__tcf_0
 8926 00a0 00000000 		.word	_ZN7UberFDNILi8EED1Ev
 8927 00a4 00000000 		.word	_ZN19OmniResonatorEngineD1Ev
 8928 00a8 00000000 		.word	res_engine
 8929 00ac 00000000 		.word	legacy_engine
 8930 00b0 00000000 		.word	_ZN3oam6legacy18LegacyStereoEngineD1Ev
 8931              	.LBE2150:
 8932              	.LBE2152:
 8933              		.cfi_endproc
 8934              	.LFE5616:
 8936              		.section	.init_array,"aw",%init_array
 8937              		.align	2
 8938 0000 00000000 		.word	_GLOBAL__sub_I_hw(target1)
 8939              		.global	k_decay
 8940              		.section	.bss.k_decay,"aw",%nobits
 8941              		.align	2
ARM GAS  /var/folders/v1/156fk8j97zv9pzndh61fy7zm0000gn/T//ccyHp6tG.s 			page 248


 8944              	k_decay:
 8945 0000 00000000 		.space	4
 8946              		.global	k_mod
 8947              		.section	.bss.k_mod,"aw",%nobits
 8948              		.align	2
 8951              	k_mod:
 8952 0000 00000000 		.space	4
 8953              		.global	k_time
 8954              		.section	.bss.k_time,"aw",%nobits
 8955              		.align	2
 8958              	k_time:
 8959 0000 00000000 		.space	4
 8960              		.global	dry_mix
 8961              		.section	.bss.dry_mix,"aw",%nobits
 8962              		.align	2
 8965              	dry_mix:
 8966 0000 00000000 		.space	4
 8967              		.global	sliders_raw
 8968              		.section	.bss.sliders_raw,"aw",%nobits
 8969              		.align	2
 8972              	sliders_raw:
 8973 0000 00000000 		.space	32
 8973      00000000 
 8973      00000000 
 8973      00000000 
 8973      00000000 
 8974              		.global	vcas
 8975              		.section	.data.vcas,"aw"
 8976              		.align	2
 8979              	vcas:
 8980 0000 0000803F 		.word	1065353216
 8981 0004 0000803F 		.word	1065353216
 8982 0008 0000803F 		.word	1065353216
 8983 000c 0000803F 		.word	1065353216
 8984 0010 0000803F 		.word	1065353216
 8985 0014 0000803F 		.word	1065353216
 8986 0018 0000803F 		.word	1065353216
 8987 001c 0000803F 		.word	1065353216
 8988 0020 0000803F 		.word	1065353216
 8989              		.global	gains
 8990              		.section	.bss.gains,"aw",%nobits
 8991              		.align	2
 8994              	gains:
 8995 0000 00000000 		.space	32
 8995      00000000 
 8995      00000000 
 8995      00000000 
 8995      00000000 
 8996              		.global	current_mode
 8997              		.section	.bss.current_mode,"aw",%nobits
 9000              	current_mode:
 9001 0000 00       		.space	1
 9002              		.global	legacy_engine
 9003              		.section	.bss.legacy_engine,"aw",%nobits
 9004              		.align	2
 9007              	legacy_engine:
 9008 0000 00000000 		.space	1252
ARM GAS  /var/folders/v1/156fk8j97zv9pzndh61fy7zm0000gn/T//ccyHp6tG.s 			page 249


 9008      00000000 
 9008      00000000 
 9008      00000000 
 9008      00000000 
 9009              		.global	res_engine
 9010              		.section	.bss.res_engine,"aw",%nobits
 9011              		.align	2
 9014              	res_engine:
 9015 0000 00000000 		.space	1448
 9015      00000000 
 9015      00000000 
 9015      00000000 
 9015      00000000 
 9016              		.global	fdn_engine
 9017              		.section	.bss.fdn_engine,"aw",%nobits
 9018              		.align	2
 9021              	fdn_engine:
 9022 0000 00000000 		.space	274044
 9022      00000000 
 9022      00000000 
 9022      00000000 
 9022      00000000 
 9023              		.global	delay_lines
 9024              		.section	.bss.delay_lines,"aw",%nobits
 9025              		.align	2
 9028              	delay_lines:
 9029 0000 00000000 		.space	7680096
 9029      00000000 
 9029      00000000 
 9029      00000000 
 9029      00000000 
 9030              		.global	big_sdram_buffer
 9031              		.section	.sdram_bss,"aw"
 9032              		.align	2
 9035              	big_sdram_buffer:
 9036 0000 00000000 		.space	60000000
 9036      00000000 
 9036      00000000 
 9036      00000000 
 9036      00000000 
 9037              		.global	hw
 9038              		.section	.bss.hw,"aw",%nobits
 9039              		.align	2
 9042              	hw:
 9043 0000 00000000 		.space	496
 9043      00000000 
 9043      00000000 
 9043      00000000 
 9043      00000000 
 9044              		.weak	_ZZN19OmniResonatorEngine12ProcessBlockEPKfS1_PfS2_jS1_fffE4prev
 9045              		.section	.bss._ZZN19OmniResonatorEngine12ProcessBlockEPKfS1_PfS2_jS1_fffE4prev,"awG",%nobits,_ZZN1
 9046              		.align	2
 9049              	_ZZN19OmniResonatorEngine12ProcessBlockEPKfS1_PfS2_jS1_fffE4prev:
 9050 0000 00000000 		.space	4
 9051              		.weak	_ZZN7daisysp6myrandEvE4seed
 9052              		.section	.data._ZZN7daisysp6myrandEvE4seed,"awG",%progbits,_ZZN7daisysp6myrandEvE4seed,comdat
 9053              		.align	2
ARM GAS  /var/folders/v1/156fk8j97zv9pzndh61fy7zm0000gn/T//ccyHp6tG.s 			page 250


 9056              	_ZZN7daisysp6myrandEvE4seed:
 9057 0000 01000000 		.word	1
 9058              		.section	.rodata
 9059              		.align	2
 9060              		.set	.LANCHOR0,. + 0
 9061              	.LC0:
 9062 0000 E1000000 		.word	225
 9063 0004 55010000 		.word	341
 9064 0008 B9010000 		.word	441
 9065 000c 2C020000 		.word	556
 9066              	.LC1:
 9067 0010 0000803F 		.word	1065353216
 9068 0014 3789913F 		.word	1066502455
 9069 0018 F4FDA43F 		.word	1067777524
 9070 001c BE9FBA3F 		.word	1069195198
 9071 0020 60E5D03F 		.word	1070654816
 9072 0024 EC51E83F 		.word	1072189932
 9073 0028 5A640340 		.word	1073964122
 9074 002c 6DE71340 		.word	1075046253
 9075              		.text
 9076              	.Letext0:
 9077              		.file 24 "/Applications/ArmGNUToolchain/14.3.rel1/arm-none-eabi/arm-none-eabi/include/machine/_def
 9078              		.file 25 "/Applications/ArmGNUToolchain/14.3.rel1/arm-none-eabi/arm-none-eabi/include/sys/_stdint.
 9079              		.file 26 "/Applications/ArmGNUToolchain/14.3.rel1/arm-none-eabi/arm-none-eabi/include/stdint.h"
 9080              		.file 27 "/Applications/ArmGNUToolchain/14.3.rel1/arm-none-eabi/lib/gcc/arm-none-eabi/14.3.1/inclu
 9081              		.file 28 "/Applications/ArmGNUToolchain/14.3.rel1/arm-none-eabi/arm-none-eabi/include/c++/14.3.1/c
 9082              		.file 29 "/Applications/ArmGNUToolchain/14.3.rel1/arm-none-eabi/arm-none-eabi/include/c++/14.3.1/b
 9083              		.file 30 "/Applications/ArmGNUToolchain/14.3.rel1/arm-none-eabi/arm-none-eabi/include/c++/14.3.1/c
 9084              		.file 31 "/Applications/ArmGNUToolchain/14.3.rel1/arm-none-eabi/arm-none-eabi/include/c++/14.3.1/c
 9085              		.file 32 "/Applications/ArmGNUToolchain/14.3.rel1/arm-none-eabi/arm-none-eabi/include/c++/14.3.1/c
 9086              		.file 33 "/Applications/ArmGNUToolchain/14.3.rel1/arm-none-eabi/arm-none-eabi/include/c++/14.3.1/t
 9087              		.file 34 "/Applications/ArmGNUToolchain/14.3.rel1/arm-none-eabi/arm-none-eabi/include/c++/14.3.1/c
 9088              		.file 35 "/Applications/ArmGNUToolchain/14.3.rel1/arm-none-eabi/arm-none-eabi/include/c++/14.3.1/d
 9089              		.file 36 "/Applications/ArmGNUToolchain/14.3.rel1/arm-none-eabi/arm-none-eabi/include/c++/14.3.1/c
 9090              		.file 37 "/Applications/ArmGNUToolchain/14.3.rel1/arm-none-eabi/arm-none-eabi/include/c++/14.3.1/b
 9091              		.file 38 "/Applications/ArmGNUToolchain/14.3.rel1/arm-none-eabi/arm-none-eabi/include/c++/14.3.1/b
 9092              		.file 39 "/Applications/ArmGNUToolchain/14.3.rel1/arm-none-eabi/arm-none-eabi/include/c++/14.3.1/c
 9093              		.file 40 "/Applications/ArmGNUToolchain/14.3.rel1/arm-none-eabi/arm-none-eabi/include/c++/14.3.1/c
 9094              		.file 41 "/Applications/ArmGNUToolchain/14.3.rel1/arm-none-eabi/arm-none-eabi/include/c++/14.3.1/b
 9095              		.file 42 "/Applications/ArmGNUToolchain/14.3.rel1/arm-none-eabi/arm-none-eabi/include/c++/14.3.1/a
 9096              		.file 43 "/Applications/ArmGNUToolchain/14.3.rel1/arm-none-eabi/arm-none-eabi/include/c++/14.3.1/b
 9097              		.file 44 "/Applications/ArmGNUToolchain/14.3.rel1/arm-none-eabi/arm-none-eabi/include/sys/_types.h
 9098              		.file 45 "/Applications/ArmGNUToolchain/14.3.rel1/arm-none-eabi/arm-none-eabi/include/sys/reent.h"
 9099              		.file 46 "/Applications/ArmGNUToolchain/14.3.rel1/arm-none-eabi/arm-none-eabi/include/sys/lock.h"
 9100              		.file 47 "/Applications/ArmGNUToolchain/14.3.rel1/arm-none-eabi/arm-none-eabi/include/math.h"
 9101              		.file 48 "/Applications/ArmGNUToolchain/14.3.rel1/arm-none-eabi/arm-none-eabi/include/stdlib.h"
 9102              		.file 49 "/Applications/ArmGNUToolchain/14.3.rel1/arm-none-eabi/arm-none-eabi/include/c++/14.3.1/m
 9103              		.file 50 "../temp_time_machine/DaisyExamples/DaisySP//Source/Control/adenv.h"
 9104              		.file 51 "/Applications/ArmGNUToolchain/14.3.rel1/arm-none-eabi/lib/gcc/arm-none-eabi/14.3.1/inclu
 9105              		.file 52 "/Applications/ArmGNUToolchain/14.3.rel1/arm-none-eabi/arm-none-eabi/include/wchar.h"
 9106              		.file 53 "/Applications/ArmGNUToolchain/14.3.rel1/arm-none-eabi/arm-none-eabi/include/locale.h"
 9107              		.file 54 "/Applications/ArmGNUToolchain/14.3.rel1/arm-none-eabi/arm-none-eabi/include/stdio.h"
 9108              		.file 55 "/Applications/ArmGNUToolchain/14.3.rel1/arm-none-eabi/arm-none-eabi/include/c++/14.3.1/s
 9109              		.file 56 "/Applications/ArmGNUToolchain/14.3.rel1/arm-none-eabi/arm-none-eabi/include/string.h"
 9110              		.file 57 "../temp_time_machine/DaisyExamples/libDaisy/src/per/sai.h"
 9111              		.file 58 "../temp_time_machine/DaisyExamples/libDaisy/src/hid/ctrl.h"
 9112              		.file 59 "../temp_time_machine/DaisyExamples/libDaisy/src/hid/logger_impl.h"
ARM GAS  /var/folders/v1/156fk8j97zv9pzndh61fy7zm0000gn/T//ccyHp6tG.s 			page 251


 9113              		.file 60 "../temp_time_machine/DaisyExamples/libDaisy/src/util/wav_format.h"
 9114              		.file 61 "../temp_time_machine/DaisyExamples/libDaisy/src/dev/max11300.h"
 9115              		.file 62 "../temp_time_machine/DaisyExamples/libDaisy/src/daisy_patch_sm.h"
 9116              		.file 63 "../temp_time_machine/DaisyExamples/libDaisy/src/dev/sdram.h"
 9117              		.file 64 "../temp_time_machine/DaisyExamples/libDaisy/src/dev/sr_595.h"
 9118              		.file 65 "<built-in>"
ARM GAS  /var/folders/v1/156fk8j97zv9pzndh61fy7zm0000gn/T//ccyHp6tG.s 			page 252


DEFINED SYMBOLS
                            *ABS*:00000000 main.cpp
/var/folders/v1/156fk8j97zv9pzndh61fy7zm0000gn/T//ccyHp6tG.s:20     .text._ZN3oam12time_machine19TimeMachineHardwareD2Ev:00000000 $t
/var/folders/v1/156fk8j97zv9pzndh61fy7zm0000gn/T//ccyHp6tG.s:27     .text._ZN3oam12time_machine19TimeMachineHardwareD2Ev:00000000 _ZN3oam12time_machine19TimeMachineHardwareD2Ev
/var/folders/v1/156fk8j97zv9pzndh61fy7zm0000gn/T//ccyHp6tG.s:27     .text._ZN3oam12time_machine19TimeMachineHardwareD2Ev:00000000 _ZN3oam12time_machine19TimeMachineHardwareD1Ev
/var/folders/v1/156fk8j97zv9pzndh61fy7zm0000gn/T//ccyHp6tG.s:87     .text.__tcf_0:00000000 $t
/var/folders/v1/156fk8j97zv9pzndh61fy7zm0000gn/T//ccyHp6tG.s:93     .text.__tcf_0:00000000 __tcf_0
/var/folders/v1/156fk8j97zv9pzndh61fy7zm0000gn/T//ccyHp6tG.s:106    .text._ZN7UberFDNILi8EED2Ev:00000000 $t
/var/folders/v1/156fk8j97zv9pzndh61fy7zm0000gn/T//ccyHp6tG.s:113    .text._ZN7UberFDNILi8EED2Ev:00000000 _ZN7UberFDNILi8EED2Ev
/var/folders/v1/156fk8j97zv9pzndh61fy7zm0000gn/T//ccyHp6tG.s:113    .text._ZN7UberFDNILi8EED2Ev:00000000 _ZN7UberFDNILi8EED1Ev
/var/folders/v1/156fk8j97zv9pzndh61fy7zm0000gn/T//ccyHp6tG.s:130    .text._ZN19OmniResonatorEngineD2Ev:00000000 $t
/var/folders/v1/156fk8j97zv9pzndh61fy7zm0000gn/T//ccyHp6tG.s:137    .text._ZN19OmniResonatorEngineD2Ev:00000000 _ZN19OmniResonatorEngineD2Ev
/var/folders/v1/156fk8j97zv9pzndh61fy7zm0000gn/T//ccyHp6tG.s:137    .text._ZN19OmniResonatorEngineD2Ev:00000000 _ZN19OmniResonatorEngineD1Ev
/var/folders/v1/156fk8j97zv9pzndh61fy7zm0000gn/T//ccyHp6tG.s:154    .text._ZN3oam6legacy18LegacyStereoEngineD2Ev:00000000 $t
/var/folders/v1/156fk8j97zv9pzndh61fy7zm0000gn/T//ccyHp6tG.s:161    .text._ZN3oam6legacy18LegacyStereoEngineD2Ev:00000000 _ZN3oam6legacy18LegacyStereoEngineD2Ev
/var/folders/v1/156fk8j97zv9pzndh61fy7zm0000gn/T//ccyHp6tG.s:161    .text._ZN3oam6legacy18LegacyStereoEngineD2Ev:00000000 _ZN3oam6legacy18LegacyStereoEngineD1Ev
/var/folders/v1/156fk8j97zv9pzndh61fy7zm0000gn/T//ccyHp6tG.s:199    .text._ZN7daisysp12PitchShifter7ProcessERf:00000000 $t
/var/folders/v1/156fk8j97zv9pzndh61fy7zm0000gn/T//ccyHp6tG.s:206    .text._ZN7daisysp12PitchShifter7ProcessERf:00000000 _ZN7daisysp12PitchShifter7ProcessERf
/var/folders/v1/156fk8j97zv9pzndh61fy7zm0000gn/T//ccyHp6tG.s:1012   .text._ZN7daisysp12PitchShifter7ProcessERf:000002a4 $d
/var/folders/v1/156fk8j97zv9pzndh61fy7zm0000gn/T//ccyHp6tG.s:9056   .data._ZZN7daisysp6myrandEvE4seed:00000000 _ZZN7daisysp6myrandEvE4seed
/var/folders/v1/156fk8j97zv9pzndh61fy7zm0000gn/T//ccyHp6tG.s:1025   .text._ZN3oam6legacy16LegacyMonoEngine7ProcessEf:00000000 $t
/var/folders/v1/156fk8j97zv9pzndh61fy7zm0000gn/T//ccyHp6tG.s:1032   .text._ZN3oam6legacy16LegacyMonoEngine7ProcessEf:00000000 _ZN3oam6legacy16LegacyMonoEngine7ProcessEf
/var/folders/v1/156fk8j97zv9pzndh61fy7zm0000gn/T//ccyHp6tG.s:1873   .text._ZN3oam6legacy16LegacyMonoEngine7ProcessEf:00000304 $d
/var/folders/v1/156fk8j97zv9pzndh61fy7zm0000gn/T//ccyHp6tG.s:1884   .text._ZN19OmniResonatorEngine12ProcessBlockEPKfS1_PfS2_jS1_fff:00000000 $t
/var/folders/v1/156fk8j97zv9pzndh61fy7zm0000gn/T//ccyHp6tG.s:1891   .text._ZN19OmniResonatorEngine12ProcessBlockEPKfS1_PfS2_jS1_fff:00000000 _ZN19OmniResonatorEngine12ProcessBlockEPKfS1_PfS2_jS1_fff
/var/folders/v1/156fk8j97zv9pzndh61fy7zm0000gn/T//ccyHp6tG.s:2553   .text._ZN19OmniResonatorEngine12ProcessBlockEPKfS1_PfS2_jS1_fff:00000248 $d
/var/folders/v1/156fk8j97zv9pzndh61fy7zm0000gn/T//ccyHp6tG.s:9049   .bss._ZZN19OmniResonatorEngine12ProcessBlockEPKfS1_PfS2_jS1_fffE4prev:00000000 _ZZN19OmniResonatorEngine12ProcessBlockEPKfS1_PfS2_jS1_fffE4prev
/var/folders/v1/156fk8j97zv9pzndh61fy7zm0000gn/T//ccyHp6tG.s:2569   .text._ZN3oam6legacy16LegacyMonoEngineC2Ev:00000000 $t
/var/folders/v1/156fk8j97zv9pzndh61fy7zm0000gn/T//ccyHp6tG.s:2576   .text._ZN3oam6legacy16LegacyMonoEngineC2Ev:00000000 _ZN3oam6legacy16LegacyMonoEngineC2Ev
/var/folders/v1/156fk8j97zv9pzndh61fy7zm0000gn/T//ccyHp6tG.s:2739   .text._ZN3oam6legacy16LegacyMonoEngineC2Ev:0000006c $d
/var/folders/v1/156fk8j97zv9pzndh61fy7zm0000gn/T//ccyHp6tG.s:2576   .text._ZN3oam6legacy16LegacyMonoEngineC2Ev:00000000 _ZN3oam6legacy16LegacyMonoEngineC1Ev
/var/folders/v1/156fk8j97zv9pzndh61fy7zm0000gn/T//ccyHp6tG.s:2747   .text._ZN7UberFDNILi8EE12ProcessBlockEPKfS2_PfS3_jS2_fff:00000000 $t
/var/folders/v1/156fk8j97zv9pzndh61fy7zm0000gn/T//ccyHp6tG.s:2754   .text._ZN7UberFDNILi8EE12ProcessBlockEPKfS2_PfS3_jS2_fff:00000000 _ZN7UberFDNILi8EE12ProcessBlockEPKfS2_PfS3_jS2_fff
/var/folders/v1/156fk8j97zv9pzndh61fy7zm0000gn/T//ccyHp6tG.s:3198   .text._ZN7UberFDNILi8EE12ProcessBlockEPKfS2_PfS3_jS2_fff:0000022c $d
/var/folders/v1/156fk8j97zv9pzndh61fy7zm0000gn/T//ccyHp6tG.s:3219   .text._ZN7UberFDNILi8EE12ProcessBlockEPKfS2_PfS3_jS2_fff:0000026c $t
/var/folders/v1/156fk8j97zv9pzndh61fy7zm0000gn/T//ccyHp6tG.s:4027   .text._ZN7UberFDNILi8EE12ProcessBlockEPKfS2_PfS3_jS2_fff:000005f4 $d
/var/folders/v1/156fk8j97zv9pzndh61fy7zm0000gn/T//ccyHp6tG.s:4044   .text._ZN7UberFDNILi8EE12ProcessBlockEPKfS2_PfS3_jS2_fff:00000620 $t
/var/folders/v1/156fk8j97zv9pzndh61fy7zm0000gn/T//ccyHp6tG.s:4630   .text._ZN7UberFDNILi8EE12ProcessBlockEPKfS2_PfS3_jS2_fff:000009a8 $d
/var/folders/v1/156fk8j97zv9pzndh61fy7zm0000gn/T//ccyHp6tG.s:4651   .text._ZN7UberFDNILi8EE12ProcessBlockEPKfS2_PfS3_jS2_fff:000009e4 $t
/var/folders/v1/156fk8j97zv9pzndh61fy7zm0000gn/T//ccyHp6tG.s:4757   .text._ZN7UberFDNILi8EE12ProcessBlockEPKfS2_PfS3_jS2_fff:00000aa4 $d
/var/folders/v1/156fk8j97zv9pzndh61fy7zm0000gn/T//ccyHp6tG.s:4768   .text._Z17AudioCallbackRealPKPKfPPfj:00000000 $t
/var/folders/v1/156fk8j97zv9pzndh61fy7zm0000gn/T//ccyHp6tG.s:4775   .text._Z17AudioCallbackRealPKPKfPPfj:00000000 _Z17AudioCallbackRealPKPKfPPfj
/var/folders/v1/156fk8j97zv9pzndh61fy7zm0000gn/T//ccyHp6tG.s:5098   .text._Z17AudioCallbackRealPKPKfPPfj:0000018c $d
/var/folders/v1/156fk8j97zv9pzndh61fy7zm0000gn/T//ccyHp6tG.s:9000   .bss.current_mode:00000000 current_mode
/var/folders/v1/156fk8j97zv9pzndh61fy7zm0000gn/T//ccyHp6tG.s:8958   .bss.k_time:00000000 k_time
/var/folders/v1/156fk8j97zv9pzndh61fy7zm0000gn/T//ccyHp6tG.s:9021   .bss.fdn_engine:00000000 fdn_engine
/var/folders/v1/156fk8j97zv9pzndh61fy7zm0000gn/T//ccyHp6tG.s:8951   .bss.k_mod:00000000 k_mod
/var/folders/v1/156fk8j97zv9pzndh61fy7zm0000gn/T//ccyHp6tG.s:8994   .bss.gains:00000000 gains
/var/folders/v1/156fk8j97zv9pzndh61fy7zm0000gn/T//ccyHp6tG.s:8965   .bss.dry_mix:00000000 dry_mix
/var/folders/v1/156fk8j97zv9pzndh61fy7zm0000gn/T//ccyHp6tG.s:9007   .bss.legacy_engine:00000000 legacy_engine
/var/folders/v1/156fk8j97zv9pzndh61fy7zm0000gn/T//ccyHp6tG.s:8944   .bss.k_decay:00000000 k_decay
/var/folders/v1/156fk8j97zv9pzndh61fy7zm0000gn/T//ccyHp6tG.s:9014   .bss.res_engine:00000000 res_engine
/var/folders/v1/156fk8j97zv9pzndh61fy7zm0000gn/T//ccyHp6tG.s:5113   .text._ZN7UberFDNILi8EE4InitEfPf:00000000 $t
/var/folders/v1/156fk8j97zv9pzndh61fy7zm0000gn/T//ccyHp6tG.s:5120   .text._ZN7UberFDNILi8EE4InitEfPf:00000000 _ZN7UberFDNILi8EE4InitEfPf
/var/folders/v1/156fk8j97zv9pzndh61fy7zm0000gn/T//ccyHp6tG.s:6054   .text._ZN7UberFDNILi8EE4InitEfPf:000003c4 $d
/var/folders/v1/156fk8j97zv9pzndh61fy7zm0000gn/T//ccyHp6tG.s:6077   .text._ZN7UberFDNILi8EE4InitEfPf:00000410 $t
/var/folders/v1/156fk8j97zv9pzndh61fy7zm0000gn/T//ccyHp6tG.s:6399   .text._ZN7UberFDNILi8EE4InitEfPf:00000500 $d
ARM GAS  /var/folders/v1/156fk8j97zv9pzndh61fy7zm0000gn/T//ccyHp6tG.s 			page 253


/var/folders/v1/156fk8j97zv9pzndh61fy7zm0000gn/T//ccyHp6tG.s:6406   .text.startup.main:00000000 $t
/var/folders/v1/156fk8j97zv9pzndh61fy7zm0000gn/T//ccyHp6tG.s:6413   .text.startup.main:00000000 main
/var/folders/v1/156fk8j97zv9pzndh61fy7zm0000gn/T//ccyHp6tG.s:7293   .text.startup.main:00000354 $d
/var/folders/v1/156fk8j97zv9pzndh61fy7zm0000gn/T//ccyHp6tG.s:9042   .bss.hw:00000000 hw
/var/folders/v1/156fk8j97zv9pzndh61fy7zm0000gn/T//ccyHp6tG.s:9035   .sdram_bss:00000000 big_sdram_buffer
/var/folders/v1/156fk8j97zv9pzndh61fy7zm0000gn/T//ccyHp6tG.s:8979   .data.vcas:00000000 vcas
/var/folders/v1/156fk8j97zv9pzndh61fy7zm0000gn/T//ccyHp6tG.s:8972   .bss.sliders_raw:00000000 sliders_raw
/var/folders/v1/156fk8j97zv9pzndh61fy7zm0000gn/T//ccyHp6tG.s:7328   .text.startup.main:000003b8 $t
/var/folders/v1/156fk8j97zv9pzndh61fy7zm0000gn/T//ccyHp6tG.s:8481   .text.startup.main:00000628 $d
/var/folders/v1/156fk8j97zv9pzndh61fy7zm0000gn/T//ccyHp6tG.s:8506   .text.startup._GLOBAL__sub_I_hw:00000000 $t
/var/folders/v1/156fk8j97zv9pzndh61fy7zm0000gn/T//ccyHp6tG.s:8512   .text.startup._GLOBAL__sub_I_hw:00000000 _GLOBAL__sub_I_hw
/var/folders/v1/156fk8j97zv9pzndh61fy7zm0000gn/T//ccyHp6tG.s:8919   .text.startup._GLOBAL__sub_I_hw:00000084 $d
/var/folders/v1/156fk8j97zv9pzndh61fy7zm0000gn/T//ccyHp6tG.s:8937   .init_array:00000000 $d
/var/folders/v1/156fk8j97zv9pzndh61fy7zm0000gn/T//ccyHp6tG.s:8941   .bss.k_decay:00000000 $d
/var/folders/v1/156fk8j97zv9pzndh61fy7zm0000gn/T//ccyHp6tG.s:8948   .bss.k_mod:00000000 $d
/var/folders/v1/156fk8j97zv9pzndh61fy7zm0000gn/T//ccyHp6tG.s:8955   .bss.k_time:00000000 $d
/var/folders/v1/156fk8j97zv9pzndh61fy7zm0000gn/T//ccyHp6tG.s:8962   .bss.dry_mix:00000000 $d
/var/folders/v1/156fk8j97zv9pzndh61fy7zm0000gn/T//ccyHp6tG.s:8969   .bss.sliders_raw:00000000 $d
/var/folders/v1/156fk8j97zv9pzndh61fy7zm0000gn/T//ccyHp6tG.s:8976   .data.vcas:00000000 $d
/var/folders/v1/156fk8j97zv9pzndh61fy7zm0000gn/T//ccyHp6tG.s:8991   .bss.gains:00000000 $d
/var/folders/v1/156fk8j97zv9pzndh61fy7zm0000gn/T//ccyHp6tG.s:9001   .bss.current_mode:00000000 $d
/var/folders/v1/156fk8j97zv9pzndh61fy7zm0000gn/T//ccyHp6tG.s:9004   .bss.legacy_engine:00000000 $d
/var/folders/v1/156fk8j97zv9pzndh61fy7zm0000gn/T//ccyHp6tG.s:9011   .bss.res_engine:00000000 $d
/var/folders/v1/156fk8j97zv9pzndh61fy7zm0000gn/T//ccyHp6tG.s:9018   .bss.fdn_engine:00000000 $d
/var/folders/v1/156fk8j97zv9pzndh61fy7zm0000gn/T//ccyHp6tG.s:9028   .bss.delay_lines:00000000 delay_lines
/var/folders/v1/156fk8j97zv9pzndh61fy7zm0000gn/T//ccyHp6tG.s:9025   .bss.delay_lines:00000000 $d
/var/folders/v1/156fk8j97zv9pzndh61fy7zm0000gn/T//ccyHp6tG.s:9032   .sdram_bss:00000000 $d
/var/folders/v1/156fk8j97zv9pzndh61fy7zm0000gn/T//ccyHp6tG.s:9039   .bss.hw:00000000 $d
/var/folders/v1/156fk8j97zv9pzndh61fy7zm0000gn/T//ccyHp6tG.s:9046   .bss._ZZN19OmniResonatorEngine12ProcessBlockEPKfS1_PfS2_jS1_fffE4prev:00000000 $d
/var/folders/v1/156fk8j97zv9pzndh61fy7zm0000gn/T//ccyHp6tG.s:9053   .data._ZZN7daisysp6myrandEvE4seed:00000000 $d
/var/folders/v1/156fk8j97zv9pzndh61fy7zm0000gn/T//ccyHp6tG.s:9059   .rodata:00000000 $d
                           .group:00000000 _ZN3oam12time_machine19TimeMachineHardwareD5Ev
                           .group:00000000 _ZN7UberFDNILi8EED5Ev
                           .group:00000000 _ZN19OmniResonatorEngineD5Ev
                           .group:00000000 _ZN3oam6legacy18LegacyStereoEngineD5Ev
                           .group:00000000 _ZN3oam6legacy16LegacyMonoEngineC5Ev

UNDEFINED SYMBOLS
_ZN7daisysp6Phasor7ProcessEv
sinf
rand
_ZN7daisysp10Compressor7ProcessEf
powf
_ZN7daisysp3Svf7SetFreqEf
_ZN7daisysp3Svf6SetResEf
_ZN7daisysp3Svf7ProcessEf
_ZN7daisysp10Oscillator7ProcessEv
expf
_ZN7daisysp6Phasor7SetFreqEf
memset
_ZN7daisysp10Oscillator12CalcPhaseIncEf
_ZN7daisysp3Svf4InitEf
_ZN3oam12time_machine19TimeMachineHardware4InitEv
_ZN3oam12time_machine19TimeMachineHardware17SetAudioBlockSizeEj
_ZN3oam12time_machine19TimeMachineHardware15AudioSampleRateEv
_ZN3oam12time_machine19TimeMachineHardware21ProcessAnalogControlsEv
_ZN3oam12time_machine19TimeMachineHardware22ProcessDigitalControlsEv
ARM GAS  /var/folders/v1/156fk8j97zv9pzndh61fy7zm0000gn/T//ccyHp6tG.s 			page 254


_ZN3oam12time_machine19TimeMachineHardware14GetSliderValueEi
_ZN3oam12time_machine19TimeMachineHardware6SetLedEb
_ZN5daisy6System5DelayEm
_ZN3oam12time_machine19TimeMachineHardware10StartAudioEPFvPKPKfPPfjE
_ZN3oam12time_machine19TimeMachineHardware11GetAdcValueEi
_ZN5daisy6System6GetNowEv
_ZN7daisysp10Compressor4InitEf
__aeabi_atexit
__dso_handle
