ARM GAS  /var/folders/v1/156fk8j97zv9pzndh61fy7zm0000gn/T//ccyHp6tG.s 			page 1


   1              		.cpu cortex-m7
   2              		.arch armv7e-m
   3              		.fpu fpv5-d16
   4              		.eabi_attribute 28, 1
   5              		.eabi_attribute 20, 1
   6              		.eabi_attribute 21, 1
   7              		.eabi_attribute 23, 3
   8              		.eabi_attribute 24, 1
   9              		.eabi_attribute 25, 1
  10              		.eabi_attribute 26, 1
  11              		.eabi_attribute 30, 2
  12              		.eabi_attribute 34, 1
  13              		.eabi_attribute 18, 4
  14              		.file	"main.cpp"
  15              		.text
  16              	.Ltext0:
  17              		.cfi_sections	.debug_frame
  18              		.file 1 "main.cpp"
  19              		.section	.text._ZN3oam12time_machine19TimeMachineHardwareD2Ev,"axG",%progbits,_ZN3oam12time_machin
  20              		.align	1
  21              		.p2align 2,,3
  22              		.weak	_ZN3oam12time_machine19TimeMachineHardwareD2Ev
  23              		.syntax unified
  24              		.thumb
  25              		.thumb_func
  27              	_ZN3oam12time_machine19TimeMachineHardwareD2Ev:
  28              	.LVL0:
  29              	.LFB4937:
  30              		.file 2 "time_machine_hardware.h"
   1:time_machine_hardware.h **** #pragma once
   2:time_machine_hardware.h **** 
   3:time_machine_hardware.h **** #include "daisy.h"
   4:time_machine_hardware.h **** #include "daisy_patch_sm.h"
   5:time_machine_hardware.h **** 
   6:time_machine_hardware.h **** using namespace daisy;
   7:time_machine_hardware.h **** using namespace patch_sm;
   8:time_machine_hardware.h **** 
   9:time_machine_hardware.h **** #define SKEW_CV CV_1
  10:time_machine_hardware.h **** #define TIME_CV CV_2
  11:time_machine_hardware.h **** #define FEEDBACK_CV CV_3
  12:time_machine_hardware.h **** 
  13:time_machine_hardware.h **** #define TIME_KNOB ADC_10
  14:time_machine_hardware.h **** #define FEEDBACK_KNOB CV_8
  15:time_machine_hardware.h **** #define SKEW_KNOB ADC_9
  16:time_machine_hardware.h **** 
  17:time_machine_hardware.h **** #define DRY_SLIDER ADC_11
  18:time_machine_hardware.h **** #define DELAY_SLIDERS ADC_12
  19:time_machine_hardware.h **** 
  20:time_machine_hardware.h **** #define DRY_VCA CV_4
  21:time_machine_hardware.h **** #define DELAY_VCA_GROUP1 CV_5
  22:time_machine_hardware.h **** #define DELAY_VCA_GROUP2 CV_6
  23:time_machine_hardware.h **** 
  24:time_machine_hardware.h **** namespace oam
  25:time_machine_hardware.h **** {
  26:time_machine_hardware.h **** namespace time_machine
  27:time_machine_hardware.h **** {
  28:time_machine_hardware.h ****     /** Accessors for the Analog Controls. 
ARM GAS  /var/folders/v1/156fk8j97zv9pzndh61fy7zm0000gn/T//ccyHp6tG.s 			page 2


  29:time_machine_hardware.h ****      *  These cover the 8x Bipolar CV inputs
  30:time_machine_hardware.h ****      *  as well as the 4x 0-3V3 ADC inputs on
  31:time_machine_hardware.h ****      *  the hardware 
  32:time_machine_hardware.h ****      * 
  33:time_machine_hardware.h ****      *  When reading a value with TimeMachineHardware::GetAdcValue()
  34:time_machine_hardware.h ****      * 
  35:time_machine_hardware.h ****      *  patch.GetAdcValue(patch_sm::CV_1);
  36:time_machine_hardware.h ****      */
  37:time_machine_hardware.h **** 
  38:time_machine_hardware.h ****     /*
  39:time_machine_hardware.h ****     enum
  40:time_machine_hardware.h ****     {
  41:time_machine_hardware.h ****         CV_1 = 0,
  42:time_machine_hardware.h ****         CV_2,
  43:time_machine_hardware.h ****         CV_3,
  44:time_machine_hardware.h ****         CV_4,
  45:time_machine_hardware.h ****         CV_5,
  46:time_machine_hardware.h ****         CV_6,
  47:time_machine_hardware.h ****         CV_7,
  48:time_machine_hardware.h ****         CV_8,
  49:time_machine_hardware.h ****         ADC_9,
  50:time_machine_hardware.h ****         ADC_10,
  51:time_machine_hardware.h ****         ADC_11,
  52:time_machine_hardware.h ****         ADC_12,
  53:time_machine_hardware.h ****         ADC_LAST,
  54:time_machine_hardware.h ****     };*/
  55:time_machine_hardware.h **** 
  56:time_machine_hardware.h ****     /** Enum for addressing the CV Outputs via the WriteCvOut function. */
  57:time_machine_hardware.h ****     /*
  58:time_machine_hardware.h ****     enum
  59:time_machine_hardware.h ****     {
  60:time_machine_hardware.h ****         CV_OUT_BOTH = 0,
  61:time_machine_hardware.h ****         CV_OUT_1,
  62:time_machine_hardware.h ****         CV_OUT_2,
  63:time_machine_hardware.h ****     };*/
  64:time_machine_hardware.h **** 
  65:time_machine_hardware.h **** 
  66:time_machine_hardware.h ****     /** @brief Board support file for TimeMachineHardware hardware
  67:time_machine_hardware.h ****      *  @author shensley
  68:time_machine_hardware.h ****      *  @ingroup boards
  69:time_machine_hardware.h ****      * 
  70:time_machine_hardware.h ****      *  Daisy Patch SM is a complete Eurorack module DSP engine.
  71:time_machine_hardware.h ****      *  Based on the Daisy Seed, with circuits added for 
  72:time_machine_hardware.h ****      *  interfacing directly with eurorack modular synthesizers.
  73:time_machine_hardware.h ****      */
  74:time_machine_hardware.h ****     class TimeMachineHardware
  75:time_machine_hardware.h ****     {
  76:time_machine_hardware.h ****       public:
  77:time_machine_hardware.h ****         /** Helper for mapping pins, and accessing them using the `GetPin` function */
  78:time_machine_hardware.h ****         enum class PinBank
  79:time_machine_hardware.h ****         {
  80:time_machine_hardware.h ****             A,
  81:time_machine_hardware.h ****             B,
  82:time_machine_hardware.h ****             C,
  83:time_machine_hardware.h ****             D
  84:time_machine_hardware.h ****         };
  85:time_machine_hardware.h **** 
ARM GAS  /var/folders/v1/156fk8j97zv9pzndh61fy7zm0000gn/T//ccyHp6tG.s 			page 3


  86:time_machine_hardware.h ****         TimeMachineHardware() {}
  87:time_machine_hardware.h ****         ~TimeMachineHardware() {}
  31              		.loc 2 87 9 view -0
  32              		.cfi_startproc
  33              		@ args = 0, pretend = 0, frame = 0
  34              		@ frame_needed = 0, uses_anonymous_args = 0
  35              		@ link register save eliminated.
  36              	.LBB535:
  37              	.LBB536:
  38              	.LBI536:
  39              		.file 3 "../temp_time_machine/DaisyExamples/libDaisy/src/hid/gatein.h"
   1:../temp_time_machine/DaisyExamples/libDaisy/src/hid/gatein.h **** #pragma once
   2:../temp_time_machine/DaisyExamples/libDaisy/src/hid/gatein.h **** #ifndef DSY_GATEIN_H
   3:../temp_time_machine/DaisyExamples/libDaisy/src/hid/gatein.h **** #define DSY_GATEIN_H
   4:../temp_time_machine/DaisyExamples/libDaisy/src/hid/gatein.h **** #include "per/gpio.h"
   5:../temp_time_machine/DaisyExamples/libDaisy/src/hid/gatein.h **** 
   6:../temp_time_machine/DaisyExamples/libDaisy/src/hid/gatein.h **** namespace daisy
   7:../temp_time_machine/DaisyExamples/libDaisy/src/hid/gatein.h **** {
   8:../temp_time_machine/DaisyExamples/libDaisy/src/hid/gatein.h **** /**
   9:../temp_time_machine/DaisyExamples/libDaisy/src/hid/gatein.h ****    @brief Generic Class for handling gate inputs through GPIO.
  10:../temp_time_machine/DaisyExamples/libDaisy/src/hid/gatein.h ****    @author Stephen Hensley
  11:../temp_time_machine/DaisyExamples/libDaisy/src/hid/gatein.h ****    @date    March 2020
  12:../temp_time_machine/DaisyExamples/libDaisy/src/hid/gatein.h ****    @ingroup controls
  13:../temp_time_machine/DaisyExamples/libDaisy/src/hid/gatein.h **** */
  14:../temp_time_machine/DaisyExamples/libDaisy/src/hid/gatein.h **** class GateIn
  15:../temp_time_machine/DaisyExamples/libDaisy/src/hid/gatein.h **** {
  16:../temp_time_machine/DaisyExamples/libDaisy/src/hid/gatein.h ****   public:
  17:../temp_time_machine/DaisyExamples/libDaisy/src/hid/gatein.h ****     /** GateIn Constructor */
  18:../temp_time_machine/DaisyExamples/libDaisy/src/hid/gatein.h ****     GateIn() {}
  19:../temp_time_machine/DaisyExamples/libDaisy/src/hid/gatein.h **** 
  20:../temp_time_machine/DaisyExamples/libDaisy/src/hid/gatein.h ****     /** GateIn Destructor */
  21:../temp_time_machine/DaisyExamples/libDaisy/src/hid/gatein.h ****     ~GateIn() {}
  40              		.loc 3 21 5 view .LVU1
  41              		.loc 3 21 5 is_stmt 0 view .LVU2
  42              	.LBE536:
  43              	.LBB537:
  44              	.LBI537:
  45              		.loc 3 21 5 is_stmt 1 view .LVU3
  46              		.loc 3 21 5 is_stmt 0 view .LVU4
  47              	.LBE537:
  48              	.LBB538:
  49              	.LBI538:
  50              		.file 4 "../temp_time_machine/DaisyExamples/libDaisy/src/dev/codec_pcm3060.h"
   1:../temp_time_machine/DaisyExamples/libDaisy/src/dev/codec_pcm3060.h **** #pragma once
   2:../temp_time_machine/DaisyExamples/libDaisy/src/dev/codec_pcm3060.h **** #ifndef DSY_CODEC_PCM3060_H
   3:../temp_time_machine/DaisyExamples/libDaisy/src/dev/codec_pcm3060.h **** #define DSY_CODEC_PCM3060_H
   4:../temp_time_machine/DaisyExamples/libDaisy/src/dev/codec_pcm3060.h **** #include "per/i2c.h"
   5:../temp_time_machine/DaisyExamples/libDaisy/src/dev/codec_pcm3060.h **** namespace daisy
   6:../temp_time_machine/DaisyExamples/libDaisy/src/dev/codec_pcm3060.h **** {
   7:../temp_time_machine/DaisyExamples/libDaisy/src/dev/codec_pcm3060.h **** /**
   8:../temp_time_machine/DaisyExamples/libDaisy/src/dev/codec_pcm3060.h ****  * @brief Driver for the TI PCM3060 Audio Codec.
   9:../temp_time_machine/DaisyExamples/libDaisy/src/dev/codec_pcm3060.h ****  * @addtogroup codec
  10:../temp_time_machine/DaisyExamples/libDaisy/src/dev/codec_pcm3060.h ****  * 
  11:../temp_time_machine/DaisyExamples/libDaisy/src/dev/codec_pcm3060.h ****  * For now this is a limited interface that uses I2C to communicate with the PCM3060
  12:../temp_time_machine/DaisyExamples/libDaisy/src/dev/codec_pcm3060.h ****  * The device can also be accessed with SPI, which is not yet supported.
  13:../temp_time_machine/DaisyExamples/libDaisy/src/dev/codec_pcm3060.h ****  * 
  14:../temp_time_machine/DaisyExamples/libDaisy/src/dev/codec_pcm3060.h ****  * For now all registers are set to their defaults, and the Init function will 
ARM GAS  /var/folders/v1/156fk8j97zv9pzndh61fy7zm0000gn/T//ccyHp6tG.s 			page 4


  15:../temp_time_machine/DaisyExamples/libDaisy/src/dev/codec_pcm3060.h ****  * perform a MRST and SRST before setting the format to 24bit LJ, and disabling 
  16:../temp_time_machine/DaisyExamples/libDaisy/src/dev/codec_pcm3060.h ****  * power save for both the ADC and DAC.
  17:../temp_time_machine/DaisyExamples/libDaisy/src/dev/codec_pcm3060.h ****  *
  18:../temp_time_machine/DaisyExamples/libDaisy/src/dev/codec_pcm3060.h ****  */
  19:../temp_time_machine/DaisyExamples/libDaisy/src/dev/codec_pcm3060.h **** class Pcm3060
  20:../temp_time_machine/DaisyExamples/libDaisy/src/dev/codec_pcm3060.h **** {
  21:../temp_time_machine/DaisyExamples/libDaisy/src/dev/codec_pcm3060.h ****   public:
  22:../temp_time_machine/DaisyExamples/libDaisy/src/dev/codec_pcm3060.h ****     enum class Result
  23:../temp_time_machine/DaisyExamples/libDaisy/src/dev/codec_pcm3060.h ****     {
  24:../temp_time_machine/DaisyExamples/libDaisy/src/dev/codec_pcm3060.h ****         OK,
  25:../temp_time_machine/DaisyExamples/libDaisy/src/dev/codec_pcm3060.h ****         ERR,
  26:../temp_time_machine/DaisyExamples/libDaisy/src/dev/codec_pcm3060.h ****     };
  27:../temp_time_machine/DaisyExamples/libDaisy/src/dev/codec_pcm3060.h **** 
  28:../temp_time_machine/DaisyExamples/libDaisy/src/dev/codec_pcm3060.h ****     Pcm3060() {}
  29:../temp_time_machine/DaisyExamples/libDaisy/src/dev/codec_pcm3060.h ****     ~Pcm3060() {}
  51              		.loc 4 29 5 is_stmt 1 view .LVU5
  52              		.loc 4 29 5 is_stmt 0 view .LVU6
  53              	.LBE538:
  54              	.LBB539:
  55              	.LBI539:
  56              		.file 5 "../temp_time_machine/DaisyExamples/libDaisy/src/hid/usb.h"
   1:../temp_time_machine/DaisyExamples/libDaisy/src/hid/usb.h **** #pragma once
   2:../temp_time_machine/DaisyExamples/libDaisy/src/hid/usb.h **** #ifndef DSY_HID_USB_H
   3:../temp_time_machine/DaisyExamples/libDaisy/src/hid/usb.h **** #define DSY_HID_USB_H
   4:../temp_time_machine/DaisyExamples/libDaisy/src/hid/usb.h **** #include <stdint.h>
   5:../temp_time_machine/DaisyExamples/libDaisy/src/hid/usb.h **** #include <stdlib.h>
   6:../temp_time_machine/DaisyExamples/libDaisy/src/hid/usb.h **** 
   7:../temp_time_machine/DaisyExamples/libDaisy/src/hid/usb.h **** namespace daisy
   8:../temp_time_machine/DaisyExamples/libDaisy/src/hid/usb.h **** /** @addtogroup human_interface
   9:../temp_time_machine/DaisyExamples/libDaisy/src/hid/usb.h ****     @{
  10:../temp_time_machine/DaisyExamples/libDaisy/src/hid/usb.h **** */
  11:../temp_time_machine/DaisyExamples/libDaisy/src/hid/usb.h **** 
  12:../temp_time_machine/DaisyExamples/libDaisy/src/hid/usb.h **** {
  13:../temp_time_machine/DaisyExamples/libDaisy/src/hid/usb.h **** /** 
  14:../temp_time_machine/DaisyExamples/libDaisy/src/hid/usb.h ****     @brief Interface for initializing and using the USB Peripherals on the daisy
  15:../temp_time_machine/DaisyExamples/libDaisy/src/hid/usb.h ****     @author Stephen Hensley
  16:../temp_time_machine/DaisyExamples/libDaisy/src/hid/usb.h ****     @date December 2019
  17:../temp_time_machine/DaisyExamples/libDaisy/src/hid/usb.h **** */
  18:../temp_time_machine/DaisyExamples/libDaisy/src/hid/usb.h **** class UsbHandle
  19:../temp_time_machine/DaisyExamples/libDaisy/src/hid/usb.h **** {
  20:../temp_time_machine/DaisyExamples/libDaisy/src/hid/usb.h ****   public:
  21:../temp_time_machine/DaisyExamples/libDaisy/src/hid/usb.h ****     /** Return values for USBHandle Functions */
  22:../temp_time_machine/DaisyExamples/libDaisy/src/hid/usb.h ****     enum class Result
  23:../temp_time_machine/DaisyExamples/libDaisy/src/hid/usb.h ****     {
  24:../temp_time_machine/DaisyExamples/libDaisy/src/hid/usb.h ****         OK,
  25:../temp_time_machine/DaisyExamples/libDaisy/src/hid/usb.h ****         ERR,
  26:../temp_time_machine/DaisyExamples/libDaisy/src/hid/usb.h ****     };
  27:../temp_time_machine/DaisyExamples/libDaisy/src/hid/usb.h **** 
  28:../temp_time_machine/DaisyExamples/libDaisy/src/hid/usb.h ****     /** Specified which of the two USB Peripherals to initialize. */
  29:../temp_time_machine/DaisyExamples/libDaisy/src/hid/usb.h ****     enum UsbPeriph
  30:../temp_time_machine/DaisyExamples/libDaisy/src/hid/usb.h ****     {
  31:../temp_time_machine/DaisyExamples/libDaisy/src/hid/usb.h ****         FS_INTERNAL, /**< Internal pin */
  32:../temp_time_machine/DaisyExamples/libDaisy/src/hid/usb.h ****         FS_EXTERNAL, /**< FS External D+ pin is Pin 38 (GPIO32). FS External D- pin is Pin 37 (GPIO
  33:../temp_time_machine/DaisyExamples/libDaisy/src/hid/usb.h ****         FS_BOTH,     /**< Both */
  34:../temp_time_machine/DaisyExamples/libDaisy/src/hid/usb.h ****     };
  35:../temp_time_machine/DaisyExamples/libDaisy/src/hid/usb.h **** 
  36:../temp_time_machine/DaisyExamples/libDaisy/src/hid/usb.h **** 
ARM GAS  /var/folders/v1/156fk8j97zv9pzndh61fy7zm0000gn/T//ccyHp6tG.s 			page 5


  37:../temp_time_machine/DaisyExamples/libDaisy/src/hid/usb.h ****     /** Function called upon reception of a buffer */
  38:../temp_time_machine/DaisyExamples/libDaisy/src/hid/usb.h ****     typedef void (*ReceiveCallback)(uint8_t* buff, uint32_t* len);
  39:../temp_time_machine/DaisyExamples/libDaisy/src/hid/usb.h **** 
  40:../temp_time_machine/DaisyExamples/libDaisy/src/hid/usb.h ****     UsbHandle() {}
  41:../temp_time_machine/DaisyExamples/libDaisy/src/hid/usb.h **** 
  42:../temp_time_machine/DaisyExamples/libDaisy/src/hid/usb.h ****     ~UsbHandle() {}
  57              		.loc 5 42 5 is_stmt 1 view .LVU7
  58              		.loc 5 42 5 is_stmt 0 view .LVU8
  59              	.LBE539:
  60              	.LBB540:
  61              	.LBI540:
  62              		.file 6 "../temp_time_machine/DaisyExamples/libDaisy/src/per/adc.h"
   1:../temp_time_machine/DaisyExamples/libDaisy/src/per/adc.h **** #pragma once
   2:../temp_time_machine/DaisyExamples/libDaisy/src/per/adc.h **** #ifndef DSY_ADC_H
   3:../temp_time_machine/DaisyExamples/libDaisy/src/per/adc.h **** #define DSY_ADC_H /**< Macro */
   4:../temp_time_machine/DaisyExamples/libDaisy/src/per/adc.h **** #include <stdint.h>
   5:../temp_time_machine/DaisyExamples/libDaisy/src/per/adc.h **** #include <stdlib.h>
   6:../temp_time_machine/DaisyExamples/libDaisy/src/per/adc.h **** #include "daisy_core.h"
   7:../temp_time_machine/DaisyExamples/libDaisy/src/per/adc.h **** #include "per/gpio.h"
   8:../temp_time_machine/DaisyExamples/libDaisy/src/per/adc.h **** 
   9:../temp_time_machine/DaisyExamples/libDaisy/src/per/adc.h **** #define DSY_ADC_MAX_CHANNELS 16 /**< Maximum number of ADC channels */
  10:../temp_time_machine/DaisyExamples/libDaisy/src/per/adc.h **** 
  11:../temp_time_machine/DaisyExamples/libDaisy/src/per/adc.h **** namespace daisy
  12:../temp_time_machine/DaisyExamples/libDaisy/src/per/adc.h **** {
  13:../temp_time_machine/DaisyExamples/libDaisy/src/per/adc.h **** /** @addtogroup per_analog
  14:../temp_time_machine/DaisyExamples/libDaisy/src/per/adc.h ****     @{
  15:../temp_time_machine/DaisyExamples/libDaisy/src/per/adc.h **** */
  16:../temp_time_machine/DaisyExamples/libDaisy/src/per/adc.h **** 
  17:../temp_time_machine/DaisyExamples/libDaisy/src/per/adc.h **** /* While there may not be many configuration options here,
  18:../temp_time_machine/DaisyExamples/libDaisy/src/per/adc.h **** using a struct like this allows us to add more configuration
  19:../temp_time_machine/DaisyExamples/libDaisy/src/per/adc.h **** later without breaking existing functionality.
  20:../temp_time_machine/DaisyExamples/libDaisy/src/per/adc.h **** */
  21:../temp_time_machine/DaisyExamples/libDaisy/src/per/adc.h **** 
  22:../temp_time_machine/DaisyExamples/libDaisy/src/per/adc.h **** /** @brief   Configuration Structure for an ADC Channel 
  23:../temp_time_machine/DaisyExamples/libDaisy/src/per/adc.h ****  *  @details This can be used to configure a a single input, 
  24:../temp_time_machine/DaisyExamples/libDaisy/src/per/adc.h ****  *           or a multiplexed input, allowing up to 8 inputs on 
  25:../temp_time_machine/DaisyExamples/libDaisy/src/per/adc.h ****  *           one channel.
  26:../temp_time_machine/DaisyExamples/libDaisy/src/per/adc.h ****  *  @note    Sharing data lines to multiple muxes _is_ possible, but
  27:../temp_time_machine/DaisyExamples/libDaisy/src/per/adc.h ****  *           each channel sharing data lines must be set to the maximum
  28:../temp_time_machine/DaisyExamples/libDaisy/src/per/adc.h ****  *           number of channels, even if some multiplexers have fewer
  29:../temp_time_machine/DaisyExamples/libDaisy/src/per/adc.h ****  *           inputs connected.
  30:../temp_time_machine/DaisyExamples/libDaisy/src/per/adc.h **** */
  31:../temp_time_machine/DaisyExamples/libDaisy/src/per/adc.h **** struct AdcChannelConfig
  32:../temp_time_machine/DaisyExamples/libDaisy/src/per/adc.h **** {
  33:../temp_time_machine/DaisyExamples/libDaisy/src/per/adc.h ****     /** Which pin to use for multiplexing */
  34:../temp_time_machine/DaisyExamples/libDaisy/src/per/adc.h ****     enum MuxPin
  35:../temp_time_machine/DaisyExamples/libDaisy/src/per/adc.h ****     {
  36:../temp_time_machine/DaisyExamples/libDaisy/src/per/adc.h ****         MUX_SEL_0,    /**< & */
  37:../temp_time_machine/DaisyExamples/libDaisy/src/per/adc.h ****         MUX_SEL_1,    /**< & */
  38:../temp_time_machine/DaisyExamples/libDaisy/src/per/adc.h ****         MUX_SEL_2,    /**< & */
  39:../temp_time_machine/DaisyExamples/libDaisy/src/per/adc.h ****         MUX_SEL_LAST, /**< & */
  40:../temp_time_machine/DaisyExamples/libDaisy/src/per/adc.h ****     };
  41:../temp_time_machine/DaisyExamples/libDaisy/src/per/adc.h **** 
  42:../temp_time_machine/DaisyExamples/libDaisy/src/per/adc.h ****     /** \brief per channel conversion speed added to fixed time based on bitdepth, etc. */
  43:../temp_time_machine/DaisyExamples/libDaisy/src/per/adc.h ****     enum ConversionSpeed
  44:../temp_time_machine/DaisyExamples/libDaisy/src/per/adc.h ****     {
  45:../temp_time_machine/DaisyExamples/libDaisy/src/per/adc.h ****         SPEED_1CYCLES_5,
ARM GAS  /var/folders/v1/156fk8j97zv9pzndh61fy7zm0000gn/T//ccyHp6tG.s 			page 6


  46:../temp_time_machine/DaisyExamples/libDaisy/src/per/adc.h ****         SPEED_2CYCLES_5,
  47:../temp_time_machine/DaisyExamples/libDaisy/src/per/adc.h ****         SPEED_8CYCLES_5,
  48:../temp_time_machine/DaisyExamples/libDaisy/src/per/adc.h ****         SPEED_16CYCLES_5,
  49:../temp_time_machine/DaisyExamples/libDaisy/src/per/adc.h ****         SPEED_32CYCLES_5,
  50:../temp_time_machine/DaisyExamples/libDaisy/src/per/adc.h ****         SPEED_64CYCLES_5,
  51:../temp_time_machine/DaisyExamples/libDaisy/src/per/adc.h ****         SPEED_387CYCLES_5,
  52:../temp_time_machine/DaisyExamples/libDaisy/src/per/adc.h ****         SPEED_810CYCLES_5,
  53:../temp_time_machine/DaisyExamples/libDaisy/src/per/adc.h ****     };
  54:../temp_time_machine/DaisyExamples/libDaisy/src/per/adc.h **** 
  55:../temp_time_machine/DaisyExamples/libDaisy/src/per/adc.h ****     /** Initializes a single ADC pin as an ADC. 
  56:../temp_time_machine/DaisyExamples/libDaisy/src/per/adc.h ****     \param pin Pin to init.
  57:../temp_time_machine/DaisyExamples/libDaisy/src/per/adc.h ****     \param speed conversion speed for this pin defaults to 8.5 cycles
  58:../temp_time_machine/DaisyExamples/libDaisy/src/per/adc.h ****      */
  59:../temp_time_machine/DaisyExamples/libDaisy/src/per/adc.h ****     void InitSingle(dsy_gpio_pin pin, ConversionSpeed speed = SPEED_8CYCLES_5);
  60:../temp_time_machine/DaisyExamples/libDaisy/src/per/adc.h **** 
  61:../temp_time_machine/DaisyExamples/libDaisy/src/per/adc.h ****     /** 
  62:../temp_time_machine/DaisyExamples/libDaisy/src/per/adc.h ****     Initializes a single ADC pin as a Multiplexed ADC.
  63:../temp_time_machine/DaisyExamples/libDaisy/src/per/adc.h ****     Requires a CD405X Multiplexer connected to the pin.
  64:../temp_time_machine/DaisyExamples/libDaisy/src/per/adc.h ****     You only need to supply the mux pins that are required,
  65:../temp_time_machine/DaisyExamples/libDaisy/src/per/adc.h ****     e.g. a 4052 mux would only require mux_0 and mux_1.
  66:../temp_time_machine/DaisyExamples/libDaisy/src/per/adc.h ****     Internal Callbacks handle the pin addressing.
  67:../temp_time_machine/DaisyExamples/libDaisy/src/per/adc.h ****     \param adc_pin &
  68:../temp_time_machine/DaisyExamples/libDaisy/src/per/adc.h ****     \param mux_channels must be 1-8
  69:../temp_time_machine/DaisyExamples/libDaisy/src/per/adc.h ****     \param mux_0 First mux pin
  70:../temp_time_machine/DaisyExamples/libDaisy/src/per/adc.h ****     \param mux_1 Second mux pin
  71:../temp_time_machine/DaisyExamples/libDaisy/src/per/adc.h ****     \param mux_2 Third mux pin
  72:../temp_time_machine/DaisyExamples/libDaisy/src/per/adc.h ****     \param speed conversion speed for this pin defaults to 8.5 cycles
  73:../temp_time_machine/DaisyExamples/libDaisy/src/per/adc.h ****     */
  74:../temp_time_machine/DaisyExamples/libDaisy/src/per/adc.h ****     void InitMux(dsy_gpio_pin    adc_pin,
  75:../temp_time_machine/DaisyExamples/libDaisy/src/per/adc.h ****                  size_t          mux_channels,
  76:../temp_time_machine/DaisyExamples/libDaisy/src/per/adc.h ****                  dsy_gpio_pin    mux_0,
  77:../temp_time_machine/DaisyExamples/libDaisy/src/per/adc.h ****                  dsy_gpio_pin    mux_1 = {DSY_GPIOX, 0},
  78:../temp_time_machine/DaisyExamples/libDaisy/src/per/adc.h ****                  dsy_gpio_pin    mux_2 = {DSY_GPIOX, 0},
  79:../temp_time_machine/DaisyExamples/libDaisy/src/per/adc.h ****                  ConversionSpeed speed = SPEED_8CYCLES_5);
  80:../temp_time_machine/DaisyExamples/libDaisy/src/per/adc.h **** 
  81:../temp_time_machine/DaisyExamples/libDaisy/src/per/adc.h ****     dsy_gpio        pin_;                   /**< & */
  82:../temp_time_machine/DaisyExamples/libDaisy/src/per/adc.h ****     dsy_gpio        mux_pin_[MUX_SEL_LAST]; /**< & */
  83:../temp_time_machine/DaisyExamples/libDaisy/src/per/adc.h ****     uint8_t         mux_channels_;          /**< & */
  84:../temp_time_machine/DaisyExamples/libDaisy/src/per/adc.h ****     ConversionSpeed speed_;
  85:../temp_time_machine/DaisyExamples/libDaisy/src/per/adc.h **** };
  86:../temp_time_machine/DaisyExamples/libDaisy/src/per/adc.h **** 
  87:../temp_time_machine/DaisyExamples/libDaisy/src/per/adc.h **** /**
  88:../temp_time_machine/DaisyExamples/libDaisy/src/per/adc.h ****    @brief Handler for analog to digital conversion
  89:../temp_time_machine/DaisyExamples/libDaisy/src/per/adc.h **** */
  90:../temp_time_machine/DaisyExamples/libDaisy/src/per/adc.h **** class AdcHandle
  91:../temp_time_machine/DaisyExamples/libDaisy/src/per/adc.h **** {
  92:../temp_time_machine/DaisyExamples/libDaisy/src/per/adc.h ****   public:
  93:../temp_time_machine/DaisyExamples/libDaisy/src/per/adc.h ****     /** Supported oversampling amounts */
  94:../temp_time_machine/DaisyExamples/libDaisy/src/per/adc.h ****     enum OverSampling
  95:../temp_time_machine/DaisyExamples/libDaisy/src/per/adc.h ****     {
  96:../temp_time_machine/DaisyExamples/libDaisy/src/per/adc.h ****         OVS_NONE, /**< & */
  97:../temp_time_machine/DaisyExamples/libDaisy/src/per/adc.h ****         OVS_4,    /**< & */
  98:../temp_time_machine/DaisyExamples/libDaisy/src/per/adc.h ****         OVS_8,    /**< & */
  99:../temp_time_machine/DaisyExamples/libDaisy/src/per/adc.h ****         OVS_16,   /**< & */
 100:../temp_time_machine/DaisyExamples/libDaisy/src/per/adc.h ****         OVS_32,   /**< & */
 101:../temp_time_machine/DaisyExamples/libDaisy/src/per/adc.h ****         OVS_64,   /**< & */
 102:../temp_time_machine/DaisyExamples/libDaisy/src/per/adc.h ****         OVS_128,  /**< & */
ARM GAS  /var/folders/v1/156fk8j97zv9pzndh61fy7zm0000gn/T//ccyHp6tG.s 			page 7


 103:../temp_time_machine/DaisyExamples/libDaisy/src/per/adc.h ****         OVS_256,  /**< & */
 104:../temp_time_machine/DaisyExamples/libDaisy/src/per/adc.h ****         OVS_512,  /**< & */
 105:../temp_time_machine/DaisyExamples/libDaisy/src/per/adc.h ****         OVS_1024, /**< & */
 106:../temp_time_machine/DaisyExamples/libDaisy/src/per/adc.h ****         OVS_LAST, /**< & */
 107:../temp_time_machine/DaisyExamples/libDaisy/src/per/adc.h ****     };
 108:../temp_time_machine/DaisyExamples/libDaisy/src/per/adc.h **** 
 109:../temp_time_machine/DaisyExamples/libDaisy/src/per/adc.h ****     AdcHandle() {}
 110:../temp_time_machine/DaisyExamples/libDaisy/src/per/adc.h ****     ~AdcHandle() {}
  63              		.loc 6 110 5 is_stmt 1 view .LVU9
  64              		.loc 6 110 5 is_stmt 0 view .LVU10
  65              	.LBE540:
  66              	.LBB541:
  67              	.LBI541:
  68              		.file 7 "../temp_time_machine/DaisyExamples/libDaisy/src/hid/audio.h"
   1:../temp_time_machine/DaisyExamples/libDaisy/src/hid/audio.h **** #ifndef DSY_AUDIO_H
   2:../temp_time_machine/DaisyExamples/libDaisy/src/hid/audio.h **** #define DSY_AUDIO_H /**< & */
   3:../temp_time_machine/DaisyExamples/libDaisy/src/hid/audio.h **** 
   4:../temp_time_machine/DaisyExamples/libDaisy/src/hid/audio.h **** #include "per/sai.h"
   5:../temp_time_machine/DaisyExamples/libDaisy/src/hid/audio.h **** 
   6:../temp_time_machine/DaisyExamples/libDaisy/src/hid/audio.h **** namespace daisy
   7:../temp_time_machine/DaisyExamples/libDaisy/src/hid/audio.h **** {
   8:../temp_time_machine/DaisyExamples/libDaisy/src/hid/audio.h **** /** @brief Audio Engine Handle
   9:../temp_time_machine/DaisyExamples/libDaisy/src/hid/audio.h ****  *  @ingroup audio 
  10:../temp_time_machine/DaisyExamples/libDaisy/src/hid/audio.h ****  *  @details This class allows for higher level access to an audio engine.
  11:../temp_time_machine/DaisyExamples/libDaisy/src/hid/audio.h ****  *           If you're using a SOM like the DaisySeed or DaisyPatchSM (or any 
  12:../temp_time_machine/DaisyExamples/libDaisy/src/hid/audio.h ****  *            board that includes one of those objects) then the intialization
  13:../temp_time_machine/DaisyExamples/libDaisy/src/hid/audio.h ****  *            is already taken  care of.
  14:../temp_time_machine/DaisyExamples/libDaisy/src/hid/audio.h ****  *           If you're setting up your own custom hardware, or need to make changes
  15:../temp_time_machine/DaisyExamples/libDaisy/src/hid/audio.h ****  *           you will have to take the following steps:
  16:../temp_time_machine/DaisyExamples/libDaisy/src/hid/audio.h ****  *             1. Create and Initialize an SaiHandle or two depending on your requirements
  17:../temp_time_machine/DaisyExamples/libDaisy/src/hid/audio.h ****  *             2. Initialize the Audio Handle with the desired settings and the Initialized SaiHand
  18:../temp_time_machine/DaisyExamples/libDaisy/src/hid/audio.h ****  *             3. If the connected codec requires special configuration or initialization, do so
  19:../temp_time_machine/DaisyExamples/libDaisy/src/hid/audio.h ****  *             4. Write a callback method using either the AudioCallback or the InterleavingAudioCa
  20:../temp_time_machine/DaisyExamples/libDaisy/src/hid/audio.h ****  *             5. Start the Audio using one of the StartAudio function
  21:../temp_time_machine/DaisyExamples/libDaisy/src/hid/audio.h ****  */
  22:../temp_time_machine/DaisyExamples/libDaisy/src/hid/audio.h **** class AudioHandle
  23:../temp_time_machine/DaisyExamples/libDaisy/src/hid/audio.h **** {
  24:../temp_time_machine/DaisyExamples/libDaisy/src/hid/audio.h ****   public:
  25:../temp_time_machine/DaisyExamples/libDaisy/src/hid/audio.h ****     /** Manually configurable details about the Audio Engine */
  26:../temp_time_machine/DaisyExamples/libDaisy/src/hid/audio.h ****     /** TODO: Figure out how to get samplerate in here. */
  27:../temp_time_machine/DaisyExamples/libDaisy/src/hid/audio.h ****     struct Config
  28:../temp_time_machine/DaisyExamples/libDaisy/src/hid/audio.h ****     {
  29:../temp_time_machine/DaisyExamples/libDaisy/src/hid/audio.h ****         /** number of samples to process per callback */
  30:../temp_time_machine/DaisyExamples/libDaisy/src/hid/audio.h ****         size_t blocksize;
  31:../temp_time_machine/DaisyExamples/libDaisy/src/hid/audio.h **** 
  32:../temp_time_machine/DaisyExamples/libDaisy/src/hid/audio.h ****         /**< Sample rate of audio */
  33:../temp_time_machine/DaisyExamples/libDaisy/src/hid/audio.h ****         SaiHandle::Config::SampleRate samplerate;
  34:../temp_time_machine/DaisyExamples/libDaisy/src/hid/audio.h **** 
  35:../temp_time_machine/DaisyExamples/libDaisy/src/hid/audio.h ****         /** factor for adjustment before and after callback for hardware that may have extra headro
  36:../temp_time_machine/DaisyExamples/libDaisy/src/hid/audio.h ****         float postgain;
  37:../temp_time_machine/DaisyExamples/libDaisy/src/hid/audio.h **** 
  38:../temp_time_machine/DaisyExamples/libDaisy/src/hid/audio.h ****         /** factor for additional one-sided compensation to audio path for hardware that may
  39:../temp_time_machine/DaisyExamples/libDaisy/src/hid/audio.h ****          *  have unequal input/output ranges
  40:../temp_time_machine/DaisyExamples/libDaisy/src/hid/audio.h ****          */
  41:../temp_time_machine/DaisyExamples/libDaisy/src/hid/audio.h ****         float output_compensation;
  42:../temp_time_machine/DaisyExamples/libDaisy/src/hid/audio.h **** 
  43:../temp_time_machine/DaisyExamples/libDaisy/src/hid/audio.h ****         /** Sets default values for config struct */
ARM GAS  /var/folders/v1/156fk8j97zv9pzndh61fy7zm0000gn/T//ccyHp6tG.s 			page 8


  44:../temp_time_machine/DaisyExamples/libDaisy/src/hid/audio.h ****         Config()
  45:../temp_time_machine/DaisyExamples/libDaisy/src/hid/audio.h ****         : blocksize(48),
  46:../temp_time_machine/DaisyExamples/libDaisy/src/hid/audio.h ****           samplerate(SaiHandle::Config::SampleRate::SAI_48KHZ),
  47:../temp_time_machine/DaisyExamples/libDaisy/src/hid/audio.h ****           postgain(1.f),
  48:../temp_time_machine/DaisyExamples/libDaisy/src/hid/audio.h ****           output_compensation(1.f)
  49:../temp_time_machine/DaisyExamples/libDaisy/src/hid/audio.h ****         {
  50:../temp_time_machine/DaisyExamples/libDaisy/src/hid/audio.h ****         }
  51:../temp_time_machine/DaisyExamples/libDaisy/src/hid/audio.h ****     };
  52:../temp_time_machine/DaisyExamples/libDaisy/src/hid/audio.h **** 
  53:../temp_time_machine/DaisyExamples/libDaisy/src/hid/audio.h ****     enum class Result
  54:../temp_time_machine/DaisyExamples/libDaisy/src/hid/audio.h ****     {
  55:../temp_time_machine/DaisyExamples/libDaisy/src/hid/audio.h ****         OK,
  56:../temp_time_machine/DaisyExamples/libDaisy/src/hid/audio.h ****         ERR,
  57:../temp_time_machine/DaisyExamples/libDaisy/src/hid/audio.h ****     };
  58:../temp_time_machine/DaisyExamples/libDaisy/src/hid/audio.h **** 
  59:../temp_time_machine/DaisyExamples/libDaisy/src/hid/audio.h ****     /** Non-Interleaving input buffer
  60:../temp_time_machine/DaisyExamples/libDaisy/src/hid/audio.h ****      * Buffer arranged by float[chn][sample] 
  61:../temp_time_machine/DaisyExamples/libDaisy/src/hid/audio.h ****      * const so that the user can't modify the input
  62:../temp_time_machine/DaisyExamples/libDaisy/src/hid/audio.h ****      */
  63:../temp_time_machine/DaisyExamples/libDaisy/src/hid/audio.h ****     typedef const float* const* InputBuffer;
  64:../temp_time_machine/DaisyExamples/libDaisy/src/hid/audio.h **** 
  65:../temp_time_machine/DaisyExamples/libDaisy/src/hid/audio.h ****     /** Non-Interleaving output buffer
  66:../temp_time_machine/DaisyExamples/libDaisy/src/hid/audio.h ****      * Arranged by float[chn][sample] 
  67:../temp_time_machine/DaisyExamples/libDaisy/src/hid/audio.h ****      */
  68:../temp_time_machine/DaisyExamples/libDaisy/src/hid/audio.h ****     typedef float** OutputBuffer;
  69:../temp_time_machine/DaisyExamples/libDaisy/src/hid/audio.h **** 
  70:../temp_time_machine/DaisyExamples/libDaisy/src/hid/audio.h ****     /** Type for a Non-Interleaving audio callback 
  71:../temp_time_machine/DaisyExamples/libDaisy/src/hid/audio.h ****      * Non-Interleaving audio callbacks in daisy will be of this type
  72:../temp_time_machine/DaisyExamples/libDaisy/src/hid/audio.h ****      */
  73:../temp_time_machine/DaisyExamples/libDaisy/src/hid/audio.h ****     typedef void (*AudioCallback)(InputBuffer  in,
  74:../temp_time_machine/DaisyExamples/libDaisy/src/hid/audio.h ****                                   OutputBuffer out,
  75:../temp_time_machine/DaisyExamples/libDaisy/src/hid/audio.h ****                                   size_t       size);
  76:../temp_time_machine/DaisyExamples/libDaisy/src/hid/audio.h **** 
  77:../temp_time_machine/DaisyExamples/libDaisy/src/hid/audio.h ****     /** Interleaving Input buffer
  78:../temp_time_machine/DaisyExamples/libDaisy/src/hid/audio.h ****      ** audio is prepared as { L0, R0, L1, R1, . . . LN, RN }]
  79:../temp_time_machine/DaisyExamples/libDaisy/src/hid/audio.h ****      ** this is const, as the user shouldn't modify it
  80:../temp_time_machine/DaisyExamples/libDaisy/src/hid/audio.h ****     */
  81:../temp_time_machine/DaisyExamples/libDaisy/src/hid/audio.h ****     typedef const float* InterleavingInputBuffer;
  82:../temp_time_machine/DaisyExamples/libDaisy/src/hid/audio.h **** 
  83:../temp_time_machine/DaisyExamples/libDaisy/src/hid/audio.h ****     /** Interleaving Output buffer 
  84:../temp_time_machine/DaisyExamples/libDaisy/src/hid/audio.h ****      ** audio is prepared as { L0, R0, L1, R1, . . . LN, RN }
  85:../temp_time_machine/DaisyExamples/libDaisy/src/hid/audio.h ****     */
  86:../temp_time_machine/DaisyExamples/libDaisy/src/hid/audio.h ****     typedef float* InterleavingOutputBuffer;
  87:../temp_time_machine/DaisyExamples/libDaisy/src/hid/audio.h **** 
  88:../temp_time_machine/DaisyExamples/libDaisy/src/hid/audio.h ****     /** Interleaving Audio Callback 
  89:../temp_time_machine/DaisyExamples/libDaisy/src/hid/audio.h ****      * Interleaving audio callbacks in daisy must be of this type
  90:../temp_time_machine/DaisyExamples/libDaisy/src/hid/audio.h ****      */
  91:../temp_time_machine/DaisyExamples/libDaisy/src/hid/audio.h ****     typedef void (*InterleavingAudioCallback)(InterleavingInputBuffer  in,
  92:../temp_time_machine/DaisyExamples/libDaisy/src/hid/audio.h ****                                               InterleavingOutputBuffer out,
  93:../temp_time_machine/DaisyExamples/libDaisy/src/hid/audio.h ****                                               size_t                   size);
  94:../temp_time_machine/DaisyExamples/libDaisy/src/hid/audio.h **** 
  95:../temp_time_machine/DaisyExamples/libDaisy/src/hid/audio.h ****     AudioHandle() : pimpl_(nullptr) {}
  96:../temp_time_machine/DaisyExamples/libDaisy/src/hid/audio.h ****     ~AudioHandle() {}
  69              		.loc 7 96 5 is_stmt 1 view .LVU11
  70              		.loc 7 96 5 is_stmt 0 view .LVU12
  71              	.LBE541:
  72              	.LBB542:
ARM GAS  /var/folders/v1/156fk8j97zv9pzndh61fy7zm0000gn/T//ccyHp6tG.s 			page 9


  73              	.LBI542:
  74              		.file 8 "../temp_time_machine/DaisyExamples/libDaisy/src/sys/system.h"
   1:../temp_time_machine/DaisyExamples/libDaisy/src/sys/system.h **** #ifndef DSY_SYSTEM_H
   2:../temp_time_machine/DaisyExamples/libDaisy/src/sys/system.h **** #define DSY_SYSTEM_H
   3:../temp_time_machine/DaisyExamples/libDaisy/src/sys/system.h **** 
   4:../temp_time_machine/DaisyExamples/libDaisy/src/sys/system.h **** #ifndef UNIT_TEST // for unit tests, a dummy implementation is provided below
   5:../temp_time_machine/DaisyExamples/libDaisy/src/sys/system.h **** 
   6:../temp_time_machine/DaisyExamples/libDaisy/src/sys/system.h **** #include <cstdint>
   7:../temp_time_machine/DaisyExamples/libDaisy/src/sys/system.h **** #include "per/tim.h"
   8:../temp_time_machine/DaisyExamples/libDaisy/src/sys/system.h **** 
   9:../temp_time_machine/DaisyExamples/libDaisy/src/sys/system.h **** namespace daisy
  10:../temp_time_machine/DaisyExamples/libDaisy/src/sys/system.h **** {
  11:../temp_time_machine/DaisyExamples/libDaisy/src/sys/system.h **** /** A handle for interacting with the Core System.
  12:../temp_time_machine/DaisyExamples/libDaisy/src/sys/system.h ****  ** This includes the Clock tree, MPU, global DMA initialization,
  13:../temp_time_machine/DaisyExamples/libDaisy/src/sys/system.h ****  ** cache handling, and any other necessary global initiailzation
  14:../temp_time_machine/DaisyExamples/libDaisy/src/sys/system.h ****  **
  15:../temp_time_machine/DaisyExamples/libDaisy/src/sys/system.h ****  ** @author shensley
  16:../temp_time_machine/DaisyExamples/libDaisy/src/sys/system.h ****  ** @ingroup system
  17:../temp_time_machine/DaisyExamples/libDaisy/src/sys/system.h ****  */
  18:../temp_time_machine/DaisyExamples/libDaisy/src/sys/system.h **** class System
  19:../temp_time_machine/DaisyExamples/libDaisy/src/sys/system.h **** {
  20:../temp_time_machine/DaisyExamples/libDaisy/src/sys/system.h ****   public:
  21:../temp_time_machine/DaisyExamples/libDaisy/src/sys/system.h ****     /** Contains settings for initializing the System */
  22:../temp_time_machine/DaisyExamples/libDaisy/src/sys/system.h ****     struct Config
  23:../temp_time_machine/DaisyExamples/libDaisy/src/sys/system.h ****     {
  24:../temp_time_machine/DaisyExamples/libDaisy/src/sys/system.h ****         /** Specifies the system clock frequency that feeds APB/AHB clocks, etc. */
  25:../temp_time_machine/DaisyExamples/libDaisy/src/sys/system.h ****         enum class SysClkFreq
  26:../temp_time_machine/DaisyExamples/libDaisy/src/sys/system.h ****         {
  27:../temp_time_machine/DaisyExamples/libDaisy/src/sys/system.h ****             FREQ_400MHZ,
  28:../temp_time_machine/DaisyExamples/libDaisy/src/sys/system.h ****             FREQ_480MHZ,
  29:../temp_time_machine/DaisyExamples/libDaisy/src/sys/system.h ****         };
  30:../temp_time_machine/DaisyExamples/libDaisy/src/sys/system.h **** 
  31:../temp_time_machine/DaisyExamples/libDaisy/src/sys/system.h ****         /** Method to call on the struct to set to defaults
  32:../temp_time_machine/DaisyExamples/libDaisy/src/sys/system.h ****          ** CPU Freq set to 400MHz
  33:../temp_time_machine/DaisyExamples/libDaisy/src/sys/system.h ****          ** Cache Enabled
  34:../temp_time_machine/DaisyExamples/libDaisy/src/sys/system.h ****          ** */
  35:../temp_time_machine/DaisyExamples/libDaisy/src/sys/system.h ****         void Defaults()
  36:../temp_time_machine/DaisyExamples/libDaisy/src/sys/system.h ****         {
  37:../temp_time_machine/DaisyExamples/libDaisy/src/sys/system.h ****             cpu_freq    = SysClkFreq::FREQ_400MHZ;
  38:../temp_time_machine/DaisyExamples/libDaisy/src/sys/system.h ****             use_dcache  = true;
  39:../temp_time_machine/DaisyExamples/libDaisy/src/sys/system.h ****             use_icache  = true;
  40:../temp_time_machine/DaisyExamples/libDaisy/src/sys/system.h ****             skip_clocks = false;
  41:../temp_time_machine/DaisyExamples/libDaisy/src/sys/system.h ****         }
  42:../temp_time_machine/DaisyExamples/libDaisy/src/sys/system.h **** 
  43:../temp_time_machine/DaisyExamples/libDaisy/src/sys/system.h ****         /** Method to call on the struct to set to boost mode:
  44:../temp_time_machine/DaisyExamples/libDaisy/src/sys/system.h ****          ** CPU Freq set to 480MHz
  45:../temp_time_machine/DaisyExamples/libDaisy/src/sys/system.h ****          ** Cache Enabled
  46:../temp_time_machine/DaisyExamples/libDaisy/src/sys/system.h ****          ** */
  47:../temp_time_machine/DaisyExamples/libDaisy/src/sys/system.h ****         void Boost()
  48:../temp_time_machine/DaisyExamples/libDaisy/src/sys/system.h ****         {
  49:../temp_time_machine/DaisyExamples/libDaisy/src/sys/system.h ****             cpu_freq    = SysClkFreq::FREQ_480MHZ;
  50:../temp_time_machine/DaisyExamples/libDaisy/src/sys/system.h ****             use_dcache  = true;
  51:../temp_time_machine/DaisyExamples/libDaisy/src/sys/system.h ****             use_icache  = true;
  52:../temp_time_machine/DaisyExamples/libDaisy/src/sys/system.h ****             skip_clocks = false;
  53:../temp_time_machine/DaisyExamples/libDaisy/src/sys/system.h ****         }
  54:../temp_time_machine/DaisyExamples/libDaisy/src/sys/system.h **** 
  55:../temp_time_machine/DaisyExamples/libDaisy/src/sys/system.h ****         SysClkFreq cpu_freq;
ARM GAS  /var/folders/v1/156fk8j97zv9pzndh61fy7zm0000gn/T//ccyHp6tG.s 			page 10


  56:../temp_time_machine/DaisyExamples/libDaisy/src/sys/system.h ****         bool       use_dcache;
  57:../temp_time_machine/DaisyExamples/libDaisy/src/sys/system.h ****         bool       use_icache;
  58:../temp_time_machine/DaisyExamples/libDaisy/src/sys/system.h ****         bool       skip_clocks;
  59:../temp_time_machine/DaisyExamples/libDaisy/src/sys/system.h ****     };
  60:../temp_time_machine/DaisyExamples/libDaisy/src/sys/system.h **** 
  61:../temp_time_machine/DaisyExamples/libDaisy/src/sys/system.h ****     /** Describes the different regions of memory available to the Daisy */
  62:../temp_time_machine/DaisyExamples/libDaisy/src/sys/system.h ****     enum MemoryRegion
  63:../temp_time_machine/DaisyExamples/libDaisy/src/sys/system.h ****     {
  64:../temp_time_machine/DaisyExamples/libDaisy/src/sys/system.h ****         INTERNAL_FLASH = 0,
  65:../temp_time_machine/DaisyExamples/libDaisy/src/sys/system.h ****         ITCMRAM,
  66:../temp_time_machine/DaisyExamples/libDaisy/src/sys/system.h ****         DTCMRAM,
  67:../temp_time_machine/DaisyExamples/libDaisy/src/sys/system.h ****         SRAM_D1,
  68:../temp_time_machine/DaisyExamples/libDaisy/src/sys/system.h ****         SRAM_D2,
  69:../temp_time_machine/DaisyExamples/libDaisy/src/sys/system.h ****         SRAM_D3,
  70:../temp_time_machine/DaisyExamples/libDaisy/src/sys/system.h ****         SDRAM,
  71:../temp_time_machine/DaisyExamples/libDaisy/src/sys/system.h ****         QSPI,
  72:../temp_time_machine/DaisyExamples/libDaisy/src/sys/system.h ****         INVALID_ADDRESS,
  73:../temp_time_machine/DaisyExamples/libDaisy/src/sys/system.h ****     };
  74:../temp_time_machine/DaisyExamples/libDaisy/src/sys/system.h **** 
  75:../temp_time_machine/DaisyExamples/libDaisy/src/sys/system.h ****     /** Bootloader struct for controlling bootloading parameters */
  76:../temp_time_machine/DaisyExamples/libDaisy/src/sys/system.h ****     struct BootInfo
  77:../temp_time_machine/DaisyExamples/libDaisy/src/sys/system.h ****     {
  78:../temp_time_machine/DaisyExamples/libDaisy/src/sys/system.h ****         enum class Type : uint32_t
  79:../temp_time_machine/DaisyExamples/libDaisy/src/sys/system.h ****         {
  80:../temp_time_machine/DaisyExamples/libDaisy/src/sys/system.h ****             INVALID      = 0x00000000,
  81:../temp_time_machine/DaisyExamples/libDaisy/src/sys/system.h ****             JUMP         = 0xDEADBEEF,
  82:../temp_time_machine/DaisyExamples/libDaisy/src/sys/system.h ****             SKIP_TIMEOUT = 0x5AFEB007,
  83:../temp_time_machine/DaisyExamples/libDaisy/src/sys/system.h ****             INF_TIMEOUT  = 0xB0074EFA,
  84:../temp_time_machine/DaisyExamples/libDaisy/src/sys/system.h ****         } status;
  85:../temp_time_machine/DaisyExamples/libDaisy/src/sys/system.h ****         uint32_t data;
  86:../temp_time_machine/DaisyExamples/libDaisy/src/sys/system.h ****         enum class Version : uint32_t
  87:../temp_time_machine/DaisyExamples/libDaisy/src/sys/system.h ****         {
  88:../temp_time_machine/DaisyExamples/libDaisy/src/sys/system.h ****             LT_v6_0 = 0, // Less than v6.0
  89:../temp_time_machine/DaisyExamples/libDaisy/src/sys/system.h ****             NONE,        // No bootloader present
  90:../temp_time_machine/DaisyExamples/libDaisy/src/sys/system.h ****             v6_0,        // v6.0
  91:../temp_time_machine/DaisyExamples/libDaisy/src/sys/system.h ****             v6_1,        // v6.1 or greater
  92:../temp_time_machine/DaisyExamples/libDaisy/src/sys/system.h ****             LAST
  93:../temp_time_machine/DaisyExamples/libDaisy/src/sys/system.h ****         } version;
  94:../temp_time_machine/DaisyExamples/libDaisy/src/sys/system.h ****     };
  95:../temp_time_machine/DaisyExamples/libDaisy/src/sys/system.h **** 
  96:../temp_time_machine/DaisyExamples/libDaisy/src/sys/system.h ****     System() {}
  97:../temp_time_machine/DaisyExamples/libDaisy/src/sys/system.h ****     ~System() {}
  75              		.loc 8 97 5 is_stmt 1 view .LVU13
  76              		.loc 8 97 5 is_stmt 0 view .LVU14
  77              	.LBE542:
  78              	.LBE535:
  79              		.loc 2 87 33 view .LVU15
  80 0000 7047     		bx	lr
  81              		.cfi_endproc
  82              	.LFE4937:
  84              		.weak	_ZN3oam12time_machine19TimeMachineHardwareD1Ev
  85              		.thumb_set _ZN3oam12time_machine19TimeMachineHardwareD1Ev,_ZN3oam12time_machine19TimeMachineHardwa
  86 0002 00BF     		.section	.text.__tcf_0,"ax",%progbits
  87              		.align	1
  88              		.p2align 2,,3
  89              		.syntax unified
  90              		.thumb
ARM GAS  /var/folders/v1/156fk8j97zv9pzndh61fy7zm0000gn/T//ccyHp6tG.s 			page 11


  91              		.thumb_func
  93              	__tcf_0:
  94              	.LFB5603:
   1:main.cpp      **** #include "daisysp.h"
   2:main.cpp      **** #include "legacy_engine.h"
   3:main.cpp      **** #include "omni_resonator.h"
   4:main.cpp      **** #include "time_machine_hardware.h"
   5:main.cpp      **** #include "uber_fdn.h"
   6:main.cpp      **** 
   7:main.cpp      **** using namespace daisy;
   8:main.cpp      **** using namespace daisysp;
   9:main.cpp      **** using namespace oam::time_machine;
  10:main.cpp      **** 
  11:main.cpp      **** // --- Hardware ---
  12:main.cpp      **** TimeMachineHardware hw;
  13:main.cpp      **** 
  14:main.cpp      **** // --- Memory ---
  15:main.cpp      **** // 60MB Buffer for Legacy Mode (or Shared use)
  16:main.cpp      **** // 150 seconds * 48000 * 2 channels = 14.4M samples = 57.6MB
  17:main.cpp      **** #define TOTAL_SDRAM_SAMPLES 15000000
  18:main.cpp      **** float DSY_SDRAM_BSS big_sdram_buffer[TOTAL_SDRAM_SAMPLES];
  19:main.cpp      **** 
  20:main.cpp      **** // Pointers for FDN (reusing the start of the big buffer)
  21:main.cpp      **** DelayLine<float, 240000> delay_lines[8];
  95              		.loc 1 21 26 is_stmt 1 view -0
  96              		.cfi_startproc
  97              		@ args = 0, pretend = 0, frame = 0
  98              		@ frame_needed = 0, uses_anonymous_args = 0
  99              		@ link register save eliminated.
 100              		.loc 1 21 26 is_stmt 0 view .LVU17
 101 0000 7047     		bx	lr
 102              		.cfi_endproc
 103              	.LFE5603:
 105 0002 00BF     		.section	.text._ZN7UberFDNILi8EED2Ev,"axG",%progbits,_ZN7UberFDNILi8EED5Ev,comdat
 106              		.align	1
 107              		.p2align 2,,3
 108              		.weak	_ZN7UberFDNILi8EED2Ev
 109              		.syntax unified
 110              		.thumb
 111              		.thumb_func
 113              	_ZN7UberFDNILi8EED2Ev:
 114              	.LVL1:
 115              	.LFB5605:
 116              		.file 9 "uber_fdn.h"
   1:uber_fdn.h    **** #pragma once
   2:uber_fdn.h    **** #include "daisysp.h"
   3:uber_fdn.h    **** #include <cmath>
   4:uber_fdn.h    **** 
   5:uber_fdn.h    **** using namespace daisysp;
   6:uber_fdn.h    **** 
   7:uber_fdn.h    **** // Helper Classes
   8:uber_fdn.h    **** class OmniDelay {
   9:uber_fdn.h    **** public:
  10:uber_fdn.h    ****   void Init(float *buf, int max) {
  11:uber_fdn.h    ****     buffer_ = buf;
  12:uber_fdn.h    ****     max_len_ = max;
  13:uber_fdn.h    ****     write_ptr_ = 0;
ARM GAS  /var/folders/v1/156fk8j97zv9pzndh61fy7zm0000gn/T//ccyHp6tG.s 			page 12


  14:uber_fdn.h    ****   }
  15:uber_fdn.h    ****   void Write(float sample) {
  16:uber_fdn.h    ****     buffer_[write_ptr_] = sample;
  17:uber_fdn.h    ****     write_ptr_++;
  18:uber_fdn.h    ****     if (write_ptr_ >= max_len_)
  19:uber_fdn.h    ****       write_ptr_ = 0;
  20:uber_fdn.h    ****   }
  21:uber_fdn.h    ****   float Read(float delay_samps) {
  22:uber_fdn.h    ****     // Linear Interpolation
  23:uber_fdn.h    ****     float read_pos = (float)write_ptr_ - delay_samps;
  24:uber_fdn.h    ****     while (read_pos < 0.0f)
  25:uber_fdn.h    ****       read_pos += (float)max_len_;
  26:uber_fdn.h    ****     while (read_pos >= (float)max_len_)
  27:uber_fdn.h    ****       read_pos -= (float)max_len_;
  28:uber_fdn.h    **** 
  29:uber_fdn.h    ****     int idx = (int)read_pos;
  30:uber_fdn.h    ****     float frac = read_pos - idx;
  31:uber_fdn.h    ****     int idx2 = idx + 1;
  32:uber_fdn.h    ****     if (idx2 >= max_len_)
  33:uber_fdn.h    ****       idx2 = 0;
  34:uber_fdn.h    **** 
  35:uber_fdn.h    ****     return buffer_[idx] + frac * (buffer_[idx2] - buffer_[idx]);
  36:uber_fdn.h    ****   }
  37:uber_fdn.h    **** 
  38:uber_fdn.h    **** private:
  39:uber_fdn.h    ****   float *buffer_;
  40:uber_fdn.h    ****   int max_len_;
  41:uber_fdn.h    ****   int write_ptr_;
  42:uber_fdn.h    **** };
  43:uber_fdn.h    **** 
  44:uber_fdn.h    **** class OmniAllpass {
  45:uber_fdn.h    **** public:
  46:uber_fdn.h    ****   void Init() {
  47:uber_fdn.h    ****     for (int i = 0; i < 600; i++)
  48:uber_fdn.h    ****       buffer_[i] = 0.0f;
  49:uber_fdn.h    ****     write_ptr_ = 0;
  50:uber_fdn.h    ****     delay_len_ = 100;
  51:uber_fdn.h    ****   }
  52:uber_fdn.h    ****   void SetDelay(int len) {
  53:uber_fdn.h    ****     delay_len_ = len;
  54:uber_fdn.h    ****     if (len > 599)
  55:uber_fdn.h    ****       delay_len_ = 599;
  56:uber_fdn.h    ****   }
  57:uber_fdn.h    ****   float Process(float in) {
  58:uber_fdn.h    ****     int read_ptr = write_ptr_ - delay_len_;
  59:uber_fdn.h    ****     if (read_ptr < 0)
  60:uber_fdn.h    ****       read_ptr += 600;
  61:uber_fdn.h    ****     float buf_out = buffer_[read_ptr];
  62:uber_fdn.h    ****     float out = -in + buf_out;
  63:uber_fdn.h    ****     buffer_[write_ptr_] = in + (0.5f * buf_out);
  64:uber_fdn.h    ****     write_ptr_++;
  65:uber_fdn.h    ****     if (write_ptr_ >= 600)
  66:uber_fdn.h    ****       write_ptr_ = 0;
  67:uber_fdn.h    ****     return out;
  68:uber_fdn.h    ****   }
  69:uber_fdn.h    **** 
  70:uber_fdn.h    **** private:
ARM GAS  /var/folders/v1/156fk8j97zv9pzndh61fy7zm0000gn/T//ccyHp6tG.s 			page 13


  71:uber_fdn.h    ****   float buffer_[600];
  72:uber_fdn.h    ****   int write_ptr_;
  73:uber_fdn.h    ****   int delay_len_;
  74:uber_fdn.h    **** };
  75:uber_fdn.h    **** 
  76:uber_fdn.h    **** class OmniOnePole {
  77:uber_fdn.h    **** public:
  78:uber_fdn.h    ****   void Init() {
  79:uber_fdn.h    ****     out_ = 0.0f;
  80:uber_fdn.h    ****     SetFreq(6000.0f);
  81:uber_fdn.h    ****   }
  82:uber_fdn.h    ****   void SetFreq(float freq) {
  83:uber_fdn.h    ****     float b1 = expf(-2.0f * 3.1415927f * freq / 48000.0f);
  84:uber_fdn.h    ****     b1_ = b1;
  85:uber_fdn.h    ****     a0_ = 1.0f - b1;
  86:uber_fdn.h    ****   }
  87:uber_fdn.h    ****   float Process(float in) {
  88:uber_fdn.h    ****     out_ = (in * a0_) + (out_ * b1_);
  89:uber_fdn.h    ****     return out_;
  90:uber_fdn.h    ****   }
  91:uber_fdn.h    **** 
  92:uber_fdn.h    **** private:
  93:uber_fdn.h    ****   float a0_, b1_, out_;
  94:uber_fdn.h    **** };
  95:uber_fdn.h    **** 
  96:uber_fdn.h    **** enum FdnMode { MODE_STUDIO, MODE_SHIMMER, MODE_MASSIVE };
  97:uber_fdn.h    **** 
  98:uber_fdn.h    **** template <int N_LINES = 8> class UberFDN {
 117              		.loc 9 98 34 is_stmt 1 view -0
 118              		.cfi_startproc
 119              		@ args = 0, pretend = 0, frame = 0
 120              		@ frame_needed = 0, uses_anonymous_args = 0
 121              		@ link register save eliminated.
 122              		.loc 9 98 34 is_stmt 0 view .LVU19
 123 0000 7047     		bx	lr
 124              		.cfi_endproc
 125              	.LFE5605:
 127              		.weak	_ZN7UberFDNILi8EED1Ev
 128              		.thumb_set _ZN7UberFDNILi8EED1Ev,_ZN7UberFDNILi8EED2Ev
 129 0002 00BF     		.section	.text._ZN19OmniResonatorEngineD2Ev,"axG",%progbits,_ZN19OmniResonatorEngineD5Ev,comdat
 130              		.align	1
 131              		.p2align 2,,3
 132              		.weak	_ZN19OmniResonatorEngineD2Ev
 133              		.syntax unified
 134              		.thumb
 135              		.thumb_func
 137              	_ZN19OmniResonatorEngineD2Ev:
 138              	.LVL2:
 139              	.LFB5608:
 140              		.file 10 "omni_resonator.h"
   1:omni_resonator.h **** #pragma once
   2:omni_resonator.h **** #include "daisysp.h"
   3:omni_resonator.h **** #include <cmath>
   4:omni_resonator.h **** 
   5:omni_resonator.h **** using namespace daisysp;
   6:omni_resonator.h **** 
   7:omni_resonator.h **** class OmniResonatorVoice {
ARM GAS  /var/folders/v1/156fk8j97zv9pzndh61fy7zm0000gn/T//ccyHp6tG.s 			page 14


   8:omni_resonator.h **** public:
   9:omni_resonator.h ****   void Init(float sr) {
  10:omni_resonator.h ****     sr_ = sr;
  11:omni_resonator.h ****     svf_.Init(sr);
  12:omni_resonator.h ****     freq_ = 440.0f;
  13:omni_resonator.h ****     res_ = 0.5f;
  14:omni_resonator.h ****   }
  15:omni_resonator.h **** 
  16:omni_resonator.h ****   float Process(float in) {
  17:omni_resonator.h ****     svf_.SetFreq(freq_);
  18:omni_resonator.h ****     svf_.SetRes(res_);
  19:omni_resonator.h ****     svf_.Process(in);
  20:omni_resonator.h ****     return svf_.Band();
  21:omni_resonator.h ****   }
  22:omni_resonator.h ****   void SetFreq(float f) { freq_ = f; }
  23:omni_resonator.h ****   void SetRes(float r) { res_ = r; }
  24:omni_resonator.h **** 
  25:omni_resonator.h **** private:
  26:omni_resonator.h ****   float sr_, freq_, res_;
  27:omni_resonator.h ****   Svf svf_;
  28:omni_resonator.h **** };
  29:omni_resonator.h **** 
  30:omni_resonator.h **** class OmniResonatorEngine {
 141              		.loc 10 30 7 is_stmt 1 view -0
 142              		.cfi_startproc
 143              		@ args = 0, pretend = 0, frame = 0
 144              		@ frame_needed = 0, uses_anonymous_args = 0
 145              		@ link register save eliminated.
 146              		.loc 10 30 7 is_stmt 0 view .LVU21
 147 0000 7047     		bx	lr
 148              		.cfi_endproc
 149              	.LFE5608:
 151              		.weak	_ZN19OmniResonatorEngineD1Ev
 152              		.thumb_set _ZN19OmniResonatorEngineD1Ev,_ZN19OmniResonatorEngineD2Ev
 153 0002 00BF     		.section	.text._ZN3oam6legacy18LegacyStereoEngineD2Ev,"axG",%progbits,_ZN3oam6legacy18LegacyStereo
 154              		.align	1
 155              		.p2align 2,,3
 156              		.weak	_ZN3oam6legacy18LegacyStereoEngineD2Ev
 157              		.syntax unified
 158              		.thumb
 159              		.thumb_func
 161              	_ZN3oam6legacy18LegacyStereoEngineD2Ev:
 162              	.LVL3:
 163              	.LFB5611:
 164              		.file 11 "legacy_engine.h"
   1:legacy_engine.h **** #pragma once
   2:legacy_engine.h **** #include "daisysp.h"
   3:legacy_engine.h **** #include <algorithm>
   4:legacy_engine.h **** #include <cmath>
   5:legacy_engine.h **** 
   6:legacy_engine.h **** namespace oam {
   7:legacy_engine.h **** namespace legacy {
   8:legacy_engine.h **** 
   9:legacy_engine.h **** inline float clamp(float x, float a, float b) {
  10:legacy_engine.h ****   return std::max(a, std::min(b, x));
  11:legacy_engine.h **** }
  12:legacy_engine.h **** 
ARM GAS  /var/folders/v1/156fk8j97zv9pzndh61fy7zm0000gn/T//ccyHp6tG.s 			page 15


  13:legacy_engine.h **** inline float s_mix(float x, float a, float b) { return x * (1 - x) + b * x; }
  14:legacy_engine.h **** 
  15:legacy_engine.h **** // --- Helpers from dsp.h ---
  16:legacy_engine.h **** // (Assuming standard math usage).
  17:legacy_engine.h **** 
  18:legacy_engine.h **** struct LegacyHelpers {
  19:legacy_engine.h ****   static float softClip(float x, float kneeStart = 0.9f,
  20:legacy_engine.h ****                         float kneeCurve = 5.0f) {
  21:legacy_engine.h ****     float linPart = clamp(x, -kneeStart, kneeStart);
  22:legacy_engine.h ****     float clipPart = x - linPart;
  23:legacy_engine.h ****     clipPart = atanf(clipPart * kneeCurve) / kneeCurve;
  24:legacy_engine.h ****     return linPart + clipPart;
  25:legacy_engine.h ****   }
  26:legacy_engine.h **** 
  27:legacy_engine.h ****   static float spread(float x, float s, float e = 2.5f) {
  28:legacy_engine.h ****     s = clamp(s, 0.0f, 1.0f);
  29:legacy_engine.h ****     if (s > 0.5f) {
  30:legacy_engine.h ****       s = (s - 0.5f) * 2.0f;
  31:legacy_engine.h ****       s = s * e + 1.0f;
  32:legacy_engine.h ****       return 1.0f - powf(1.0f - x, s);
  33:legacy_engine.h ****     } else if (s < 0.5f) {
  34:legacy_engine.h ****       s = 1.0f - (s * 2.0f);
  35:legacy_engine.h ****       s = s * e + 1.0f;
  36:legacy_engine.h ****       return powf(x, s);
  37:legacy_engine.h ****     } else {
  38:legacy_engine.h ****       return x;
  39:legacy_engine.h ****     }
  40:legacy_engine.h ****   }
  41:legacy_engine.h **** 
  42:legacy_engine.h ****   static float minMaxSlider(float in, float dz = 0.002f) {
  43:legacy_engine.h ****     in = in - dz * 0.5f;
  44:legacy_engine.h ****     in = in * (1.0f + dz);
  45:legacy_engine.h ****     return std::min(1.0f, std::max(0.0f, in));
  46:legacy_engine.h ****   }
  47:legacy_engine.h **** 
  48:legacy_engine.h ****   static int seconds_to_samples(float x, float sr) { return (int)(x * sr); }
  49:legacy_engine.h ****   static int wrap_buffer_index(int x, int size) {
  50:legacy_engine.h ****     while (x >= size)
  51:legacy_engine.h ****       x -= size;
  52:legacy_engine.h ****     while (x < 0)
  53:legacy_engine.h ****       x += size;
  54:legacy_engine.h ****     return x;
  55:legacy_engine.h ****   }
  56:legacy_engine.h **** };
  57:legacy_engine.h **** 
  58:legacy_engine.h **** class Slew {
  59:legacy_engine.h **** public:
  60:legacy_engine.h ****   float lastVal = 0.0f;
  61:legacy_engine.h ****   float coef = 0.001f;
  62:legacy_engine.h ****   void Init(float c = 0.001f) { coef = c; }
  63:legacy_engine.h ****   float Process(float x) {
  64:legacy_engine.h ****     lastVal = lastVal + (x - lastVal) * coef;
  65:legacy_engine.h ****     return lastVal;
  66:legacy_engine.h ****   }
  67:legacy_engine.h **** };
  68:legacy_engine.h **** 
  69:legacy_engine.h **** class Limiter {
ARM GAS  /var/folders/v1/156fk8j97zv9pzndh61fy7zm0000gn/T//ccyHp6tG.s 			page 16


  70:legacy_engine.h **** public:
  71:legacy_engine.h ****   float gainCoef;
  72:legacy_engine.h ****   float releaseCoef;
  73:legacy_engine.h ****   void Init(float sampleRate) {
  74:legacy_engine.h ****     gainCoef = 1.0f;
  75:legacy_engine.h ****     releaseCoef = 16.0f / sampleRate;
  76:legacy_engine.h ****   }
  77:legacy_engine.h ****   float Process(float in) {
  78:legacy_engine.h ****     float targetGainCoef = 1.0f / std::max(fabsf(in), 1.0f);
  79:legacy_engine.h ****     if (targetGainCoef < gainCoef) {
  80:legacy_engine.h ****       gainCoef = targetGainCoef;
  81:legacy_engine.h ****     } else {
  82:legacy_engine.h ****       gainCoef = gainCoef * (1.0f - releaseCoef) + targetGainCoef * releaseCoef;
  83:legacy_engine.h ****     }
  84:legacy_engine.h ****     return in * gainCoef;
  85:legacy_engine.h ****   }
  86:legacy_engine.h **** };
  87:legacy_engine.h **** 
  88:legacy_engine.h **** class LoudnessDetector {
  89:legacy_engine.h **** public:
  90:legacy_engine.h ****   Slew slew;
  91:legacy_engine.h ****   float lastVal = 0;
  92:legacy_engine.h ****   void Init() { slew.Init(); }
  93:legacy_engine.h ****   float Get() { return this->lastVal; }
  94:legacy_engine.h ****   float Process(float x) {
  95:legacy_engine.h ****     lastVal = slew.Process(fabsf(x));
  96:legacy_engine.h ****     return x;
  97:legacy_engine.h ****   }
  98:legacy_engine.h **** };
  99:legacy_engine.h **** 
 100:legacy_engine.h **** class ReadHead {
 101:legacy_engine.h **** public:
 102:legacy_engine.h ****   LoudnessDetector loudness;
 103:legacy_engine.h ****   float *buffer;
 104:legacy_engine.h ****   int bufferSize;
 105:legacy_engine.h ****   float delayA = 0.0f, delayB = 0.0f, targetDelay = -1.0f;
 106:legacy_engine.h ****   float ampA = 0.0f, ampB = 0.0f, targetAmp = -1.0f;
 107:legacy_engine.h ****   float sampleRate;
 108:legacy_engine.h ****   float phase = 1.0f;
 109:legacy_engine.h ****   float delta;
 110:legacy_engine.h ****   float blurAmount;
 111:legacy_engine.h **** 
 112:legacy_engine.h ****   void Init(float sr, float *buf, int size) {
 113:legacy_engine.h ****     sampleRate = sr;
 114:legacy_engine.h ****     delta = 5.0f / sr;
 115:legacy_engine.h ****     buffer = buf;
 116:legacy_engine.h ****     bufferSize = size;
 117:legacy_engine.h ****     blurAmount = 0.0f;
 118:legacy_engine.h ****     loudness.Init();
 119:legacy_engine.h ****   }
 120:legacy_engine.h **** 
 121:legacy_engine.h ****   void Set(float delay, float amp, float blur = 0) {
 122:legacy_engine.h ****     targetDelay = delay;
 123:legacy_engine.h ****     targetAmp = amp;
 124:legacy_engine.h ****     blurAmount = blur;
 125:legacy_engine.h ****   }
 126:legacy_engine.h **** 
ARM GAS  /var/folders/v1/156fk8j97zv9pzndh61fy7zm0000gn/T//ccyHp6tG.s 			page 17


 127:legacy_engine.h ****   float Process(float writeHeadPosition) {
 128:legacy_engine.h ****     if (phase >= 1.0f && (targetDelay >= 0.0f || targetAmp >= 0.0f)) {
 129:legacy_engine.h ****       if (targetDelay >= 0.0f) {
 130:legacy_engine.h ****         delayA = delayB;
 131:legacy_engine.h ****         delayB = targetDelay;
 132:legacy_engine.h ****         targetDelay = -1.0f;
 133:legacy_engine.h ****       }
 134:legacy_engine.h ****       if (targetAmp >= 0.0f) {
 135:legacy_engine.h ****         ampA = ampB;
 136:legacy_engine.h ****         ampB = targetAmp;
 137:legacy_engine.h ****         targetAmp = -1.0f;
 138:legacy_engine.h ****       }
 139:legacy_engine.h ****       phase = 0.0f;
 140:legacy_engine.h ****       // Simple random for blur
 141:legacy_engine.h ****       float r = ((float)rand() / (float)RAND_MAX) * 2.0f - 1.0f;
 142:legacy_engine.h ****       delta = (5.0f + (r * blurAmount)) / sampleRate;
 143:legacy_engine.h ****     }
 144:legacy_engine.h **** 
 145:legacy_engine.h ****     int idxA = LegacyHelpers::wrap_buffer_index(
 146:legacy_engine.h ****         writeHeadPosition -
 147:legacy_engine.h ****             LegacyHelpers::seconds_to_samples(delayA, sampleRate),
 148:legacy_engine.h ****         bufferSize);
 149:legacy_engine.h ****     int idxB = LegacyHelpers::wrap_buffer_index(
 150:legacy_engine.h ****         writeHeadPosition -
 151:legacy_engine.h ****             LegacyHelpers::seconds_to_samples(delayB, sampleRate),
 152:legacy_engine.h ****         bufferSize);
 153:legacy_engine.h **** 
 154:legacy_engine.h ****     float outA = buffer[idxA];
 155:legacy_engine.h ****     float outB = buffer[idxB];
 156:legacy_engine.h **** 
 157:legacy_engine.h ****     float output = ((1.0f - phase) * outA) + (phase * outB);
 158:legacy_engine.h ****     float outputAmp = ((1.0f - phase) * ampA) + (phase * ampB);
 159:legacy_engine.h **** 
 160:legacy_engine.h ****     phase = phase <= 1.0f ? phase + delta : 1.0f;
 161:legacy_engine.h ****     return loudness.Process(output) * outputAmp;
 162:legacy_engine.h ****   }
 163:legacy_engine.h **** };
 164:legacy_engine.h **** 
 165:legacy_engine.h **** class LegacyMonoEngine {
 166:legacy_engine.h **** public:
 167:legacy_engine.h ****   ReadHead readHeads[8];
 168:legacy_engine.h ****   LoudnessDetector loudness;
 169:legacy_engine.h ****   float sampleRate;
 170:legacy_engine.h ****   float *buffer;
 171:legacy_engine.h ****   int bufferSize;
 172:legacy_engine.h ****   int writeHeadPosition;
 173:legacy_engine.h ****   float dryAmp, feedback, blur;
 174:legacy_engine.h **** 
 175:legacy_engine.h ****   Slew dryAmpSlew, feedbackSlew, ampCoefSlew;
 176:legacy_engine.h ****   Limiter outputLimiter, feedbackLimiter;
 177:legacy_engine.h ****   daisysp::Compressor compressor;
 178:legacy_engine.h ****   // Skipping DC Blocker for simplicity/size, compressor handles dynamics
 179:legacy_engine.h **** 
 180:legacy_engine.h ****   void Init(float sr, float maxDelay, float *buf) {
 181:legacy_engine.h ****     sampleRate = sr;
 182:legacy_engine.h ****     bufferSize = LegacyHelpers::seconds_to_samples(maxDelay, sr);
 183:legacy_engine.h ****     buffer = buf;
ARM GAS  /var/folders/v1/156fk8j97zv9pzndh61fy7zm0000gn/T//ccyHp6tG.s 			page 18


 184:legacy_engine.h ****     for (int i = 0; i < bufferSize; i++)
 185:legacy_engine.h ****       buffer[i] = 0.0f;
 186:legacy_engine.h ****     for (int i = 0; i < 8; i++)
 187:legacy_engine.h ****       readHeads[i].Init(sr, buffer, bufferSize);
 188:legacy_engine.h ****     writeHeadPosition = 0;
 189:legacy_engine.h **** 
 190:legacy_engine.h ****     dryAmpSlew.Init();
 191:legacy_engine.h ****     feedbackSlew.Init(0.01f);
 192:legacy_engine.h ****     ampCoefSlew.Init(0.0001f);
 193:legacy_engine.h ****     outputLimiter.Init(sr);
 194:legacy_engine.h ****     feedbackLimiter.Init(sr);
 195:legacy_engine.h ****     loudness.Init();
 196:legacy_engine.h **** 
 197:legacy_engine.h ****     compressor.Init(sr);
 198:legacy_engine.h ****     compressor.SetAttack(0.02f);
 199:legacy_engine.h ****     compressor.SetRelease(0.2f);
 200:legacy_engine.h ****     compressor.SetRatio(5.0f);
 201:legacy_engine.h ****     compressor.SetThreshold(0.0f); // 0dB? Original was 0.0.
 202:legacy_engine.h ****   }
 203:legacy_engine.h **** 
 204:legacy_engine.h ****   void Set(float d, float f, float b) {
 205:legacy_engine.h ****     dryAmp = d;
 206:legacy_engine.h ****     feedback = f;
 207:legacy_engine.h ****     blur = b;
 208:legacy_engine.h ****   }
 209:legacy_engine.h **** 
 210:legacy_engine.h ****   float Process(float in) {
 211:legacy_engine.h ****     float out = 0.0f;
 212:legacy_engine.h ****     float ampCoef = 0.0f;
 213:legacy_engine.h ****     for (int i = 0; i < 8; i++) {
 214:legacy_engine.h ****       // Approximate targetAmp access
 215:legacy_engine.h ****       ampCoef += readHeads[i].ampB; // close enough
 216:legacy_engine.h ****     }
 217:legacy_engine.h ****     ampCoef = ampCoefSlew.Process(1.0f / std::max(1.0f, ampCoef));
 218:legacy_engine.h **** 
 219:legacy_engine.h ****     buffer[writeHeadPosition] = loudness.Process(in);
 220:legacy_engine.h **** 
 221:legacy_engine.h ****     for (int i = 0; i < 8; i++)
 222:legacy_engine.h ****       out += readHeads[i].Process((float)writeHeadPosition);
 223:legacy_engine.h **** 
 224:legacy_engine.h ****     // Compressor sidechaining to input?
 225:legacy_engine.h ****     out = compressor.Process(out, buffer[writeHeadPosition] + out);
 226:legacy_engine.h **** 
 227:legacy_engine.h ****     float fb_val = buffer[writeHeadPosition] +
 228:legacy_engine.h ****                    (out * feedbackSlew.Process(feedback) * ampCoef);
 229:legacy_engine.h ****     buffer[writeHeadPosition] = -feedbackLimiter.Process(fb_val);
 230:legacy_engine.h **** 
 231:legacy_engine.h ****     float final_out =
 232:legacy_engine.h ****         outputLimiter.Process(out + in * dryAmpSlew.Process(dryAmp));
 233:legacy_engine.h **** 
 234:legacy_engine.h ****     writeHeadPosition++;
 235:legacy_engine.h ****     if (writeHeadPosition >= bufferSize)
 236:legacy_engine.h ****       writeHeadPosition = 0;
 237:legacy_engine.h **** 
 238:legacy_engine.h ****     return final_out;
 239:legacy_engine.h ****   }
 240:legacy_engine.h **** };
ARM GAS  /var/folders/v1/156fk8j97zv9pzndh61fy7zm0000gn/T//ccyHp6tG.s 			page 19


 241:legacy_engine.h **** 
 242:legacy_engine.h **** class LegacyStereoEngine {
 165              		.loc 11 242 7 is_stmt 1 view -0
 166              		.cfi_startproc
 167              		@ args = 0, pretend = 0, frame = 0
 168              		@ frame_needed = 0, uses_anonymous_args = 0
 169              		@ link register save eliminated.
 170              	.LBB543:
 171              	.LBB544:
 172              	.LBI544:
 165:legacy_engine.h **** public:
 173              		.loc 11 165 7 view .LVU23
 174              	.LBB545:
 175              	.LBI545:
 176              		.file 12 "../temp_time_machine/DaisyExamples/DaisySP//DaisySP-LGPL/Source/Dynamics/compressor.h"
   1:../temp_time_machine/DaisyExamples/DaisySP//DaisySP-LGPL/Source/Dynamics/compressor.h **** /*
   2:../temp_time_machine/DaisyExamples/DaisySP//DaisySP-LGPL/Source/Dynamics/compressor.h **** Copyright (c) 2023 Electrosmith, Corp, GRAME, Centre National de Creation Musicale.
   3:../temp_time_machine/DaisyExamples/DaisySP//DaisySP-LGPL/Source/Dynamics/compressor.h **** 
   4:../temp_time_machine/DaisyExamples/DaisySP//DaisySP-LGPL/Source/Dynamics/compressor.h **** Use of this source code is governed by the LGPL V2.1
   5:../temp_time_machine/DaisyExamples/DaisySP//DaisySP-LGPL/Source/Dynamics/compressor.h **** license that can be found in the LICENSE file or at
   6:../temp_time_machine/DaisyExamples/DaisySP//DaisySP-LGPL/Source/Dynamics/compressor.h **** https://opensource.org/license/lgpl-2-1/
   7:../temp_time_machine/DaisyExamples/DaisySP//DaisySP-LGPL/Source/Dynamics/compressor.h **** */
   8:../temp_time_machine/DaisyExamples/DaisySP//DaisySP-LGPL/Source/Dynamics/compressor.h **** 
   9:../temp_time_machine/DaisyExamples/DaisySP//DaisySP-LGPL/Source/Dynamics/compressor.h **** #pragma once
  10:../temp_time_machine/DaisyExamples/DaisySP//DaisySP-LGPL/Source/Dynamics/compressor.h **** #ifndef DSY_COMPRESSOR_H
  11:../temp_time_machine/DaisyExamples/DaisySP//DaisySP-LGPL/Source/Dynamics/compressor.h **** #define DSY_COMPRESSOR_H
  12:../temp_time_machine/DaisyExamples/DaisySP//DaisySP-LGPL/Source/Dynamics/compressor.h **** 
  13:../temp_time_machine/DaisyExamples/DaisySP//DaisySP-LGPL/Source/Dynamics/compressor.h **** #include "Utility/dsp.h"
  14:../temp_time_machine/DaisyExamples/DaisySP//DaisySP-LGPL/Source/Dynamics/compressor.h **** 
  15:../temp_time_machine/DaisyExamples/DaisySP//DaisySP-LGPL/Source/Dynamics/compressor.h **** namespace daisysp
  16:../temp_time_machine/DaisyExamples/DaisySP//DaisySP-LGPL/Source/Dynamics/compressor.h **** {
  17:../temp_time_machine/DaisyExamples/DaisySP//DaisySP-LGPL/Source/Dynamics/compressor.h **** /** dynamics compressor
  18:../temp_time_machine/DaisyExamples/DaisySP//DaisySP-LGPL/Source/Dynamics/compressor.h **** 
  19:../temp_time_machine/DaisyExamples/DaisySP//DaisySP-LGPL/Source/Dynamics/compressor.h **** influenced by compressor in soundpipe (from faust).
  20:../temp_time_machine/DaisyExamples/DaisySP//DaisySP-LGPL/Source/Dynamics/compressor.h **** 
  21:../temp_time_machine/DaisyExamples/DaisySP//DaisySP-LGPL/Source/Dynamics/compressor.h **** Modifications made to do:
  22:../temp_time_machine/DaisyExamples/DaisySP//DaisySP-LGPL/Source/Dynamics/compressor.h **** - Less calculations during each process loop (coefficients recalculated on parameter change).
  23:../temp_time_machine/DaisyExamples/DaisySP//DaisySP-LGPL/Source/Dynamics/compressor.h **** - C++-ified
  24:../temp_time_machine/DaisyExamples/DaisySP//DaisySP-LGPL/Source/Dynamics/compressor.h **** - added sidechain support
  25:../temp_time_machine/DaisyExamples/DaisySP//DaisySP-LGPL/Source/Dynamics/compressor.h **** - pulled gain apart for monitoring and multichannel support
  26:../temp_time_machine/DaisyExamples/DaisySP//DaisySP-LGPL/Source/Dynamics/compressor.h **** - improved readability
  27:../temp_time_machine/DaisyExamples/DaisySP//DaisySP-LGPL/Source/Dynamics/compressor.h **** - improved makeup-gain calculations
  28:../temp_time_machine/DaisyExamples/DaisySP//DaisySP-LGPL/Source/Dynamics/compressor.h **** - changing controls now costs a lot less
  29:../temp_time_machine/DaisyExamples/DaisySP//DaisySP-LGPL/Source/Dynamics/compressor.h **** - a lot less expensive
  30:../temp_time_machine/DaisyExamples/DaisySP//DaisySP-LGPL/Source/Dynamics/compressor.h **** 
  31:../temp_time_machine/DaisyExamples/DaisySP//DaisySP-LGPL/Source/Dynamics/compressor.h **** by: shensley, improved upon by AvAars
  32:../temp_time_machine/DaisyExamples/DaisySP//DaisySP-LGPL/Source/Dynamics/compressor.h **** \todo Add soft/hard knee settings
  33:../temp_time_machine/DaisyExamples/DaisySP//DaisySP-LGPL/Source/Dynamics/compressor.h **** */
  34:../temp_time_machine/DaisyExamples/DaisySP//DaisySP-LGPL/Source/Dynamics/compressor.h **** class Compressor
  35:../temp_time_machine/DaisyExamples/DaisySP//DaisySP-LGPL/Source/Dynamics/compressor.h **** {
  36:../temp_time_machine/DaisyExamples/DaisySP//DaisySP-LGPL/Source/Dynamics/compressor.h ****   public:
  37:../temp_time_machine/DaisyExamples/DaisySP//DaisySP-LGPL/Source/Dynamics/compressor.h ****     Compressor() {}
  38:../temp_time_machine/DaisyExamples/DaisySP//DaisySP-LGPL/Source/Dynamics/compressor.h ****     ~Compressor() {}
 177              		.loc 12 38 5 view .LVU24
 178              		.loc 12 38 5 is_stmt 0 view .LVU25
 179              	.LBE545:
 180              	.LBE544:
ARM GAS  /var/folders/v1/156fk8j97zv9pzndh61fy7zm0000gn/T//ccyHp6tG.s 			page 20


 181              	.LBB546:
 182              	.LBI546:
 165:legacy_engine.h **** public:
 183              		.loc 11 165 7 is_stmt 1 view .LVU26
 184              	.LBB547:
 185              	.LBI547:
 186              		.loc 12 38 5 view .LVU27
 187              		.loc 12 38 5 is_stmt 0 view .LVU28
 188              	.LBE547:
 189              	.LBE546:
 190              	.LBE543:
 191              		.loc 11 242 7 view .LVU29
 192 0000 7047     		bx	lr
 193              		.cfi_endproc
 194              	.LFE5611:
 196              		.weak	_ZN3oam6legacy18LegacyStereoEngineD1Ev
 197              		.thumb_set _ZN3oam6legacy18LegacyStereoEngineD1Ev,_ZN3oam6legacy18LegacyStereoEngineD2Ev
 198 0002 00BF     		.section	.text._ZN7daisysp12PitchShifter7ProcessERf,"axG",%progbits,_ZN7daisysp12PitchShifter7Proc
 199              		.align	1
 200              		.p2align 2,,3
 201              		.weak	_ZN7daisysp12PitchShifter7ProcessERf
 202              		.syntax unified
 203              		.thumb
 204              		.thumb_func
 206              	_ZN7daisysp12PitchShifter7ProcessERf:
 207              	.LVL4:
 208              	.LFB3061:
 209              		.file 13 "../temp_time_machine/DaisyExamples/DaisySP//Source/Effects/pitchshifter.h"
   1:../temp_time_machine/DaisyExamples/DaisySP//Source/Effects/pitchshifter.h **** /*
   2:../temp_time_machine/DaisyExamples/DaisySP//Source/Effects/pitchshifter.h **** Copyright (c) 2020 Electrosmith, Corp
   3:../temp_time_machine/DaisyExamples/DaisySP//Source/Effects/pitchshifter.h **** 
   4:../temp_time_machine/DaisyExamples/DaisySP//Source/Effects/pitchshifter.h **** Use of this source code is governed by an MIT-style
   5:../temp_time_machine/DaisyExamples/DaisySP//Source/Effects/pitchshifter.h **** license that can be found in the LICENSE file or at
   6:../temp_time_machine/DaisyExamples/DaisySP//Source/Effects/pitchshifter.h **** https://opensource.org/licenses/MIT.
   7:../temp_time_machine/DaisyExamples/DaisySP//Source/Effects/pitchshifter.h **** */
   8:../temp_time_machine/DaisyExamples/DaisySP//Source/Effects/pitchshifter.h **** 
   9:../temp_time_machine/DaisyExamples/DaisySP//Source/Effects/pitchshifter.h **** #pragma once
  10:../temp_time_machine/DaisyExamples/DaisySP//Source/Effects/pitchshifter.h **** #ifndef DSY_PITCHSHIFTER_H
  11:../temp_time_machine/DaisyExamples/DaisySP//Source/Effects/pitchshifter.h **** #define DSY_PITCHSHIFTER_H
  12:../temp_time_machine/DaisyExamples/DaisySP//Source/Effects/pitchshifter.h **** #include <stdint.h>
  13:../temp_time_machine/DaisyExamples/DaisySP//Source/Effects/pitchshifter.h **** #include <cmath>
  14:../temp_time_machine/DaisyExamples/DaisySP//Source/Effects/pitchshifter.h **** #ifdef USE_ARM_DSP
  15:../temp_time_machine/DaisyExamples/DaisySP//Source/Effects/pitchshifter.h **** #include "arm_math.h"
  16:../temp_time_machine/DaisyExamples/DaisySP//Source/Effects/pitchshifter.h **** #endif
  17:../temp_time_machine/DaisyExamples/DaisySP//Source/Effects/pitchshifter.h **** #include "Utility/dsp.h"
  18:../temp_time_machine/DaisyExamples/DaisySP//Source/Effects/pitchshifter.h **** #include "Utility/delayline.h"
  19:../temp_time_machine/DaisyExamples/DaisySP//Source/Effects/pitchshifter.h **** #include "Control/phasor.h"
  20:../temp_time_machine/DaisyExamples/DaisySP//Source/Effects/pitchshifter.h **** 
  21:../temp_time_machine/DaisyExamples/DaisySP//Source/Effects/pitchshifter.h **** /** Shift can be 30-100 ms lets just start with 50 for now.
  22:../temp_time_machine/DaisyExamples/DaisySP//Source/Effects/pitchshifter.h **** 0.050 * SR = 2400 samples (at 48kHz)
  23:../temp_time_machine/DaisyExamples/DaisySP//Source/Effects/pitchshifter.h **** */
  24:../temp_time_machine/DaisyExamples/DaisySP//Source/Effects/pitchshifter.h **** #define SHIFT_BUFFER_SIZE 16384
  25:../temp_time_machine/DaisyExamples/DaisySP//Source/Effects/pitchshifter.h **** //#define SHIFT_BUFFER_SIZE 4800
  26:../temp_time_machine/DaisyExamples/DaisySP//Source/Effects/pitchshifter.h **** //#define SHIFT_BUFFER_SIZE 8192
  27:../temp_time_machine/DaisyExamples/DaisySP//Source/Effects/pitchshifter.h **** //#define SHIFT_BUFFER_SIZE 1024
  28:../temp_time_machine/DaisyExamples/DaisySP//Source/Effects/pitchshifter.h **** 
  29:../temp_time_machine/DaisyExamples/DaisySP//Source/Effects/pitchshifter.h **** namespace daisysp
ARM GAS  /var/folders/v1/156fk8j97zv9pzndh61fy7zm0000gn/T//ccyHp6tG.s 			page 21


  30:../temp_time_machine/DaisyExamples/DaisySP//Source/Effects/pitchshifter.h **** {
  31:../temp_time_machine/DaisyExamples/DaisySP//Source/Effects/pitchshifter.h **** static inline uint32_t hash_xs32(uint32_t x)
  32:../temp_time_machine/DaisyExamples/DaisySP//Source/Effects/pitchshifter.h **** {
  33:../temp_time_machine/DaisyExamples/DaisySP//Source/Effects/pitchshifter.h ****     x ^= x << 13;
  34:../temp_time_machine/DaisyExamples/DaisySP//Source/Effects/pitchshifter.h ****     x ^= x >> 17;
  35:../temp_time_machine/DaisyExamples/DaisySP//Source/Effects/pitchshifter.h ****     x ^= x << 5;
  36:../temp_time_machine/DaisyExamples/DaisySP//Source/Effects/pitchshifter.h ****     return x;
  37:../temp_time_machine/DaisyExamples/DaisySP//Source/Effects/pitchshifter.h **** }
  38:../temp_time_machine/DaisyExamples/DaisySP//Source/Effects/pitchshifter.h **** 
  39:../temp_time_machine/DaisyExamples/DaisySP//Source/Effects/pitchshifter.h **** inline uint32_t myrand()
  40:../temp_time_machine/DaisyExamples/DaisySP//Source/Effects/pitchshifter.h **** {
  41:../temp_time_machine/DaisyExamples/DaisySP//Source/Effects/pitchshifter.h ****     static uint32_t seed = 1;
  42:../temp_time_machine/DaisyExamples/DaisySP//Source/Effects/pitchshifter.h ****     seed                 = hash_xs32(seed);
  43:../temp_time_machine/DaisyExamples/DaisySP//Source/Effects/pitchshifter.h ****     return seed;
  44:../temp_time_machine/DaisyExamples/DaisySP//Source/Effects/pitchshifter.h **** }
  45:../temp_time_machine/DaisyExamples/DaisySP//Source/Effects/pitchshifter.h **** 
  46:../temp_time_machine/DaisyExamples/DaisySP//Source/Effects/pitchshifter.h **** /**  time-domain pitchshifter
  47:../temp_time_machine/DaisyExamples/DaisySP//Source/Effects/pitchshifter.h **** 
  48:../temp_time_machine/DaisyExamples/DaisySP//Source/Effects/pitchshifter.h **** Author: shensley
  49:../temp_time_machine/DaisyExamples/DaisySP//Source/Effects/pitchshifter.h **** 
  50:../temp_time_machine/DaisyExamples/DaisySP//Source/Effects/pitchshifter.h **** Based on "Pitch Shifting" from ucsd.edu 
  51:../temp_time_machine/DaisyExamples/DaisySP//Source/Effects/pitchshifter.h **** 
  52:../temp_time_machine/DaisyExamples/DaisySP//Source/Effects/pitchshifter.h **** t = 1 - ((s *f) / R)
  53:../temp_time_machine/DaisyExamples/DaisySP//Source/Effects/pitchshifter.h **** 
  54:../temp_time_machine/DaisyExamples/DaisySP//Source/Effects/pitchshifter.h **** where:
  55:../temp_time_machine/DaisyExamples/DaisySP//Source/Effects/pitchshifter.h ****     s is the size of the delay
  56:../temp_time_machine/DaisyExamples/DaisySP//Source/Effects/pitchshifter.h ****     f is the frequency of the lfo
  57:../temp_time_machine/DaisyExamples/DaisySP//Source/Effects/pitchshifter.h ****     r is the sample_rate
  58:../temp_time_machine/DaisyExamples/DaisySP//Source/Effects/pitchshifter.h **** 
  59:../temp_time_machine/DaisyExamples/DaisySP//Source/Effects/pitchshifter.h **** solving for t = 12.0
  60:../temp_time_machine/DaisyExamples/DaisySP//Source/Effects/pitchshifter.h **** f = (12 - 1) * 48000 / SHIFT_BUFFER_SIZE;
  61:../temp_time_machine/DaisyExamples/DaisySP//Source/Effects/pitchshifter.h **** 
  62:../temp_time_machine/DaisyExamples/DaisySP//Source/Effects/pitchshifter.h **** \todo - move hash_xs32 and myrand to dsp.h and give appropriate names
  63:../temp_time_machine/DaisyExamples/DaisySP//Source/Effects/pitchshifter.h **** */
  64:../temp_time_machine/DaisyExamples/DaisySP//Source/Effects/pitchshifter.h **** class PitchShifter
  65:../temp_time_machine/DaisyExamples/DaisySP//Source/Effects/pitchshifter.h **** {
  66:../temp_time_machine/DaisyExamples/DaisySP//Source/Effects/pitchshifter.h ****   public:
  67:../temp_time_machine/DaisyExamples/DaisySP//Source/Effects/pitchshifter.h ****     PitchShifter() {}
  68:../temp_time_machine/DaisyExamples/DaisySP//Source/Effects/pitchshifter.h ****     ~PitchShifter() {}
  69:../temp_time_machine/DaisyExamples/DaisySP//Source/Effects/pitchshifter.h ****     /** Initialize pitch shifter
  70:../temp_time_machine/DaisyExamples/DaisySP//Source/Effects/pitchshifter.h ****     */
  71:../temp_time_machine/DaisyExamples/DaisySP//Source/Effects/pitchshifter.h ****     void Init(float sr)
  72:../temp_time_machine/DaisyExamples/DaisySP//Source/Effects/pitchshifter.h ****     {
  73:../temp_time_machine/DaisyExamples/DaisySP//Source/Effects/pitchshifter.h ****         force_recalc_ = false;
  74:../temp_time_machine/DaisyExamples/DaisySP//Source/Effects/pitchshifter.h ****         sr_           = sr;
  75:../temp_time_machine/DaisyExamples/DaisySP//Source/Effects/pitchshifter.h ****         mod_freq_     = 5.0f;
  76:../temp_time_machine/DaisyExamples/DaisySP//Source/Effects/pitchshifter.h ****         SetSemitones();
  77:../temp_time_machine/DaisyExamples/DaisySP//Source/Effects/pitchshifter.h ****         for(uint8_t i = 0; i < 2; i++)
  78:../temp_time_machine/DaisyExamples/DaisySP//Source/Effects/pitchshifter.h ****         {
  79:../temp_time_machine/DaisyExamples/DaisySP//Source/Effects/pitchshifter.h ****             gain_[i] = 0.0f;
  80:../temp_time_machine/DaisyExamples/DaisySP//Source/Effects/pitchshifter.h ****             d_[i].Init();
  81:../temp_time_machine/DaisyExamples/DaisySP//Source/Effects/pitchshifter.h ****             phs_[i].Init(sr, 50, i == 0 ? 0 : PI_F);
  82:../temp_time_machine/DaisyExamples/DaisySP//Source/Effects/pitchshifter.h ****         }
  83:../temp_time_machine/DaisyExamples/DaisySP//Source/Effects/pitchshifter.h ****         shift_up_ = true;
  84:../temp_time_machine/DaisyExamples/DaisySP//Source/Effects/pitchshifter.h ****         del_size_ = SHIFT_BUFFER_SIZE;
  85:../temp_time_machine/DaisyExamples/DaisySP//Source/Effects/pitchshifter.h ****         SetDelSize(del_size_);
  86:../temp_time_machine/DaisyExamples/DaisySP//Source/Effects/pitchshifter.h ****         fun_ = 0.0f;
ARM GAS  /var/folders/v1/156fk8j97zv9pzndh61fy7zm0000gn/T//ccyHp6tG.s 			page 22


  87:../temp_time_machine/DaisyExamples/DaisySP//Source/Effects/pitchshifter.h ****     }
  88:../temp_time_machine/DaisyExamples/DaisySP//Source/Effects/pitchshifter.h **** 
  89:../temp_time_machine/DaisyExamples/DaisySP//Source/Effects/pitchshifter.h ****     /** process pitch shifter
  90:../temp_time_machine/DaisyExamples/DaisySP//Source/Effects/pitchshifter.h ****     */
  91:../temp_time_machine/DaisyExamples/DaisySP//Source/Effects/pitchshifter.h ****     float Process(float &in)
 210              		.loc 13 91 11 is_stmt 1 view -0
 211              		.cfi_startproc
 212              		@ args = 0, pretend = 0, frame = 0
 213              		@ frame_needed = 0, uses_anonymous_args = 0
  92:../temp_time_machine/DaisyExamples/DaisySP//Source/Effects/pitchshifter.h ****     {
  93:../temp_time_machine/DaisyExamples/DaisySP//Source/Effects/pitchshifter.h ****         float val, fade1, fade2;
 214              		.loc 13 93 9 view .LVU31
  94:../temp_time_machine/DaisyExamples/DaisySP//Source/Effects/pitchshifter.h ****         // First Process delay mod/crossfade
  95:../temp_time_machine/DaisyExamples/DaisySP//Source/Effects/pitchshifter.h ****         fade1 = phs_[0].Process();
 215              		.loc 13 95 9 view .LVU32
  91:../temp_time_machine/DaisyExamples/DaisySP//Source/Effects/pitchshifter.h ****     {
 216              		.loc 13 91 11 is_stmt 0 view .LVU33
 217 0000 F8B5     		push	{r3, r4, r5, r6, r7, lr}
 218              		.cfi_def_cfa_offset 24
 219              		.cfi_offset 3, -24
 220              		.cfi_offset 4, -20
 221              		.cfi_offset 5, -16
 222              		.cfi_offset 6, -12
 223              		.cfi_offset 7, -8
 224              		.cfi_offset 14, -4
 225 0002 0546     		mov	r5, r0
 226              		.loc 13 95 32 view .LVU34
 227 0004 A748     		ldr	r0, .L17
 228              	.LVL5:
  91:../temp_time_machine/DaisyExamples/DaisySP//Source/Effects/pitchshifter.h ****     {
 229              		.loc 13 91 11 view .LVU35
 230 0006 0E46     		mov	r6, r1
 231              		.loc 13 95 32 view .LVU36
 232 0008 2844     		add	r0, r0, r5
  96:../temp_time_machine/DaisyExamples/DaisySP//Source/Effects/pitchshifter.h ****         fade2 = phs_[1].Process();
  97:../temp_time_machine/DaisyExamples/DaisySP//Source/Effects/pitchshifter.h ****         if(prev_phs_a_ > fade1)
  98:../temp_time_machine/DaisyExamples/DaisySP//Source/Effects/pitchshifter.h ****         {
  99:../temp_time_machine/DaisyExamples/DaisySP//Source/Effects/pitchshifter.h ****             mod_a_amt_ = fun_ * ((float)(myrand() % 255) / 255.0f)
 100:../temp_time_machine/DaisyExamples/DaisySP//Source/Effects/pitchshifter.h ****                          * (del_size_ * 0.5f);
 233              		.loc 13 100 29 view .LVU37
 234 000a 05F50034 		add	r4, r5, #131072
  91:../temp_time_machine/DaisyExamples/DaisySP//Source/Effects/pitchshifter.h ****     {
 235              		.loc 13 91 11 view .LVU38
 236 000e 2DED088B 		vpush.64	{d8, d9, d10, d11}
 237              		.cfi_def_cfa_offset 56
 238              		.cfi_offset 80, -56
 239              		.cfi_offset 81, -52
 240              		.cfi_offset 82, -48
 241              		.cfi_offset 83, -44
 242              		.cfi_offset 84, -40
 243              		.cfi_offset 85, -36
 244              		.cfi_offset 86, -32
 245              		.cfi_offset 87, -28
  95:../temp_time_machine/DaisyExamples/DaisySP//Source/Effects/pitchshifter.h ****         fade2 = phs_[1].Process();
 246              		.loc 13 95 32 view .LVU39
 247 0012 FFF7FEFF 		bl	_ZN7daisysp6Phasor7ProcessEv
 248              	.LVL6:
ARM GAS  /var/folders/v1/156fk8j97zv9pzndh61fy7zm0000gn/T//ccyHp6tG.s 			page 23


  96:../temp_time_machine/DaisyExamples/DaisySP//Source/Effects/pitchshifter.h ****         fade2 = phs_[1].Process();
 249              		.loc 13 96 32 view .LVU40
 250 0016 A448     		ldr	r0, .L17+4
  95:../temp_time_machine/DaisyExamples/DaisySP//Source/Effects/pitchshifter.h ****         fade2 = phs_[1].Process();
 251              		.loc 13 95 32 view .LVU41
 252 0018 F0EE409A 		vmov.f32	s19, s0
 253              	.LVL7:
  96:../temp_time_machine/DaisyExamples/DaisySP//Source/Effects/pitchshifter.h ****         fade2 = phs_[1].Process();
 254              		.loc 13 96 9 is_stmt 1 view .LVU42
  96:../temp_time_machine/DaisyExamples/DaisySP//Source/Effects/pitchshifter.h ****         fade2 = phs_[1].Process();
 255              		.loc 13 96 32 is_stmt 0 view .LVU43
 256 001c 2844     		add	r0, r0, r5
 257 001e FFF7FEFF 		bl	_ZN7daisysp6Phasor7ProcessEv
 258              	.LVL8:
  97:../temp_time_machine/DaisyExamples/DaisySP//Source/Effects/pitchshifter.h ****         {
 259              		.loc 13 97 9 view .LVU44
 260 0022 D4ED1C7A 		vldr.32	s15, [r4, #112]
  96:../temp_time_machine/DaisyExamples/DaisySP//Source/Effects/pitchshifter.h ****         fade2 = phs_[1].Process();
 261              		.loc 13 96 32 view .LVU45
 262 0026 F0EE40AA 		vmov.f32	s21, s0
 263              	.LVL9:
  97:../temp_time_machine/DaisyExamples/DaisySP//Source/Effects/pitchshifter.h ****         {
 264              		.loc 13 97 9 is_stmt 1 view .LVU46
 265              		.loc 13 100 29 is_stmt 0 view .LVU47
 266 002a 236A     		ldr	r3, [r4, #32]
  97:../temp_time_machine/DaisyExamples/DaisySP//Source/Effects/pitchshifter.h ****         {
 267              		.loc 13 97 9 view .LVU48
 268 002c F4EEE97A 		vcmpe.f32	s15, s19
 269 0030 F1EE10FA 		vmrs	APSR_nzcv, FPSCR
 270 0034 00F3F480 		bgt	.L8
 101:../temp_time_machine/DaisyExamples/DaisySP//Source/Effects/pitchshifter.h ****             mod_coeff_[0]
 102:../temp_time_machine/DaisyExamples/DaisySP//Source/Effects/pitchshifter.h ****                 = 0.0002f + (((float)(myrand() % 255) / 255.0f) * 0.001f);
 103:../temp_time_machine/DaisyExamples/DaisySP//Source/Effects/pitchshifter.h ****         }
 104:../temp_time_machine/DaisyExamples/DaisySP//Source/Effects/pitchshifter.h ****         if(prev_phs_b_ > fade2)
 105:../temp_time_machine/DaisyExamples/DaisySP//Source/Effects/pitchshifter.h ****         {
 106:../temp_time_machine/DaisyExamples/DaisySP//Source/Effects/pitchshifter.h ****             mod_b_amt_ = fun_ * ((float)(myrand() % 255) / 255.0f)
 107:../temp_time_machine/DaisyExamples/DaisySP//Source/Effects/pitchshifter.h ****                          * (del_size_ * 0.5f);
 108:../temp_time_machine/DaisyExamples/DaisySP//Source/Effects/pitchshifter.h ****             mod_coeff_[1]
 109:../temp_time_machine/DaisyExamples/DaisySP//Source/Effects/pitchshifter.h ****                 = 0.0002f + (((float)(myrand() % 255) / 255.0f) * 0.001f);
 110:../temp_time_machine/DaisyExamples/DaisySP//Source/Effects/pitchshifter.h ****         }
 111:../temp_time_machine/DaisyExamples/DaisySP//Source/Effects/pitchshifter.h ****         slewed_mod_[0] += mod_coeff_[0] * (mod_a_amt_ - slewed_mod_[0]);
 271              		.loc 13 111 39 view .LVU49
 272 0038 D4ED205A 		vldr.32	s11, [r4, #128]
 273              		.loc 13 111 44 view .LVU50
 274 003c 94ED1A7A 		vldr.32	s14, [r4, #104]
 275              	.L9:
 104:../temp_time_machine/DaisyExamples/DaisySP//Source/Effects/pitchshifter.h ****         {
 276              		.loc 13 104 9 is_stmt 1 view .LVU51
 277 0040 D4ED1D7A 		vldr.32	s15, [r4, #116]
 278 0044 F4EEEA7A 		vcmpe.f32	s15, s21
 279 0048 F1EE10FA 		vmrs	APSR_nzcv, FPSCR
 280 004c 00F3A580 		bgt	.L10
 112:../temp_time_machine/DaisyExamples/DaisySP//Source/Effects/pitchshifter.h ****         slewed_mod_[1] += mod_coeff_[1] * (mod_b_amt_ - slewed_mod_[1]);
 281              		.loc 13 112 39 is_stmt 0 view .LVU52
 282 0050 D4ED216A 		vldr.32	s13, [r4, #132]
 283              		.loc 13 112 44 view .LVU53
 284 0054 D4ED1B7A 		vldr.32	s15, [r4, #108]
ARM GAS  /var/folders/v1/156fk8j97zv9pzndh61fy7zm0000gn/T//ccyHp6tG.s 			page 24


 285              	.L11:
 111:../temp_time_machine/DaisyExamples/DaisySP//Source/Effects/pitchshifter.h ****         slewed_mod_[1] += mod_coeff_[1] * (mod_b_amt_ - slewed_mod_[1]);
 286              		.loc 13 111 9 is_stmt 1 view .LVU54
 111:../temp_time_machine/DaisyExamples/DaisySP//Source/Effects/pitchshifter.h ****         slewed_mod_[1] += mod_coeff_[1] * (mod_b_amt_ - slewed_mod_[1]);
 287              		.loc 13 111 22 is_stmt 0 view .LVU55
 288 0058 D4ED1E8A 		vldr.32	s17, [r4, #120]
 289              		.loc 13 112 22 view .LVU56
 290 005c 94ED1F8A 		vldr.32	s16, [r4, #124]
 111:../temp_time_machine/DaisyExamples/DaisySP//Source/Effects/pitchshifter.h ****         slewed_mod_[1] += mod_coeff_[1] * (mod_b_amt_ - slewed_mod_[1]);
 291              		.loc 13 111 55 view .LVU57
 292 0060 37EE687A 		vsub.f32	s14, s14, s17
 113:../temp_time_machine/DaisyExamples/DaisySP//Source/Effects/pitchshifter.h ****         prev_phs_a_ = fade1;
 114:../temp_time_machine/DaisyExamples/DaisySP//Source/Effects/pitchshifter.h ****         prev_phs_b_ = fade2;
 115:../temp_time_machine/DaisyExamples/DaisySP//Source/Effects/pitchshifter.h ****         if(shift_up_)
 293              		.loc 13 115 9 view .LVU58
 294 0064 94F82C20 		ldrb	r2, [r4, #44]	@ zero_extendqisi2
 112:../temp_time_machine/DaisyExamples/DaisySP//Source/Effects/pitchshifter.h ****         prev_phs_a_ = fade1;
 295              		.loc 13 112 55 view .LVU59
 296 0068 77EEC87A 		vsub.f32	s15, s15, s16
 113:../temp_time_machine/DaisyExamples/DaisySP//Source/Effects/pitchshifter.h ****         prev_phs_a_ = fade1;
 297              		.loc 13 113 21 view .LVU60
 298 006c C4ED1C9A 		vstr.32	s19, [r4, #112]
 114:../temp_time_machine/DaisyExamples/DaisySP//Source/Effects/pitchshifter.h ****         if(shift_up_)
 299              		.loc 13 114 21 view .LVU61
 300 0070 C4ED1DAA 		vstr.32	s21, [r4, #116]
 111:../temp_time_machine/DaisyExamples/DaisySP//Source/Effects/pitchshifter.h ****         slewed_mod_[1] += mod_coeff_[1] * (mod_b_amt_ - slewed_mod_[1]);
 301              		.loc 13 111 24 view .LVU62
 302 0074 E7EE258A 		vfma.f32	s17, s14, s11
 112:../temp_time_machine/DaisyExamples/DaisySP//Source/Effects/pitchshifter.h ****         prev_phs_a_ = fade1;
 303              		.loc 13 112 24 view .LVU63
 304 0078 A7EEA68A 		vfma.f32	s16, s15, s13
 111:../temp_time_machine/DaisyExamples/DaisySP//Source/Effects/pitchshifter.h ****         slewed_mod_[1] += mod_coeff_[1] * (mod_b_amt_ - slewed_mod_[1]);
 305              		.loc 13 111 24 view .LVU64
 306 007c C4ED1E8A 		vstr.32	s17, [r4, #120]
 112:../temp_time_machine/DaisyExamples/DaisySP//Source/Effects/pitchshifter.h ****         prev_phs_a_ = fade1;
 307              		.loc 13 112 9 is_stmt 1 view .LVU65
 112:../temp_time_machine/DaisyExamples/DaisySP//Source/Effects/pitchshifter.h ****         prev_phs_a_ = fade1;
 308              		.loc 13 112 24 is_stmt 0 view .LVU66
 309 0080 84ED1F8A 		vstr.32	s16, [r4, #124]
 113:../temp_time_machine/DaisyExamples/DaisySP//Source/Effects/pitchshifter.h ****         prev_phs_b_ = fade2;
 310              		.loc 13 113 9 is_stmt 1 view .LVU67
 114:../temp_time_machine/DaisyExamples/DaisySP//Source/Effects/pitchshifter.h ****         if(shift_up_)
 311              		.loc 13 114 9 view .LVU68
 312              		.loc 13 115 9 view .LVU69
 313 0084 2AB1     		cbz	r2, .L12
 116:../temp_time_machine/DaisyExamples/DaisySP//Source/Effects/pitchshifter.h ****         {
 117:../temp_time_machine/DaisyExamples/DaisySP//Source/Effects/pitchshifter.h ****             fade1 = 1.0f - fade1;
 314              		.loc 13 117 13 view .LVU70
 315              		.loc 13 117 19 is_stmt 0 view .LVU71
 316 0086 F7EE007A 		vmov.f32	s15, #1.0e+0
 317 008a 77EEE99A 		vsub.f32	s19, s15, s19
 318              	.LVL10:
 118:../temp_time_machine/DaisyExamples/DaisySP//Source/Effects/pitchshifter.h ****             fade2 = 1.0f - fade2;
 319              		.loc 13 118 13 is_stmt 1 view .LVU72
 320              		.loc 13 118 19 is_stmt 0 view .LVU73
 321 008e 77EEEAAA 		vsub.f32	s21, s15, s21
 322              	.L12:
ARM GAS  /var/folders/v1/156fk8j97zv9pzndh61fy7zm0000gn/T//ccyHp6tG.s 			page 25


 323              	.LVL11:
 119:../temp_time_machine/DaisyExamples/DaisySP//Source/Effects/pitchshifter.h ****         }
 120:../temp_time_machine/DaisyExamples/DaisySP//Source/Effects/pitchshifter.h ****         mod_[0] = fade1 * (del_size_ - 1);
 324              		.loc 13 120 9 is_stmt 1 view .LVU74
 325              		.loc 13 120 38 is_stmt 0 view .LVU75
 326 0092 013B     		subs	r3, r3, #1
 121:../temp_time_machine/DaisyExamples/DaisySP//Source/Effects/pitchshifter.h ****         mod_[1] = fade2 * (del_size_ - 1);
 122:../temp_time_machine/DaisyExamples/DaisySP//Source/Effects/pitchshifter.h **** #ifdef USE_ARM_DSP
 123:../temp_time_machine/DaisyExamples/DaisySP//Source/Effects/pitchshifter.h ****         gain_[0] = arm_sin_f32(fade1 * (float)M_PI);
 124:../temp_time_machine/DaisyExamples/DaisySP//Source/Effects/pitchshifter.h ****         gain_[1] = arm_sin_f32(fade2 * (float)M_PI);
 125:../temp_time_machine/DaisyExamples/DaisySP//Source/Effects/pitchshifter.h **** #else
 126:../temp_time_machine/DaisyExamples/DaisySP//Source/Effects/pitchshifter.h ****         gain_[0] = sinf(fade1 * PI_F);
 327              		.loc 13 126 24 view .LVU76
 328 0094 9FED85BA 		vldr.32	s22, .L17+8
 120:../temp_time_machine/DaisyExamples/DaisySP//Source/Effects/pitchshifter.h ****         mod_[1] = fade2 * (del_size_ - 1);
 329              		.loc 13 120 38 view .LVU77
 330 0098 09EE103A 		vmov	s18, r3	@ int
 331              		.loc 13 126 24 view .LVU78
 332 009c 29EE8B0A 		vmul.f32	s0, s19, s22
 120:../temp_time_machine/DaisyExamples/DaisySP//Source/Effects/pitchshifter.h ****         mod_[1] = fade2 * (del_size_ - 1);
 333              		.loc 13 120 25 view .LVU79
 334 00a0 B8EE499A 		vcvt.f32.u32	s18, s18
 335 00a4 69EE299A 		vmul.f32	s19, s18, s19
 336              	.LVL12:
 121:../temp_time_machine/DaisyExamples/DaisySP//Source/Effects/pitchshifter.h ****         mod_[1] = fade2 * (del_size_ - 1);
 337              		.loc 13 121 25 view .LVU80
 338 00a8 29EE2A9A 		vmul.f32	s18, s18, s21
 120:../temp_time_machine/DaisyExamples/DaisySP//Source/Effects/pitchshifter.h ****         mod_[1] = fade2 * (del_size_ - 1);
 339              		.loc 13 120 17 view .LVU81
 340 00ac C4ED169A 		vstr.32	s19, [r4, #88]
 121:../temp_time_machine/DaisyExamples/DaisySP//Source/Effects/pitchshifter.h ****         mod_[1] = fade2 * (del_size_ - 1);
 341              		.loc 13 121 9 is_stmt 1 view .LVU82
 127:../temp_time_machine/DaisyExamples/DaisySP//Source/Effects/pitchshifter.h ****         gain_[1] = sinf(fade2 * PI_F);
 128:../temp_time_machine/DaisyExamples/DaisySP//Source/Effects/pitchshifter.h **** #endif
 129:../temp_time_machine/DaisyExamples/DaisySP//Source/Effects/pitchshifter.h **** 
 130:../temp_time_machine/DaisyExamples/DaisySP//Source/Effects/pitchshifter.h ****         // Handle Delay Writing
 131:../temp_time_machine/DaisyExamples/DaisySP//Source/Effects/pitchshifter.h ****         d_[0].Write(in);
 132:../temp_time_machine/DaisyExamples/DaisySP//Source/Effects/pitchshifter.h ****         d_[1].Write(in);
 133:../temp_time_machine/DaisyExamples/DaisySP//Source/Effects/pitchshifter.h ****         // Modulate Delay Lines
 134:../temp_time_machine/DaisyExamples/DaisySP//Source/Effects/pitchshifter.h ****         //mod_a_amt = mod_b_amt = 0.0f;
 135:../temp_time_machine/DaisyExamples/DaisySP//Source/Effects/pitchshifter.h ****         d_[0].SetDelay(mod_[0] + mod_a_amt_);
 136:../temp_time_machine/DaisyExamples/DaisySP//Source/Effects/pitchshifter.h ****         d_[1].SetDelay(mod_[1] + mod_b_amt_);
 137:../temp_time_machine/DaisyExamples/DaisySP//Source/Effects/pitchshifter.h ****         d_[0].SetDelay(mod_[0] + slewed_mod_[0]);
 342              		.loc 13 137 23 is_stmt 0 view .LVU83
 343 00b0 78EEA98A 		vadd.f32	s17, s17, s19
 121:../temp_time_machine/DaisyExamples/DaisySP//Source/Effects/pitchshifter.h **** #ifdef USE_ARM_DSP
 344              		.loc 13 121 17 view .LVU84
 345 00b4 84ED179A 		vstr.32	s18, [r4, #92]
 126:../temp_time_machine/DaisyExamples/DaisySP//Source/Effects/pitchshifter.h ****         gain_[1] = sinf(fade2 * PI_F);
 346              		.loc 13 126 9 is_stmt 1 view .LVU85
 138:../temp_time_machine/DaisyExamples/DaisySP//Source/Effects/pitchshifter.h ****         d_[1].SetDelay(mod_[1] + slewed_mod_[1]);
 347              		.loc 13 138 23 is_stmt 0 view .LVU86
 348 00b8 38EE098A 		vadd.f32	s16, s16, s18
 126:../temp_time_machine/DaisyExamples/DaisySP//Source/Effects/pitchshifter.h ****         gain_[1] = sinf(fade2 * PI_F);
 349              		.loc 13 126 24 view .LVU87
 350 00bc FFF7FEFF 		bl	sinf
 351              	.LVL13:
ARM GAS  /var/folders/v1/156fk8j97zv9pzndh61fy7zm0000gn/T//ccyHp6tG.s 			page 26


 352 00c0 B0EE40AA 		vmov.f32	s20, s0
 127:../temp_time_machine/DaisyExamples/DaisySP//Source/Effects/pitchshifter.h **** #endif
 353              		.loc 13 127 24 view .LVU88
 354 00c4 2AEE8B0A 		vmul.f32	s0, s21, s22
 126:../temp_time_machine/DaisyExamples/DaisySP//Source/Effects/pitchshifter.h ****         gain_[1] = sinf(fade2 * PI_F);
 355              		.loc 13 126 18 discriminator 1 view .LVU89
 356 00c8 84ED14AA 		vstr.32	s20, [r4, #80]
 127:../temp_time_machine/DaisyExamples/DaisySP//Source/Effects/pitchshifter.h **** #endif
 357              		.loc 13 127 9 is_stmt 1 view .LVU90
 127:../temp_time_machine/DaisyExamples/DaisySP//Source/Effects/pitchshifter.h **** #endif
 358              		.loc 13 127 24 is_stmt 0 view .LVU91
 359 00cc FFF7FEFF 		bl	sinf
 360              	.LVL14:
 361              	.LBB576:
 362              	.LBB577:
 363              		.file 14 "../temp_time_machine/DaisyExamples/DaisySP//Source/Utility/delayline.h"
   1:../temp_time_machine/DaisyExamples/DaisySP//Source/Utility/delayline.h **** /*
   2:../temp_time_machine/DaisyExamples/DaisySP//Source/Utility/delayline.h **** Copyright (c) 2020 Electrosmith, Corp
   3:../temp_time_machine/DaisyExamples/DaisySP//Source/Utility/delayline.h **** 
   4:../temp_time_machine/DaisyExamples/DaisySP//Source/Utility/delayline.h **** Use of this source code is governed by an MIT-style
   5:../temp_time_machine/DaisyExamples/DaisySP//Source/Utility/delayline.h **** license that can be found in the LICENSE file or at
   6:../temp_time_machine/DaisyExamples/DaisySP//Source/Utility/delayline.h **** https://opensource.org/licenses/MIT.
   7:../temp_time_machine/DaisyExamples/DaisySP//Source/Utility/delayline.h **** */
   8:../temp_time_machine/DaisyExamples/DaisySP//Source/Utility/delayline.h **** 
   9:../temp_time_machine/DaisyExamples/DaisySP//Source/Utility/delayline.h **** #pragma once
  10:../temp_time_machine/DaisyExamples/DaisySP//Source/Utility/delayline.h **** #ifndef DSY_DELAY_H
  11:../temp_time_machine/DaisyExamples/DaisySP//Source/Utility/delayline.h **** #define DSY_DELAY_H
  12:../temp_time_machine/DaisyExamples/DaisySP//Source/Utility/delayline.h **** #include <stdlib.h>
  13:../temp_time_machine/DaisyExamples/DaisySP//Source/Utility/delayline.h **** #include <stdint.h>
  14:../temp_time_machine/DaisyExamples/DaisySP//Source/Utility/delayline.h **** namespace daisysp
  15:../temp_time_machine/DaisyExamples/DaisySP//Source/Utility/delayline.h **** {
  16:../temp_time_machine/DaisyExamples/DaisySP//Source/Utility/delayline.h **** /** Simple Delay line.
  17:../temp_time_machine/DaisyExamples/DaisySP//Source/Utility/delayline.h **** November 2019
  18:../temp_time_machine/DaisyExamples/DaisySP//Source/Utility/delayline.h **** 
  19:../temp_time_machine/DaisyExamples/DaisySP//Source/Utility/delayline.h **** Converted to Template December 2019
  20:../temp_time_machine/DaisyExamples/DaisySP//Source/Utility/delayline.h **** 
  21:../temp_time_machine/DaisyExamples/DaisySP//Source/Utility/delayline.h **** declaration example: (1 second of floats)
  22:../temp_time_machine/DaisyExamples/DaisySP//Source/Utility/delayline.h **** 
  23:../temp_time_machine/DaisyExamples/DaisySP//Source/Utility/delayline.h **** DelayLine<float, SAMPLE_RATE> del;
  24:../temp_time_machine/DaisyExamples/DaisySP//Source/Utility/delayline.h **** 
  25:../temp_time_machine/DaisyExamples/DaisySP//Source/Utility/delayline.h **** By: shensley
  26:../temp_time_machine/DaisyExamples/DaisySP//Source/Utility/delayline.h **** */
  27:../temp_time_machine/DaisyExamples/DaisySP//Source/Utility/delayline.h **** template <typename T, size_t max_size>
  28:../temp_time_machine/DaisyExamples/DaisySP//Source/Utility/delayline.h **** class DelayLine
  29:../temp_time_machine/DaisyExamples/DaisySP//Source/Utility/delayline.h **** {
  30:../temp_time_machine/DaisyExamples/DaisySP//Source/Utility/delayline.h ****   public:
  31:../temp_time_machine/DaisyExamples/DaisySP//Source/Utility/delayline.h ****     DelayLine() {}
  32:../temp_time_machine/DaisyExamples/DaisySP//Source/Utility/delayline.h ****     ~DelayLine() {}
  33:../temp_time_machine/DaisyExamples/DaisySP//Source/Utility/delayline.h ****     /** initializes the delay line by clearing the values within, and setting delay to 1 sample.
  34:../temp_time_machine/DaisyExamples/DaisySP//Source/Utility/delayline.h ****     */
  35:../temp_time_machine/DaisyExamples/DaisySP//Source/Utility/delayline.h ****     void Init() { Reset(); }
  36:../temp_time_machine/DaisyExamples/DaisySP//Source/Utility/delayline.h ****     /** clears buffer, sets write ptr to 0, and delay to 1 sample.
  37:../temp_time_machine/DaisyExamples/DaisySP//Source/Utility/delayline.h ****     */
  38:../temp_time_machine/DaisyExamples/DaisySP//Source/Utility/delayline.h ****     void Reset()
  39:../temp_time_machine/DaisyExamples/DaisySP//Source/Utility/delayline.h ****     {
  40:../temp_time_machine/DaisyExamples/DaisySP//Source/Utility/delayline.h ****         for(size_t i = 0; i < max_size; i++)
  41:../temp_time_machine/DaisyExamples/DaisySP//Source/Utility/delayline.h ****         {
ARM GAS  /var/folders/v1/156fk8j97zv9pzndh61fy7zm0000gn/T//ccyHp6tG.s 			page 27


  42:../temp_time_machine/DaisyExamples/DaisySP//Source/Utility/delayline.h ****             line_[i] = T(0);
  43:../temp_time_machine/DaisyExamples/DaisySP//Source/Utility/delayline.h ****         }
  44:../temp_time_machine/DaisyExamples/DaisySP//Source/Utility/delayline.h ****         write_ptr_ = 0;
  45:../temp_time_machine/DaisyExamples/DaisySP//Source/Utility/delayline.h ****         delay_     = 1;
  46:../temp_time_machine/DaisyExamples/DaisySP//Source/Utility/delayline.h ****     }
  47:../temp_time_machine/DaisyExamples/DaisySP//Source/Utility/delayline.h **** 
  48:../temp_time_machine/DaisyExamples/DaisySP//Source/Utility/delayline.h ****     /** sets the delay time in samples
  49:../temp_time_machine/DaisyExamples/DaisySP//Source/Utility/delayline.h ****         If a float is passed in, a fractional component will be calculated for interpolating the de
  50:../temp_time_machine/DaisyExamples/DaisySP//Source/Utility/delayline.h ****     */
  51:../temp_time_machine/DaisyExamples/DaisySP//Source/Utility/delayline.h ****     inline void SetDelay(size_t delay)
  52:../temp_time_machine/DaisyExamples/DaisySP//Source/Utility/delayline.h ****     {
  53:../temp_time_machine/DaisyExamples/DaisySP//Source/Utility/delayline.h ****         frac_  = 0.0f;
  54:../temp_time_machine/DaisyExamples/DaisySP//Source/Utility/delayline.h ****         delay_ = delay < max_size ? delay : max_size - 1;
  55:../temp_time_machine/DaisyExamples/DaisySP//Source/Utility/delayline.h ****     }
  56:../temp_time_machine/DaisyExamples/DaisySP//Source/Utility/delayline.h **** 
  57:../temp_time_machine/DaisyExamples/DaisySP//Source/Utility/delayline.h ****     /** sets the delay time in samples
  58:../temp_time_machine/DaisyExamples/DaisySP//Source/Utility/delayline.h ****         If a float is passed in, a fractional component will be calculated for interpolating the de
  59:../temp_time_machine/DaisyExamples/DaisySP//Source/Utility/delayline.h ****     */
  60:../temp_time_machine/DaisyExamples/DaisySP//Source/Utility/delayline.h ****     inline void SetDelay(float delay)
  61:../temp_time_machine/DaisyExamples/DaisySP//Source/Utility/delayline.h ****     {
  62:../temp_time_machine/DaisyExamples/DaisySP//Source/Utility/delayline.h ****         int32_t int_delay = static_cast<int32_t>(delay);
 364              		.loc 14 62 17 view .LVU92
 365 00d0 FDEEE86A 		vcvt.s32.f32	s13, s17
 366              	.LBE577:
 367              	.LBE576:
 127:../temp_time_machine/DaisyExamples/DaisySP//Source/Effects/pitchshifter.h **** #endif
 368              		.loc 13 127 24 view .LVU93
 369 00d4 B0EE407A 		vmov.f32	s14, s0
 370              	.LBB585:
 371              	.LBB586:
  63:../temp_time_machine/DaisyExamples/DaisySP//Source/Utility/delayline.h ****         frac_             = delay - static_cast<float>(int_delay);
  64:../temp_time_machine/DaisyExamples/DaisySP//Source/Utility/delayline.h ****         delay_ = static_cast<size_t>(int_delay) < max_size ? int_delay
  65:../temp_time_machine/DaisyExamples/DaisySP//Source/Utility/delayline.h ****                                                            : max_size - 1;
  66:../temp_time_machine/DaisyExamples/DaisySP//Source/Utility/delayline.h ****     }
  67:../temp_time_machine/DaisyExamples/DaisySP//Source/Utility/delayline.h **** 
  68:../temp_time_machine/DaisyExamples/DaisySP//Source/Utility/delayline.h ****     /** writes the sample of type T to the delay line, and advances the write ptr
  69:../temp_time_machine/DaisyExamples/DaisySP//Source/Utility/delayline.h ****     */
  70:../temp_time_machine/DaisyExamples/DaisySP//Source/Utility/delayline.h ****     inline void Write(const T sample)
  71:../temp_time_machine/DaisyExamples/DaisySP//Source/Utility/delayline.h ****     {
  72:../temp_time_machine/DaisyExamples/DaisySP//Source/Utility/delayline.h ****         line_[write_ptr_] = sample;
 372              		.loc 14 72 15 view .LVU94
 373 00d8 6A68     		ldr	r2, [r5, #4]
  73:../temp_time_machine/DaisyExamples/DaisySP//Source/Utility/delayline.h ****         write_ptr_        = (write_ptr_ - 1 + max_size) % max_size;
 374              		.loc 14 73 45 view .LVU95
 375 00da 43F6FF73 		movw	r3, #16383
 376              	.LBE586:
 377              	.LBE585:
 378              	.LBB591:
 379              	.LBB592:
  62:../temp_time_machine/DaisyExamples/DaisySP//Source/Utility/delayline.h ****         frac_             = delay - static_cast<float>(int_delay);
 380              		.loc 14 62 17 view .LVU96
 381 00de FDEEC87A 		vcvt.s32.f32	s15, s16
 382              	.LBE592:
 383              	.LBE591:
 384              	.LBB600:
 385              	.LBB587:
  72:../temp_time_machine/DaisyExamples/DaisySP//Source/Utility/delayline.h ****         write_ptr_        = (write_ptr_ - 1 + max_size) % max_size;
ARM GAS  /var/folders/v1/156fk8j97zv9pzndh61fy7zm0000gn/T//ccyHp6tG.s 			page 28


 386              		.loc 14 72 27 view .LVU97
 387 00e2 05EB8201 		add	r1, r5, r2, lsl #2
 388              	.LBE587:
 389              	.LBE600:
 390              	.LBB601:
 391              	.LBB578:
  63:../temp_time_machine/DaisyExamples/DaisySP//Source/Utility/delayline.h ****         delay_ = static_cast<size_t>(int_delay) < max_size ? int_delay
 392              		.loc 14 63 37 view .LVU98
 393 00e6 F8EEE65A 		vcvt.f32.s32	s11, s13
 394              	.LBE578:
 395              	.LBE601:
 127:../temp_time_machine/DaisyExamples/DaisySP//Source/Effects/pitchshifter.h **** #endif
 396              		.loc 13 127 18 discriminator 1 view .LVU99
 397 00ea 84ED157A 		vstr.32	s14, [r4, #84]
 131:../temp_time_machine/DaisyExamples/DaisySP//Source/Effects/pitchshifter.h ****         d_[1].Write(in);
 398              		.loc 13 131 9 is_stmt 1 view .LVU100
 399              	.LBB602:
 400              	.LBB588:
 401              		.loc 14 73 45 is_stmt 0 view .LVU101
 402 00ee 1A44     		add	r2, r2, r3
 403              	.LBE588:
 404              	.LBE602:
 131:../temp_time_machine/DaisyExamples/DaisySP//Source/Effects/pitchshifter.h ****         d_[1].Write(in);
 405              		.loc 13 131 20 view .LVU102
 406 00f0 D6F800C0 		ldr	ip, [r6]	@ float
 407              	.LVL15:
 408              	.LBB603:
 409              	.LBI585:
  70:../temp_time_machine/DaisyExamples/DaisySP//Source/Utility/delayline.h ****     {
 410              		.loc 14 70 17 is_stmt 1 view .LVU103
 411              	.LBE603:
 412              	.LBB604:
 413              	.LBB579:
  64:../temp_time_machine/DaisyExamples/DaisySP//Source/Utility/delayline.h ****                                                            : max_size - 1;
 414              		.loc 14 64 60 is_stmt 0 view .LVU104
 415 00f4 16EE906A 		vmov	r6, s13	@ int
 416              	.LVL16:
  64:../temp_time_machine/DaisyExamples/DaisySP//Source/Utility/delayline.h ****                                                            : max_size - 1;
 417              		.loc 14 64 60 view .LVU105
 418              	.LBE579:
 419              	.LBE604:
 420              	.LBB605:
 421              	.LBB593:
 422 00f8 17EE904A 		vmov	r4, s15	@ int
 423              	.LBE593:
 424              	.LBE605:
 425              	.LBB606:
 426              	.LBB589:
 427              		.loc 14 73 57 view .LVU106
 428 00fc C2F30D02 		ubfx	r2, r2, #0, #14
  72:../temp_time_machine/DaisyExamples/DaisySP//Source/Utility/delayline.h ****         write_ptr_        = (write_ptr_ - 1 + max_size) % max_size;
 429              		.loc 14 72 27 view .LVU107
 430 0100 C1F80CC0 		str	ip, [r1, #12]	@ float
 431              	.LBE589:
 432              	.LBE606:
 433              	.LBB607:
 434              	.LBB580:
ARM GAS  /var/folders/v1/156fk8j97zv9pzndh61fy7zm0000gn/T//ccyHp6tG.s 			page 29


  64:../temp_time_machine/DaisyExamples/DaisySP//Source/Utility/delayline.h ****                                                            : max_size - 1;
 435              		.loc 14 64 60 view .LVU108
 436 0104 9E42     		cmp	r6, r3
 437              	.LBE580:
 438              	.LBE607:
 439              	.LBB608:
 440              	.LBB609:
  72:../temp_time_machine/DaisyExamples/DaisySP//Source/Utility/delayline.h ****         write_ptr_        = (write_ptr_ - 1 + max_size) % max_size;
 441              		.loc 14 72 15 view .LVU109
 442 0106 05F58031 		add	r1, r5, #65536
 443              	.LBE609:
 444              	.LBE608:
 445              	.LBB615:
 446              	.LBB590:
 447              		.loc 14 73 27 view .LVU110
 448 010a 6A60     		str	r2, [r5, #4]
 449              	.LVL17:
 450              		.loc 14 73 27 view .LVU111
 451              	.LBE590:
 452              	.LBE615:
 132:../temp_time_machine/DaisyExamples/DaisySP//Source/Effects/pitchshifter.h ****         // Modulate Delay Lines
 453              		.loc 13 132 9 is_stmt 1 view .LVU112
 454              	.LBB616:
 455              	.LBI608:
  70:../temp_time_machine/DaisyExamples/DaisySP//Source/Utility/delayline.h ****     {
 456              		.loc 14 70 17 view .LVU113
 457              	.LBE616:
 458              	.LBB617:
 459              	.LBB581:
  64:../temp_time_machine/DaisyExamples/DaisySP//Source/Utility/delayline.h ****                                                            : max_size - 1;
 460              		.loc 14 64 60 is_stmt 0 view .LVU114
 461 010c 28BF     		it	cs
 462 010e 1E46     		movcs	r6, r3
 463              	.LBE581:
 464              	.LBE617:
 465              	.LBB618:
 466              	.LBB594:
 467 0110 9C42     		cmp	r4, r3
 468              	.LBE594:
 469              	.LBE618:
 470              	.LBB619:
 471              	.LBB610:
  72:../temp_time_machine/DaisyExamples/DaisySP//Source/Utility/delayline.h ****         write_ptr_        = (write_ptr_ - 1 + max_size) % max_size;
 472              		.loc 14 72 15 view .LVU115
 473 0112 0869     		ldr	r0, [r1, #16]
 474              	.LBE610:
 475              	.LBE619:
 476              	.LBB620:
 477              	.LBB582:
  63:../temp_time_machine/DaisyExamples/DaisySP//Source/Utility/delayline.h ****         delay_ = static_cast<size_t>(int_delay) < max_size ? int_delay
 478              		.loc 14 63 35 view .LVU116
 479 0114 78EEE58A 		vsub.f32	s17, s17, s11
 480              	.LBE582:
 481              	.LBE620:
 482              	.LBB621:
 483              	.LBB595:
  64:../temp_time_machine/DaisyExamples/DaisySP//Source/Utility/delayline.h ****                                                            : max_size - 1;
ARM GAS  /var/folders/v1/156fk8j97zv9pzndh61fy7zm0000gn/T//ccyHp6tG.s 			page 30


 484              		.loc 14 64 60 view .LVU117
 485 0118 28BF     		it	cs
 486 011a 1C46     		movcs	r4, r3
 487              	.LBE595:
 488              	.LBE621:
 489              	.LBB622:
 490              	.LBB623:
  74:../temp_time_machine/DaisyExamples/DaisySP//Source/Utility/delayline.h ****     }
  75:../temp_time_machine/DaisyExamples/DaisySP//Source/Utility/delayline.h **** 
  76:../temp_time_machine/DaisyExamples/DaisySP//Source/Utility/delayline.h ****     /** returns the next sample of type T in the delay line, interpolated if necessary.
  77:../temp_time_machine/DaisyExamples/DaisySP//Source/Utility/delayline.h ****     */
  78:../temp_time_machine/DaisyExamples/DaisySP//Source/Utility/delayline.h ****     inline const T Read() const
  79:../temp_time_machine/DaisyExamples/DaisySP//Source/Utility/delayline.h ****     {
  80:../temp_time_machine/DaisyExamples/DaisySP//Source/Utility/delayline.h ****         T a = line_[(write_ptr_ + delay_) % max_size];
 491              		.loc 14 80 33 view .LVU118
 492 011c 3244     		add	r2, r2, r6
 493              	.LBE623:
 494              	.LBE622:
 495              	.LBB631:
 496              	.LBB611:
  73:../temp_time_machine/DaisyExamples/DaisySP//Source/Utility/delayline.h ****     }
 497              		.loc 14 73 45 view .LVU119
 498 011e 0344     		add	r3, r3, r0
  72:../temp_time_machine/DaisyExamples/DaisySP//Source/Utility/delayline.h ****         write_ptr_        = (write_ptr_ - 1 + max_size) % max_size;
 499              		.loc 14 72 27 view .LVU120
 500 0120 01EB8000 		add	r0, r1, r0, lsl #2
 501              	.LBE611:
 502              	.LBE631:
 503              	.LBB632:
 504              	.LBB596:
  63:../temp_time_machine/DaisyExamples/DaisySP//Source/Utility/delayline.h ****         delay_ = static_cast<size_t>(int_delay) < max_size ? int_delay
 505              		.loc 14 63 37 view .LVU121
 506 0124 B8EEE76A 		vcvt.f32.s32	s12, s15
 507              	.LBE596:
 508              	.LBE632:
 139:../temp_time_machine/DaisyExamples/DaisySP//Source/Effects/pitchshifter.h ****         val = 0.0f;
 140:../temp_time_machine/DaisyExamples/DaisySP//Source/Effects/pitchshifter.h ****         val += (d_[0].Read() * gain_[0]);
 509              		.loc 13 140 13 discriminator 1 view .LVU122
 510 0128 9FED610A 		vldr.32	s0, .L17+12
 511              	.LBB633:
 512              	.LBB612:
  72:../temp_time_machine/DaisyExamples/DaisySP//Source/Utility/delayline.h ****         write_ptr_        = (write_ptr_ - 1 + max_size) % max_size;
 513              		.loc 14 72 27 view .LVU123
 514 012c C0F818C0 		str	ip, [r0, #24]	@ float
 515              	.LBE612:
 516              	.LBE633:
 517              	.LBB634:
 518              	.LBB624:
 519              		.loc 14 80 43 view .LVU124
 520 0130 C2F30D00 		ubfx	r0, r2, #0, #14
  81:../temp_time_machine/DaisyExamples/DaisySP//Source/Utility/delayline.h ****         T b = line_[(write_ptr_ + delay_ + 1) % max_size];
 521              		.loc 14 81 42 view .LVU125
 522 0134 0132     		adds	r2, r2, #1
 523              	.LBE624:
 524              	.LBE634:
 525              	.LBB635:
 526              	.LBB613:
ARM GAS  /var/folders/v1/156fk8j97zv9pzndh61fy7zm0000gn/T//ccyHp6tG.s 			page 31


  73:../temp_time_machine/DaisyExamples/DaisySP//Source/Utility/delayline.h ****     }
 527              		.loc 14 73 57 view .LVU126
 528 0136 C3F30D03 		ubfx	r3, r3, #0, #14
 529              	.LBE613:
 530              	.LBE635:
 531              	.LBB636:
 532              	.LBB625:
  80:../temp_time_machine/DaisyExamples/DaisySP//Source/Utility/delayline.h ****         T b = line_[(write_ptr_ + delay_ + 1) % max_size];
 533              		.loc 14 80 11 view .LVU127
 534 013a 05EB8000 		add	r0, r5, r0, lsl #2
 535              	.LBE625:
 536              	.LBE636:
 537              	.LBB637:
 538              	.LBB597:
  63:../temp_time_machine/DaisyExamples/DaisySP//Source/Utility/delayline.h ****         delay_ = static_cast<size_t>(int_delay) < max_size ? int_delay
 539              		.loc 14 63 35 view .LVU128
 540 013e 38EE468A 		vsub.f32	s16, s16, s12
 541              	.LBE597:
 542              	.LBE637:
 543              	.LBB638:
 544              	.LBB626:
 545              		.loc 14 81 47 view .LVU129
 546 0142 C2F30D02 		ubfx	r2, r2, #0, #14
 547              	.LBE626:
 548              	.LBE638:
 549              	.LBB639:
 550              	.LBB614:
  73:../temp_time_machine/DaisyExamples/DaisySP//Source/Utility/delayline.h ****     }
 551              		.loc 14 73 27 view .LVU130
 552 0146 0B61     		str	r3, [r1, #16]
 553              	.LVL18:
  73:../temp_time_machine/DaisyExamples/DaisySP//Source/Utility/delayline.h ****     }
 554              		.loc 14 73 27 view .LVU131
 555              	.LBE614:
 556              	.LBE639:
 135:../temp_time_machine/DaisyExamples/DaisySP//Source/Effects/pitchshifter.h ****         d_[1].SetDelay(mod_[1] + mod_b_amt_);
 557              		.loc 13 135 9 is_stmt 1 view .LVU132
 136:../temp_time_machine/DaisyExamples/DaisySP//Source/Effects/pitchshifter.h ****         d_[0].SetDelay(mod_[0] + slewed_mod_[0]);
 558              		.loc 13 136 9 view .LVU133
 137:../temp_time_machine/DaisyExamples/DaisySP//Source/Effects/pitchshifter.h ****         d_[1].SetDelay(mod_[1] + slewed_mod_[1]);
 559              		.loc 13 137 9 view .LVU134
 560              	.LBB640:
 561              	.LBI576:
  60:../temp_time_machine/DaisyExamples/DaisySP//Source/Utility/delayline.h ****     {
 562              		.loc 14 60 17 view .LVU135
 563              	.LBB583:
  63:../temp_time_machine/DaisyExamples/DaisySP//Source/Utility/delayline.h ****         delay_ = static_cast<size_t>(int_delay) < max_size ? int_delay
 564              		.loc 14 63 27 is_stmt 0 view .LVU136
 565 0148 C5ED008A 		vstr.32	s17, [r5]
 566              	.LBE583:
 567              	.LBE640:
 568              	.LBB641:
 569              	.LBB642:
  80:../temp_time_machine/DaisyExamples/DaisySP//Source/Utility/delayline.h ****         T b = line_[(write_ptr_ + delay_ + 1) % max_size];
 570              		.loc 14 80 33 view .LVU137
 571 014c 2344     		add	r3, r3, r4
 572              	.LBE642:
ARM GAS  /var/folders/v1/156fk8j97zv9pzndh61fy7zm0000gn/T//ccyHp6tG.s 			page 32


 573              	.LBE641:
 574              	.LBB648:
 575              	.LBB584:
  64:../temp_time_machine/DaisyExamples/DaisySP//Source/Utility/delayline.h ****                                                            : max_size - 1;
 576              		.loc 14 64 16 view .LVU138
 577 014e AE60     		str	r6, [r5, #8]
 578              	.LVL19:
  64:../temp_time_machine/DaisyExamples/DaisySP//Source/Utility/delayline.h ****                                                            : max_size - 1;
 579              		.loc 14 64 16 view .LVU139
 580              	.LBE584:
 581              	.LBE648:
 138:../temp_time_machine/DaisyExamples/DaisySP//Source/Effects/pitchshifter.h ****         val = 0.0f;
 582              		.loc 13 138 9 is_stmt 1 view .LVU140
 583              	.LBB649:
 584              	.LBI591:
  60:../temp_time_machine/DaisyExamples/DaisySP//Source/Utility/delayline.h ****     {
 585              		.loc 14 60 17 view .LVU141
  60:../temp_time_machine/DaisyExamples/DaisySP//Source/Utility/delayline.h ****     {
 586              		.loc 14 60 17 is_stmt 0 view .LVU142
 587              	.LBE649:
 588              	.LBB650:
 589              	.LBB627:
 590              		.loc 14 81 11 view .LVU143
 591 0150 05EB8205 		add	r5, r5, r2, lsl #2
 592              	.LVL20:
  80:../temp_time_machine/DaisyExamples/DaisySP//Source/Utility/delayline.h ****         T b = line_[(write_ptr_ + delay_ + 1) % max_size];
 593              		.loc 14 80 11 view .LVU144
 594 0154 D0ED036A 		vldr.32	s13, [r0, #12]
 595              	.LBE627:
 596              	.LBE650:
 597              	.LBB651:
 598              	.LBB643:
 599              		.loc 14 81 42 view .LVU145
 600 0158 5A1C     		adds	r2, r3, #1
 601              	.LBE643:
 602              	.LBE651:
 603              	.LBB652:
 604              	.LBB628:
  82:../temp_time_machine/DaisyExamples/DaisySP//Source/Utility/delayline.h ****         return a + (b - a) * frac_;
 605              		.loc 14 82 23 view .LVU146
 606 015a 95ED036A 		vldr.32	s12, [r5, #12]
 607              	.LBE628:
 608              	.LBE652:
 609              	.LBB653:
 610              	.LBB644:
  80:../temp_time_machine/DaisyExamples/DaisySP//Source/Utility/delayline.h ****         T b = line_[(write_ptr_ + delay_ + 1) % max_size];
 611              		.loc 14 80 43 view .LVU147
 612 015e C3F30D03 		ubfx	r3, r3, #0, #14
  81:../temp_time_machine/DaisyExamples/DaisySP//Source/Utility/delayline.h ****         return a + (b - a) * frac_;
 613              		.loc 14 81 47 view .LVU148
 614 0162 C2F30D02 		ubfx	r2, r2, #0, #14
 615              	.LBE644:
 616              	.LBE653:
 617              	.LBB654:
 618              	.LBB598:
  63:../temp_time_machine/DaisyExamples/DaisySP//Source/Utility/delayline.h ****         delay_ = static_cast<size_t>(int_delay) < max_size ? int_delay
 619              		.loc 14 63 27 view .LVU149
ARM GAS  /var/folders/v1/156fk8j97zv9pzndh61fy7zm0000gn/T//ccyHp6tG.s 			page 33


 620 0166 81ED038A 		vstr.32	s16, [r1, #12]
 621              	.LBE598:
 622              	.LBE654:
 623              	.LBB655:
 624              	.LBB629:
 625              		.loc 14 82 23 view .LVU150
 626 016a 36EE666A 		vsub.f32	s12, s12, s13
 627              	.LBE629:
 628              	.LBE655:
 629              	.LBB656:
 630              	.LBB645:
  80:../temp_time_machine/DaisyExamples/DaisySP//Source/Utility/delayline.h ****         T b = line_[(write_ptr_ + delay_ + 1) % max_size];
 631              		.loc 14 80 11 view .LVU151
 632 016e 01EB8303 		add	r3, r1, r3, lsl #2
  81:../temp_time_machine/DaisyExamples/DaisySP//Source/Utility/delayline.h ****         return a + (b - a) * frac_;
 633              		.loc 14 81 11 view .LVU152
 634 0172 01EB8202 		add	r2, r1, r2, lsl #2
 635              	.LBE645:
 636              	.LBE656:
 637              	.LBB657:
 638              	.LBB599:
  64:../temp_time_machine/DaisyExamples/DaisySP//Source/Utility/delayline.h ****                                                            : max_size - 1;
 639              		.loc 14 64 16 view .LVU153
 640 0176 4C61     		str	r4, [r1, #20]
 641              	.LVL21:
  64:../temp_time_machine/DaisyExamples/DaisySP//Source/Utility/delayline.h ****                                                            : max_size - 1;
 642              		.loc 14 64 16 view .LVU154
 643              	.LBE599:
 644              	.LBE657:
 139:../temp_time_machine/DaisyExamples/DaisySP//Source/Effects/pitchshifter.h ****         val += (d_[0].Read() * gain_[0]);
 645              		.loc 13 139 9 is_stmt 1 view .LVU155
 646              		.loc 13 140 9 view .LVU156
 647              	.LBB658:
 648              	.LBI622:
  78:../temp_time_machine/DaisyExamples/DaisySP//Source/Utility/delayline.h ****     {
 649              		.loc 14 78 20 view .LVU157
  78:../temp_time_machine/DaisyExamples/DaisySP//Source/Utility/delayline.h ****     {
 650              		.loc 14 78 20 is_stmt 0 view .LVU158
 651              	.LBE658:
 652              	.LBB659:
 653              	.LBB646:
  80:../temp_time_machine/DaisyExamples/DaisySP//Source/Utility/delayline.h ****         T b = line_[(write_ptr_ + delay_ + 1) % max_size];
 654              		.loc 14 80 11 view .LVU159
 655 0178 D3ED067A 		vldr.32	s15, [r3, #24]
 656              	.LBE646:
 657              	.LBE659:
 658              	.LBB660:
 659              	.LBB630:
 660              		.loc 14 82 30 view .LVU160
 661 017c E8EE866A 		vfma.f32	s13, s17, s12
 662              	.LVL22:
 663              		.loc 14 82 30 view .LVU161
 664              	.LBE630:
 665              	.LBE660:
 666              	.LBB661:
 667              	.LBB647:
 668              		.loc 14 82 23 view .LVU162
ARM GAS  /var/folders/v1/156fk8j97zv9pzndh61fy7zm0000gn/T//ccyHp6tG.s 			page 34


 669 0180 92ED066A 		vldr.32	s12, [r2, #24]
 670 0184 36EE676A 		vsub.f32	s12, s12, s15
 671              		.loc 14 82 30 view .LVU163
 672 0188 E8EE067A 		vfma.f32	s15, s16, s12
 673              	.LBE647:
 674              	.LBE661:
 675              		.loc 13 140 13 discriminator 1 view .LVU164
 676 018c AAEE260A 		vfma.f32	s0, s20, s13
 677              	.LVL23:
 141:../temp_time_machine/DaisyExamples/DaisySP//Source/Effects/pitchshifter.h ****         val += (d_[1].Read() * gain_[1]);
 678              		.loc 13 141 9 is_stmt 1 view .LVU165
 679              	.LBB662:
 680              	.LBI641:
  78:../temp_time_machine/DaisyExamples/DaisySP//Source/Utility/delayline.h ****     {
 681              		.loc 14 78 20 view .LVU166
  78:../temp_time_machine/DaisyExamples/DaisySP//Source/Utility/delayline.h ****     {
 682              		.loc 14 78 20 is_stmt 0 view .LVU167
 683              	.LBE662:
 142:../temp_time_machine/DaisyExamples/DaisySP//Source/Effects/pitchshifter.h ****         return val;
 684              		.loc 13 142 9 is_stmt 1 view .LVU168
 143:../temp_time_machine/DaisyExamples/DaisySP//Source/Effects/pitchshifter.h ****     }
 685              		.loc 13 143 5 is_stmt 0 view .LVU169
 686 0190 BDEC088B 		vldm	sp!, {d8-d11}
 687              		.cfi_remember_state
 688              		.cfi_restore 86
 689              		.cfi_restore 87
 690              		.cfi_restore 84
 691              		.cfi_restore 85
 692              		.cfi_restore 82
 693              		.cfi_restore 83
 694              		.cfi_restore 80
 695              		.cfi_restore 81
 696              		.cfi_def_cfa_offset 24
 697 0194 A7EE270A 		vfma.f32	s0, s14, s15
 698              	.LVL24:
 699              		.loc 13 143 5 view .LVU170
 700 0198 F8BD     		pop	{r3, r4, r5, r6, r7, pc}
 701              	.LVL25:
 702              	.L10:
 703              		.cfi_restore_state
 106:../temp_time_machine/DaisyExamples/DaisySP//Source/Effects/pitchshifter.h ****                          * (del_size_ * 0.5f);
 704              		.loc 13 106 13 is_stmt 1 view .LVU171
 705              	.LBB663:
 706              	.LBI663:
  39:../temp_time_machine/DaisyExamples/DaisySP//Source/Effects/pitchshifter.h **** {
 707              		.loc 13 39 17 view .LVU172
 708              	.LBB664:
  41:../temp_time_machine/DaisyExamples/DaisySP//Source/Effects/pitchshifter.h ****     seed                 = hash_xs32(seed);
 709              		.loc 13 41 5 view .LVU173
  42:../temp_time_machine/DaisyExamples/DaisySP//Source/Effects/pitchshifter.h ****     return seed;
 710              		.loc 13 42 5 view .LVU174
  42:../temp_time_machine/DaisyExamples/DaisySP//Source/Effects/pitchshifter.h ****     return seed;
 711              		.loc 13 42 37 is_stmt 0 view .LVU175
 712 019a 464F     		ldr	r7, .L17+16
 713              	.LBE664:
 714              	.LBE663:
 106:../temp_time_machine/DaisyExamples/DaisySP//Source/Effects/pitchshifter.h ****                          * (del_size_ * 0.5f);
ARM GAS  /var/folders/v1/156fk8j97zv9pzndh61fy7zm0000gn/T//ccyHp6tG.s 			page 35


 715              		.loc 13 106 51 discriminator 1 view .LVU176
 716 019c 4649     		ldr	r1, .L17+20
 717              	.LBB677:
 718              	.LBB673:
  42:../temp_time_machine/DaisyExamples/DaisySP//Source/Effects/pitchshifter.h ****     return seed;
 719              		.loc 13 42 37 view .LVU177
 720 019e 3A68     		ldr	r2, [r7]
 721              	.LVL26:
 722              	.LBB665:
 723              	.LBI665:
  31:../temp_time_machine/DaisyExamples/DaisySP//Source/Effects/pitchshifter.h **** {
 724              		.loc 13 31 24 is_stmt 1 view .LVU178
 725              	.LBB666:
  33:../temp_time_machine/DaisyExamples/DaisySP//Source/Effects/pitchshifter.h ****     x ^= x >> 17;
 726              		.loc 13 33 5 view .LVU179
 727              	.LBE666:
 728              	.LBE665:
 729              	.LBE673:
 730              	.LBE677:
 106:../temp_time_machine/DaisyExamples/DaisySP//Source/Effects/pitchshifter.h ****                          * (del_size_ * 0.5f);
 731              		.loc 13 106 58 is_stmt 0 discriminator 1 view .LVU180
 732 01a0 9FED465A 		vldr.32	s10, .L17+24
 733              	.LBB678:
 734              	.LBB674:
 735              	.LBB670:
 736              	.LBB667:
  33:../temp_time_machine/DaisyExamples/DaisySP//Source/Effects/pitchshifter.h ****     x ^= x >> 17;
 737              		.loc 13 33 7 view .LVU181
 738 01a4 82EA4232 		eor	r2, r2, r2, lsl #13
 739              	.LVL27:
  34:../temp_time_machine/DaisyExamples/DaisySP//Source/Effects/pitchshifter.h ****     x ^= x << 5;
 740              		.loc 13 34 5 is_stmt 1 view .LVU182
 741              	.LBE667:
 742              	.LBE670:
 743              	.LBE674:
 744              	.LBE678:
 106:../temp_time_machine/DaisyExamples/DaisySP//Source/Effects/pitchshifter.h ****                          * (del_size_ * 0.5f);
 745              		.loc 13 106 31 is_stmt 0 discriminator 1 view .LVU183
 746 01a8 D4ED193A 		vldr.32	s7, [r4, #100]
 109:../temp_time_machine/DaisyExamples/DaisySP//Source/Effects/pitchshifter.h ****         }
 747              		.loc 13 109 27 discriminator 1 view .LVU184
 748 01ac 9FED446A 		vldr.32	s12, .L17+28
 749              	.LBB679:
 750              	.LBB675:
 751              	.LBB671:
 752              	.LBB668:
  34:../temp_time_machine/DaisyExamples/DaisySP//Source/Effects/pitchshifter.h ****     x ^= x << 5;
 753              		.loc 13 34 7 view .LVU185
 754 01b0 82EA5242 		eor	r2, r2, r2, lsr #17
 755              	.LVL28:
  35:../temp_time_machine/DaisyExamples/DaisySP//Source/Effects/pitchshifter.h ****     return x;
 756              		.loc 13 35 5 is_stmt 1 view .LVU186
 757              	.LBE668:
 758              	.LBE671:
 759              	.LBE675:
 760              	.LBE679:
 109:../temp_time_machine/DaisyExamples/DaisySP//Source/Effects/pitchshifter.h ****         }
ARM GAS  /var/folders/v1/156fk8j97zv9pzndh61fy7zm0000gn/T//ccyHp6tG.s 			page 36


 761              		.loc 13 109 27 is_stmt 0 discriminator 1 view .LVU187
 762 01b4 DFED434A 		vldr.32	s9, .L17+32
 763              	.LBB680:
 764              	.LBB676:
 765              	.LBB672:
 766              	.LBB669:
  35:../temp_time_machine/DaisyExamples/DaisySP//Source/Effects/pitchshifter.h ****     return x;
 767              		.loc 13 35 7 view .LVU188
 768 01b8 82EA4212 		eor	r2, r2, r2, lsl #5
 769              	.LVL29:
  36:../temp_time_machine/DaisyExamples/DaisySP//Source/Effects/pitchshifter.h **** }
 770              		.loc 13 36 5 is_stmt 1 view .LVU189
  36:../temp_time_machine/DaisyExamples/DaisySP//Source/Effects/pitchshifter.h **** }
 771              		.loc 13 36 5 is_stmt 0 view .LVU190
 772              	.LBE669:
 773              	.LBE672:
  43:../temp_time_machine/DaisyExamples/DaisySP//Source/Effects/pitchshifter.h **** }
 774              		.loc 13 43 5 is_stmt 1 view .LVU191
 775              	.LBE676:
 776              	.LBE680:
 777              	.LBB681:
 778              	.LBB682:
 779              	.LBB683:
 780              	.LBB684:
  33:../temp_time_machine/DaisyExamples/DaisySP//Source/Effects/pitchshifter.h ****     x ^= x >> 17;
 781              		.loc 13 33 7 is_stmt 0 view .LVU192
 782 01bc 82EA4230 		eor	r0, r2, r2, lsl #13
  34:../temp_time_machine/DaisyExamples/DaisySP//Source/Effects/pitchshifter.h ****     x ^= x << 5;
 783              		.loc 13 34 7 view .LVU193
 784 01c0 80EA5040 		eor	r0, r0, r0, lsr #17
  35:../temp_time_machine/DaisyExamples/DaisySP//Source/Effects/pitchshifter.h ****     return x;
 785              		.loc 13 35 7 view .LVU194
 786 01c4 80EA4010 		eor	r0, r0, r0, lsl #5
 787              	.LBE684:
 788              	.LBE683:
  42:../temp_time_machine/DaisyExamples/DaisySP//Source/Effects/pitchshifter.h ****     return seed;
 789              		.loc 13 42 26 discriminator 1 view .LVU195
 790 01c8 3860     		str	r0, [r7]
 791              	.LBE682:
 792              	.LBE681:
 106:../temp_time_machine/DaisyExamples/DaisySP//Source/Effects/pitchshifter.h ****                          * (del_size_ * 0.5f);
 793              		.loc 13 106 51 discriminator 1 view .LVU196
 794 01ca A1FB027C 		umull	r7, ip, r1, r2
 109:../temp_time_machine/DaisyExamples/DaisySP//Source/Effects/pitchshifter.h ****         }
 795              		.loc 13 109 48 discriminator 1 view .LVU197
 796 01ce A1FB0071 		umull	r7, r1, r1, r0
 106:../temp_time_machine/DaisyExamples/DaisySP//Source/Effects/pitchshifter.h ****                          * (del_size_ * 0.5f);
 797              		.loc 13 106 51 discriminator 1 view .LVU198
 798 01d2 4FEADC1C 		lsr	ip, ip, #7
 109:../temp_time_machine/DaisyExamples/DaisySP//Source/Effects/pitchshifter.h ****         }
 799              		.loc 13 109 48 discriminator 1 view .LVU199
 800 01d6 C909     		lsrs	r1, r1, #7
 106:../temp_time_machine/DaisyExamples/DaisySP//Source/Effects/pitchshifter.h ****                          * (del_size_ * 0.5f);
 801              		.loc 13 106 51 discriminator 1 view .LVU200
 802 01d8 CCEB0C2C 		rsb	ip, ip, ip, lsl #8
 109:../temp_time_machine/DaisyExamples/DaisySP//Source/Effects/pitchshifter.h ****         }
 803              		.loc 13 109 48 discriminator 1 view .LVU201
ARM GAS  /var/folders/v1/156fk8j97zv9pzndh61fy7zm0000gn/T//ccyHp6tG.s 			page 37


 804 01dc C1EB0121 		rsb	r1, r1, r1, lsl #8
 106:../temp_time_machine/DaisyExamples/DaisySP//Source/Effects/pitchshifter.h ****                          * (del_size_ * 0.5f);
 805              		.loc 13 106 51 discriminator 1 view .LVU202
 806 01e0 A2EB0C02 		sub	r2, r2, ip
 109:../temp_time_machine/DaisyExamples/DaisySP//Source/Effects/pitchshifter.h ****         }
 807              		.loc 13 109 48 discriminator 1 view .LVU203
 808 01e4 401A     		subs	r0, r0, r1
 106:../temp_time_machine/DaisyExamples/DaisySP//Source/Effects/pitchshifter.h ****                          * (del_size_ * 0.5f);
 809              		.loc 13 106 34 discriminator 1 view .LVU204
 810 01e6 07EE902A 		vmov	s15, r2	@ int
 811 01ea F8EEE76A 		vcvt.f32.s32	s13, s15
 106:../temp_time_machine/DaisyExamples/DaisySP//Source/Effects/pitchshifter.h ****                          * (del_size_ * 0.5f);
 812              		.loc 13 106 58 discriminator 1 view .LVU205
 813 01ee C6EE857A 		vdiv.f32	s15, s13, s10
 109:../temp_time_machine/DaisyExamples/DaisySP//Source/Effects/pitchshifter.h ****         }
 814              		.loc 13 109 31 discriminator 1 view .LVU206
 815 01f2 06EE900A 		vmov	s13, r0	@ int
 816 01f6 F8EEE66A 		vcvt.f32.s32	s13, s13
 109:../temp_time_machine/DaisyExamples/DaisySP//Source/Effects/pitchshifter.h ****         }
 817              		.loc 13 109 55 discriminator 1 view .LVU207
 818 01fa 86EE854A 		vdiv.f32	s8, s13, s10
 107:../temp_time_machine/DaisyExamples/DaisySP//Source/Effects/pitchshifter.h ****             mod_coeff_[1]
 819              		.loc 13 107 26 view .LVU208
 820 01fe 06EE903A 		vmov	s13, r3	@ int
 821 0202 FBEEEF6A 		vcvt.f32.u32	s13, s13, #1
 106:../temp_time_machine/DaisyExamples/DaisySP//Source/Effects/pitchshifter.h ****                          * (del_size_ * 0.5f);
 822              		.loc 13 106 31 discriminator 1 view .LVU209
 823 0206 67EEA37A 		vmul.f32	s15, s15, s7
 107:../temp_time_machine/DaisyExamples/DaisySP//Source/Effects/pitchshifter.h ****             mod_coeff_[1]
 824              		.loc 13 107 26 view .LVU210
 825 020a 67EEA67A 		vmul.f32	s15, s15, s13
 109:../temp_time_machine/DaisyExamples/DaisySP//Source/Effects/pitchshifter.h ****         }
 826              		.loc 13 109 27 discriminator 1 view .LVU211
 827 020e F0EE466A 		vmov.f32	s13, s12
 106:../temp_time_machine/DaisyExamples/DaisySP//Source/Effects/pitchshifter.h ****                          * (del_size_ * 0.5f);
 828              		.loc 13 106 24 view .LVU212
 829 0212 C4ED1B7A 		vstr.32	s15, [r4, #108]
 108:../temp_time_machine/DaisyExamples/DaisySP//Source/Effects/pitchshifter.h ****                 = 0.0002f + (((float)(myrand() % 255) / 255.0f) * 0.001f);
 830              		.loc 13 108 13 is_stmt 1 view .LVU213
 831              	.LBB688:
 832              	.LBI681:
  39:../temp_time_machine/DaisyExamples/DaisySP//Source/Effects/pitchshifter.h **** {
 833              		.loc 13 39 17 view .LVU214
 834              	.LBB687:
  41:../temp_time_machine/DaisyExamples/DaisySP//Source/Effects/pitchshifter.h ****     seed                 = hash_xs32(seed);
 835              		.loc 13 41 5 view .LVU215
  42:../temp_time_machine/DaisyExamples/DaisySP//Source/Effects/pitchshifter.h ****     return seed;
 836              		.loc 13 42 5 view .LVU216
 837              	.LVL30:
 838              	.LBB686:
 839              	.LBI683:
  31:../temp_time_machine/DaisyExamples/DaisySP//Source/Effects/pitchshifter.h **** {
 840              		.loc 13 31 24 view .LVU217
 841              	.LBB685:
  33:../temp_time_machine/DaisyExamples/DaisySP//Source/Effects/pitchshifter.h ****     x ^= x >> 17;
 842              		.loc 13 33 5 view .LVU218
  34:../temp_time_machine/DaisyExamples/DaisySP//Source/Effects/pitchshifter.h ****     x ^= x << 5;
ARM GAS  /var/folders/v1/156fk8j97zv9pzndh61fy7zm0000gn/T//ccyHp6tG.s 			page 38


 843              		.loc 13 34 5 view .LVU219
  35:../temp_time_machine/DaisyExamples/DaisySP//Source/Effects/pitchshifter.h ****     return x;
 844              		.loc 13 35 5 view .LVU220
  36:../temp_time_machine/DaisyExamples/DaisySP//Source/Effects/pitchshifter.h **** }
 845              		.loc 13 36 5 view .LVU221
  36:../temp_time_machine/DaisyExamples/DaisySP//Source/Effects/pitchshifter.h **** }
 846              		.loc 13 36 5 is_stmt 0 view .LVU222
 847              	.LBE685:
 848              	.LBE686:
  43:../temp_time_machine/DaisyExamples/DaisySP//Source/Effects/pitchshifter.h **** }
 849              		.loc 13 43 5 is_stmt 1 view .LVU223
 850              	.LBE687:
 851              	.LBE688:
 109:../temp_time_machine/DaisyExamples/DaisySP//Source/Effects/pitchshifter.h ****         }
 852              		.loc 13 109 27 is_stmt 0 discriminator 1 view .LVU224
 853 0216 E4EE246A 		vfma.f32	s13, s8, s9
 109:../temp_time_machine/DaisyExamples/DaisySP//Source/Effects/pitchshifter.h ****         }
 854              		.loc 13 109 17 discriminator 1 view .LVU225
 855 021a C4ED216A 		vstr.32	s13, [r4, #132]
 856 021e 1BE7     		b	.L11
 857              	.L8:
  99:../temp_time_machine/DaisyExamples/DaisySP//Source/Effects/pitchshifter.h ****                          * (del_size_ * 0.5f);
 858              		.loc 13 99 13 is_stmt 1 view .LVU226
 859              	.LBB689:
 860              	.LBI689:
  39:../temp_time_machine/DaisyExamples/DaisySP//Source/Effects/pitchshifter.h **** {
 861              		.loc 13 39 17 view .LVU227
 862              	.LBB690:
  41:../temp_time_machine/DaisyExamples/DaisySP//Source/Effects/pitchshifter.h ****     seed                 = hash_xs32(seed);
 863              		.loc 13 41 5 view .LVU228
  42:../temp_time_machine/DaisyExamples/DaisySP//Source/Effects/pitchshifter.h ****     return seed;
 864              		.loc 13 42 5 view .LVU229
  42:../temp_time_machine/DaisyExamples/DaisySP//Source/Effects/pitchshifter.h ****     return seed;
 865              		.loc 13 42 37 is_stmt 0 view .LVU230
 866 0220 244F     		ldr	r7, .L17+16
 867              	.LBE690:
 868              	.LBE689:
  99:../temp_time_machine/DaisyExamples/DaisySP//Source/Effects/pitchshifter.h ****                          * (del_size_ * 0.5f);
 869              		.loc 13 99 51 discriminator 1 view .LVU231
 870 0222 2548     		ldr	r0, .L17+20
 871              	.LBB703:
 872              	.LBB699:
  42:../temp_time_machine/DaisyExamples/DaisySP//Source/Effects/pitchshifter.h ****     return seed;
 873              		.loc 13 42 37 view .LVU232
 874 0224 3A68     		ldr	r2, [r7]
 875              	.LVL31:
 876              	.LBB691:
 877              	.LBI691:
  31:../temp_time_machine/DaisyExamples/DaisySP//Source/Effects/pitchshifter.h **** {
 878              		.loc 13 31 24 is_stmt 1 view .LVU233
 879              	.LBB692:
  33:../temp_time_machine/DaisyExamples/DaisySP//Source/Effects/pitchshifter.h ****     x ^= x >> 17;
 880              		.loc 13 33 5 view .LVU234
 881              	.LBE692:
 882              	.LBE691:
 883              	.LBE699:
 884              	.LBE703:
ARM GAS  /var/folders/v1/156fk8j97zv9pzndh61fy7zm0000gn/T//ccyHp6tG.s 			page 39


  99:../temp_time_machine/DaisyExamples/DaisySP//Source/Effects/pitchshifter.h ****                          * (del_size_ * 0.5f);
 885              		.loc 13 99 58 is_stmt 0 discriminator 1 view .LVU235
 886 0226 DFED256A 		vldr.32	s13, .L17+24
 887              	.LBB704:
 888              	.LBB700:
 889              	.LBB696:
 890              	.LBB693:
  33:../temp_time_machine/DaisyExamples/DaisySP//Source/Effects/pitchshifter.h ****     x ^= x >> 17;
 891              		.loc 13 33 7 view .LVU236
 892 022a 82EA4232 		eor	r2, r2, r2, lsl #13
 893              	.LVL32:
  34:../temp_time_machine/DaisyExamples/DaisySP//Source/Effects/pitchshifter.h ****     x ^= x << 5;
 894              		.loc 13 34 5 is_stmt 1 view .LVU237
 895              	.LBE693:
 896              	.LBE696:
 897              	.LBE700:
 898              	.LBE704:
  99:../temp_time_machine/DaisyExamples/DaisySP//Source/Effects/pitchshifter.h ****                          * (del_size_ * 0.5f);
 899              		.loc 13 99 31 is_stmt 0 discriminator 1 view .LVU238
 900 022e D4ED194A 		vldr.32	s9, [r4, #100]
 102:../temp_time_machine/DaisyExamples/DaisySP//Source/Effects/pitchshifter.h ****         }
 901              		.loc 13 102 27 discriminator 1 view .LVU239
 902 0232 9FED246A 		vldr.32	s12, .L17+32
 903              	.LBB705:
 904              	.LBB701:
 905              	.LBB697:
 906              	.LBB694:
  34:../temp_time_machine/DaisyExamples/DaisySP//Source/Effects/pitchshifter.h ****     x ^= x << 5;
 907              		.loc 13 34 7 view .LVU240
 908 0236 82EA5242 		eor	r2, r2, r2, lsr #17
 909              	.LVL33:
  35:../temp_time_machine/DaisyExamples/DaisySP//Source/Effects/pitchshifter.h ****     return x;
 910              		.loc 13 35 5 is_stmt 1 view .LVU241
 911              	.LBE694:
 912              	.LBE697:
 913              	.LBE701:
 914              	.LBE705:
 102:../temp_time_machine/DaisyExamples/DaisySP//Source/Effects/pitchshifter.h ****         }
 915              		.loc 13 102 27 is_stmt 0 discriminator 1 view .LVU242
 916 023a DFED215A 		vldr.32	s11, .L17+28
 917              	.LBB706:
 918              	.LBB702:
 919              	.LBB698:
 920              	.LBB695:
  35:../temp_time_machine/DaisyExamples/DaisySP//Source/Effects/pitchshifter.h ****     return x;
 921              		.loc 13 35 7 view .LVU243
 922 023e 82EA4212 		eor	r2, r2, r2, lsl #5
 923              	.LVL34:
  36:../temp_time_machine/DaisyExamples/DaisySP//Source/Effects/pitchshifter.h **** }
 924              		.loc 13 36 5 is_stmt 1 view .LVU244
  36:../temp_time_machine/DaisyExamples/DaisySP//Source/Effects/pitchshifter.h **** }
 925              		.loc 13 36 5 is_stmt 0 view .LVU245
 926              	.LBE695:
 927              	.LBE698:
  43:../temp_time_machine/DaisyExamples/DaisySP//Source/Effects/pitchshifter.h **** }
 928              		.loc 13 43 5 is_stmt 1 view .LVU246
 929              	.LBE702:
ARM GAS  /var/folders/v1/156fk8j97zv9pzndh61fy7zm0000gn/T//ccyHp6tG.s 			page 40


 930              	.LBE706:
 931              	.LBB707:
 932              	.LBB708:
 933              	.LBB709:
 934              	.LBB710:
  33:../temp_time_machine/DaisyExamples/DaisySP//Source/Effects/pitchshifter.h ****     x ^= x >> 17;
 935              		.loc 13 33 7 is_stmt 0 view .LVU247
 936 0242 82EA4231 		eor	r1, r2, r2, lsl #13
  34:../temp_time_machine/DaisyExamples/DaisySP//Source/Effects/pitchshifter.h ****     x ^= x << 5;
 937              		.loc 13 34 7 view .LVU248
 938 0246 81EA5141 		eor	r1, r1, r1, lsr #17
  35:../temp_time_machine/DaisyExamples/DaisySP//Source/Effects/pitchshifter.h ****     return x;
 939              		.loc 13 35 7 view .LVU249
 940 024a 81EA4111 		eor	r1, r1, r1, lsl #5
 941              	.LBE710:
 942              	.LBE709:
  42:../temp_time_machine/DaisyExamples/DaisySP//Source/Effects/pitchshifter.h ****     return seed;
 943              		.loc 13 42 26 discriminator 1 view .LVU250
 944 024e 3960     		str	r1, [r7]
 945              	.LBE708:
 946              	.LBE707:
  99:../temp_time_machine/DaisyExamples/DaisySP//Source/Effects/pitchshifter.h ****                          * (del_size_ * 0.5f);
 947              		.loc 13 99 51 discriminator 1 view .LVU251
 948 0250 A0FB027C 		umull	r7, ip, r0, r2
 102:../temp_time_machine/DaisyExamples/DaisySP//Source/Effects/pitchshifter.h ****         }
 949              		.loc 13 102 48 discriminator 1 view .LVU252
 950 0254 A0FB0170 		umull	r7, r0, r0, r1
  99:../temp_time_machine/DaisyExamples/DaisySP//Source/Effects/pitchshifter.h ****                          * (del_size_ * 0.5f);
 951              		.loc 13 99 51 discriminator 1 view .LVU253
 952 0258 4FEADC1C 		lsr	ip, ip, #7
 102:../temp_time_machine/DaisyExamples/DaisySP//Source/Effects/pitchshifter.h ****         }
 953              		.loc 13 102 48 discriminator 1 view .LVU254
 954 025c C009     		lsrs	r0, r0, #7
  99:../temp_time_machine/DaisyExamples/DaisySP//Source/Effects/pitchshifter.h ****                          * (del_size_ * 0.5f);
 955              		.loc 13 99 51 discriminator 1 view .LVU255
 956 025e CCEB0C2C 		rsb	ip, ip, ip, lsl #8
 102:../temp_time_machine/DaisyExamples/DaisySP//Source/Effects/pitchshifter.h ****         }
 957              		.loc 13 102 48 discriminator 1 view .LVU256
 958 0262 C0EB0020 		rsb	r0, r0, r0, lsl #8
  99:../temp_time_machine/DaisyExamples/DaisySP//Source/Effects/pitchshifter.h ****                          * (del_size_ * 0.5f);
 959              		.loc 13 99 51 discriminator 1 view .LVU257
 960 0266 A2EB0C02 		sub	r2, r2, ip
 102:../temp_time_machine/DaisyExamples/DaisySP//Source/Effects/pitchshifter.h ****         }
 961              		.loc 13 102 48 discriminator 1 view .LVU258
 962 026a 091A     		subs	r1, r1, r0
  99:../temp_time_machine/DaisyExamples/DaisySP//Source/Effects/pitchshifter.h ****                          * (del_size_ * 0.5f);
 963              		.loc 13 99 34 discriminator 1 view .LVU259
 964 026c 07EE902A 		vmov	s15, r2	@ int
 965 0270 F8EEE77A 		vcvt.f32.s32	s15, s15
  99:../temp_time_machine/DaisyExamples/DaisySP//Source/Effects/pitchshifter.h ****                          * (del_size_ * 0.5f);
 966              		.loc 13 99 58 discriminator 1 view .LVU260
 967 0274 87EEA67A 		vdiv.f32	s14, s15, s13
 102:../temp_time_machine/DaisyExamples/DaisySP//Source/Effects/pitchshifter.h ****         }
 968              		.loc 13 102 31 discriminator 1 view .LVU261
 969 0278 07EE901A 		vmov	s15, r1	@ int
 970 027c F8EEE77A 		vcvt.f32.s32	s15, s15
 102:../temp_time_machine/DaisyExamples/DaisySP//Source/Effects/pitchshifter.h ****         }
ARM GAS  /var/folders/v1/156fk8j97zv9pzndh61fy7zm0000gn/T//ccyHp6tG.s 			page 41


 971              		.loc 13 102 55 discriminator 1 view .LVU262
 972 0280 87EEA65A 		vdiv.f32	s10, s15, s13
 100:../temp_time_machine/DaisyExamples/DaisySP//Source/Effects/pitchshifter.h ****             mod_coeff_[0]
 973              		.loc 13 100 26 view .LVU263
 974 0284 07EE903A 		vmov	s15, r3	@ int
 975 0288 FBEEEF7A 		vcvt.f32.u32	s15, s15, #1
  99:../temp_time_machine/DaisyExamples/DaisySP//Source/Effects/pitchshifter.h ****                          * (del_size_ * 0.5f);
 976              		.loc 13 99 31 discriminator 1 view .LVU264
 977 028c 27EE247A 		vmul.f32	s14, s14, s9
 100:../temp_time_machine/DaisyExamples/DaisySP//Source/Effects/pitchshifter.h ****             mod_coeff_[0]
 978              		.loc 13 100 26 view .LVU265
 979 0290 27EE277A 		vmul.f32	s14, s14, s15
  99:../temp_time_machine/DaisyExamples/DaisySP//Source/Effects/pitchshifter.h ****                          * (del_size_ * 0.5f);
 980              		.loc 13 99 24 view .LVU266
 981 0294 84ED1A7A 		vstr.32	s14, [r4, #104]
 101:../temp_time_machine/DaisyExamples/DaisySP//Source/Effects/pitchshifter.h ****                 = 0.0002f + (((float)(myrand() % 255) / 255.0f) * 0.001f);
 982              		.loc 13 101 13 is_stmt 1 view .LVU267
 983              	.LBB714:
 984              	.LBI707:
  39:../temp_time_machine/DaisyExamples/DaisySP//Source/Effects/pitchshifter.h **** {
 985              		.loc 13 39 17 view .LVU268
 986              	.LBB713:
  41:../temp_time_machine/DaisyExamples/DaisySP//Source/Effects/pitchshifter.h ****     seed                 = hash_xs32(seed);
 987              		.loc 13 41 5 view .LVU269
  42:../temp_time_machine/DaisyExamples/DaisySP//Source/Effects/pitchshifter.h ****     return seed;
 988              		.loc 13 42 5 view .LVU270
 989              	.LVL35:
 990              	.LBB712:
 991              	.LBI709:
  31:../temp_time_machine/DaisyExamples/DaisySP//Source/Effects/pitchshifter.h **** {
 992              		.loc 13 31 24 view .LVU271
 993              	.LBB711:
  33:../temp_time_machine/DaisyExamples/DaisySP//Source/Effects/pitchshifter.h ****     x ^= x >> 17;
 994              		.loc 13 33 5 view .LVU272
  34:../temp_time_machine/DaisyExamples/DaisySP//Source/Effects/pitchshifter.h ****     x ^= x << 5;
 995              		.loc 13 34 5 view .LVU273
  35:../temp_time_machine/DaisyExamples/DaisySP//Source/Effects/pitchshifter.h ****     return x;
 996              		.loc 13 35 5 view .LVU274
  36:../temp_time_machine/DaisyExamples/DaisySP//Source/Effects/pitchshifter.h **** }
 997              		.loc 13 36 5 view .LVU275
  36:../temp_time_machine/DaisyExamples/DaisySP//Source/Effects/pitchshifter.h **** }
 998              		.loc 13 36 5 is_stmt 0 view .LVU276
 999              	.LBE711:
 1000              	.LBE712:
  43:../temp_time_machine/DaisyExamples/DaisySP//Source/Effects/pitchshifter.h **** }
 1001              		.loc 13 43 5 is_stmt 1 view .LVU277
 1002              	.LBE713:
 1003              	.LBE714:
 102:../temp_time_machine/DaisyExamples/DaisySP//Source/Effects/pitchshifter.h ****         }
 1004              		.loc 13 102 27 is_stmt 0 discriminator 1 view .LVU278
 1005 0298 E5EE065A 		vfma.f32	s11, s10, s12
 102:../temp_time_machine/DaisyExamples/DaisySP//Source/Effects/pitchshifter.h ****         }
 1006              		.loc 13 102 17 discriminator 1 view .LVU279
 1007 029c C4ED205A 		vstr.32	s11, [r4, #128]
 1008 02a0 CEE6     		b	.L9
 1009              	.L18:
 1010 02a2 00BF     		.align	2
ARM GAS  /var/folders/v1/156fk8j97zv9pzndh61fy7zm0000gn/T//ccyHp6tG.s 			page 42


 1011              	.L17:
 1012 02a4 30000200 		.word	131120
 1013 02a8 40000200 		.word	131136
 1014 02ac DB0F4940 		.word	1078530011
 1015 02b0 00000000 		.word	0
 1016 02b4 00000000 		.word	_ZZN7daisysp6myrandEvE4seed
 1017 02b8 81808080 		.word	-2139062143
 1018 02bc 00007F43 		.word	1132396544
 1019 02c0 17B75139 		.word	961656599
 1020 02c4 6F12833A 		.word	981668463
 1021              		.cfi_endproc
 1022              	.LFE3061:
 1024              		.section	.text._ZN3oam6legacy16LegacyMonoEngine7ProcessEf,"axG",%progbits,_ZN3oam6legacy16LegacyMo
 1025              		.align	1
 1026              		.p2align 2,,3
 1027              		.weak	_ZN3oam6legacy16LegacyMonoEngine7ProcessEf
 1028              		.syntax unified
 1029              		.thumb
 1030              		.thumb_func
 1032              	_ZN3oam6legacy16LegacyMonoEngine7ProcessEf:
 1033              	.LVL36:
 1034              	.LFB3746:
 210:legacy_engine.h ****     float out = 0.0f;
 1035              		.loc 11 210 9 is_stmt 1 view -0
 1036              		.cfi_startproc
 1037              		@ args = 0, pretend = 0, frame = 0
 1038              		@ frame_needed = 0, uses_anonymous_args = 0
 211:legacy_engine.h ****     float ampCoef = 0.0f;
 1039              		.loc 11 211 5 view .LVU281
 212:legacy_engine.h ****     for (int i = 0; i < 8; i++) {
 1040              		.loc 11 212 5 view .LVU282
 213:legacy_engine.h ****       // Approximate targetAmp access
 1041              		.loc 11 213 5 view .LVU283
 1042              	.LBB753:
 213:legacy_engine.h ****       // Approximate targetAmp access
 1043              		.loc 11 213 23 discriminator 1 view .LVU284
 1044              	.LBE753:
 210:legacy_engine.h ****     float out = 0.0f;
 1045              		.loc 11 210 9 is_stmt 0 view .LVU285
 1046 0000 70B5     		push	{r4, r5, r6, lr}
 1047              		.cfi_def_cfa_offset 16
 1048              		.cfi_offset 4, -16
 1049              		.cfi_offset 5, -12
 1050              		.cfi_offset 6, -8
 1051              		.cfi_offset 14, -4
 1052 0002 2DED048B 		vpush.64	{d8, d9}
 1053              		.cfi_def_cfa_offset 32
 1054              		.cfi_offset 80, -32
 1055              		.cfi_offset 81, -28
 1056              		.cfi_offset 82, -24
 1057              		.cfi_offset 83, -20
 210:legacy_engine.h ****     float out = 0.0f;
 1058              		.loc 11 210 9 view .LVU286
 1059 0006 F0EE408A 		vmov.f32	s17, s0
 212:legacy_engine.h ****     for (int i = 0; i < 8; i++) {
 1060              		.loc 11 212 11 view .LVU287
 1061 000a DFEDBE7A 		vldr.32	s15, .L54
ARM GAS  /var/folders/v1/156fk8j97zv9pzndh61fy7zm0000gn/T//ccyHp6tG.s 			page 43


 210:legacy_engine.h ****     float out = 0.0f;
 1062              		.loc 11 210 9 view .LVU288
 1063 000e 0546     		mov	r5, r0
 1064 0010 0446     		mov	r4, r0
 1065 0012 00F5F076 		add	r6, r0, #480
 1066 0016 0346     		mov	r3, r0
 1067              	.LVL37:
 1068              	.L20:
 1069              	.LBB754:
 215:legacy_engine.h ****     }
 1070              		.loc 11 215 7 is_stmt 1 view .LVU289
 215:legacy_engine.h ****     }
 1071              		.loc 11 215 15 is_stmt 0 view .LVU290
 1072 0018 93ED097A 		vldr.32	s14, [r3, #36]
 213:legacy_engine.h ****       // Approximate targetAmp access
 1073              		.loc 11 213 23 discriminator 1 view .LVU291
 1074 001c 3C33     		adds	r3, r3, #60
 1075 001e 9E42     		cmp	r6, r3
 215:legacy_engine.h ****     }
 1076              		.loc 11 215 15 view .LVU292
 1077 0020 77EE877A 		vadd.f32	s15, s15, s14
 1078              	.LVL38:
 213:legacy_engine.h ****       // Approximate targetAmp access
 1079              		.loc 11 213 5 is_stmt 1 discriminator 3 view .LVU293
 213:legacy_engine.h ****       // Approximate targetAmp access
 1080              		.loc 11 213 23 discriminator 1 view .LVU294
 1081 0024 F8D1     		bne	.L20
 1082              	.LBE754:
 217:legacy_engine.h **** 
 1083              		.loc 11 217 5 view .LVU295
 1084              	.LVL39:
 1085              	.LBB755:
 1086              	.LBI755:
  63:legacy_engine.h ****     lastVal = lastVal + (x - lastVal) * coef;
 1087              		.loc 11 63 9 view .LVU296
 1088              	.LBB756:
  64:legacy_engine.h ****     return lastVal;
 1089              		.loc 11 64 5 view .LVU297
 1090              	.LBE756:
 1091              	.LBE755:
 217:legacy_engine.h **** 
 1092              		.loc 11 217 34 is_stmt 0 discriminator 1 view .LVU298
 1093 0026 B7EE006A 		vmov.f32	s12, #1.0e+0
 1094              	.LBB760:
 1095              	.LBB761:
 1096              	.LBB762:
 1097              	.LBB763:
  64:legacy_engine.h ****     return lastVal;
 1098              		.loc 11 64 15 view .LVU299
 1099 002a 95ED787A 		vldr.32	s14, [r5, #480]
 1100              	.LBE763:
 1101              	.LBE762:
  95:legacy_engine.h ****     return x;
 1102              		.loc 11 95 27 view .LVU300
 1103 002e F0EEE86A 		vabs.f32	s13, s17
 1104              	.LBB769:
 1105              	.LBB764:
ARM GAS  /var/folders/v1/156fk8j97zv9pzndh61fy7zm0000gn/T//ccyHp6tG.s 			page 44


  64:legacy_engine.h ****     return lastVal;
 1106              		.loc 11 64 23 view .LVU301
 1107 0032 D5ED794A 		vldr.32	s9, [r5, #484]
 1108              	.LBE764:
 1109              	.LBE769:
 1110              	.LBE761:
 1111              	.LBE760:
 1112              	.LBB778:
 1113              	.LBB757:
  64:legacy_engine.h ****     return lastVal;
 1114              		.loc 11 64 15 view .LVU302
 1115 0036 95ED869A 		vldr.32	s18, [r5, #536]
 1116              	.LBE757:
 1117              	.LBE778:
 217:legacy_engine.h **** 
 1118              		.loc 11 217 34 discriminator 1 view .LVU303
 1119 003a F4EEC67A 		vcmpe.f32	s15, s12
 1120              	.LBB779:
 1121              	.LBB758:
  64:legacy_engine.h ****     return lastVal;
 1122              		.loc 11 64 23 view .LVU304
 1123 003e D5ED875A 		vldr.32	s11, [r5, #540]
 1124              	.LBE758:
 1125              	.LBE779:
 1126              	.LBB780:
 1127              	.LBB774:
 1128              	.LBB770:
 1129              	.LBB765:
  64:legacy_engine.h ****     return lastVal;
 1130              		.loc 11 64 28 view .LVU305
 1131 0042 76EEC76A 		vsub.f32	s13, s13, s14
 1132              	.LBE765:
 1133              	.LBE770:
 1134              	.LBE774:
 1135              	.LBE780:
 219:legacy_engine.h **** 
 1136              		.loc 11 219 12 view .LVU306
 1137 0046 95ED7E5A 		vldr.32	s10, [r5, #504]	@ int
 219:legacy_engine.h **** 
 1138              		.loc 11 219 29 view .LVU307
 1139 004a D5F8F031 		ldr	r3, [r5, #496]
 217:legacy_engine.h **** 
 1140              		.loc 11 217 34 discriminator 1 view .LVU308
 1141 004e F1EE10FA 		vmrs	APSR_nzcv, FPSCR
 219:legacy_engine.h **** 
 1142              		.loc 11 219 29 view .LVU309
 1143 0052 15EE102A 		vmov	r2, s10	@ int
 1144              	.LBB781:
 1145              	.LBB775:
 1146              	.LBB771:
 1147              	.LBB766:
  64:legacy_engine.h ****     return lastVal;
 1148              		.loc 11 64 23 view .LVU310
 1149 0056 A6EEA47A 		vfma.f32	s14, s13, s9
 1150              	.LBE766:
 1151              	.LBE771:
 1152              	.LBE775:
ARM GAS  /var/folders/v1/156fk8j97zv9pzndh61fy7zm0000gn/T//ccyHp6tG.s 			page 45


 1153              	.LBE781:
 211:legacy_engine.h ****     float ampCoef = 0.0f;
 1154              		.loc 11 211 11 view .LVU311
 1155 005a DFEDAA9A 		vldr.32	s19, .L54
 219:legacy_engine.h **** 
 1156              		.loc 11 219 29 view .LVU312
 1157 005e 03EB8203 		add	r3, r3, r2, lsl #2
 217:legacy_engine.h **** 
 1158              		.loc 11 217 34 discriminator 1 view .LVU313
 1159 0062 77FE867A 		vselgt.f32	s15, s15, s12
 1160              	.LVL40:
 217:legacy_engine.h **** 
 1161              		.loc 11 217 34 discriminator 1 view .LVU314
 1162 0066 C6EE276A 		vdiv.f32	s13, s12, s15
 1163              	.LBB782:
 1164              	.LBB776:
 1165              	.LBB772:
 1166              	.LBB767:
  64:legacy_engine.h ****     return lastVal;
 1167              		.loc 11 64 13 view .LVU315
 1168 006a 85ED787A 		vstr.32	s14, [r5, #480]
 1169              	.LBE767:
 1170              	.LBE772:
  95:legacy_engine.h ****     return x;
 1171              		.loc 11 95 13 discriminator 1 view .LVU316
 1172 006e 85ED7A7A 		vstr.32	s14, [r5, #488]
 1173              	.LBE776:
 1174              	.LBE782:
 1175              	.LBB783:
 1176              	.LBB759:
  64:legacy_engine.h ****     return lastVal;
 1177              		.loc 11 64 28 view .LVU317
 1178 0072 76EEC97A 		vsub.f32	s15, s13, s18
  64:legacy_engine.h ****     return lastVal;
 1179              		.loc 11 64 23 view .LVU318
 1180 0076 A7EEA59A 		vfma.f32	s18, s15, s11
  64:legacy_engine.h ****     return lastVal;
 1181              		.loc 11 64 13 view .LVU319
 1182 007a 85ED869A 		vstr.32	s18, [r5, #536]
  65:legacy_engine.h ****   }
 1183              		.loc 11 65 5 is_stmt 1 view .LVU320
 1184              	.LVL41:
  65:legacy_engine.h ****   }
 1185              		.loc 11 65 5 is_stmt 0 view .LVU321
 1186              	.LBE759:
 1187              	.LBE783:
 219:legacy_engine.h **** 
 1188              		.loc 11 219 5 is_stmt 1 view .LVU322
 1189              	.LBB784:
 1190              	.LBI760:
  94:legacy_engine.h ****     lastVal = slew.Process(fabsf(x));
 1191              		.loc 11 94 9 view .LVU323
 1192              	.LBB777:
  95:legacy_engine.h ****     return x;
 1193              		.loc 11 95 5 view .LVU324
 1194              	.LBB773:
 1195              	.LBI762:
ARM GAS  /var/folders/v1/156fk8j97zv9pzndh61fy7zm0000gn/T//ccyHp6tG.s 			page 46


  63:legacy_engine.h ****     lastVal = lastVal + (x - lastVal) * coef;
 1196              		.loc 11 63 9 view .LVU325
 1197              	.LBB768:
  64:legacy_engine.h ****     return lastVal;
 1198              		.loc 11 64 5 view .LVU326
  65:legacy_engine.h ****   }
 1199              		.loc 11 65 5 view .LVU327
  65:legacy_engine.h ****   }
 1200              		.loc 11 65 5 is_stmt 0 view .LVU328
 1201              	.LBE768:
 1202              	.LBE773:
  96:legacy_engine.h ****   }
 1203              		.loc 11 96 5 is_stmt 1 view .LVU329
  96:legacy_engine.h ****   }
 1204              		.loc 11 96 5 is_stmt 0 view .LVU330
 1205              	.LBE777:
 1206              	.LBE784:
 219:legacy_engine.h **** 
 1207              		.loc 11 219 31 discriminator 1 view .LVU331
 1208 007e C3ED008A 		vstr.32	s17, [r3]
 221:legacy_engine.h ****       out += readHeads[i].Process((float)writeHeadPosition);
 1209              		.loc 11 221 5 is_stmt 1 view .LVU332
 1210              	.LVL42:
 1211              	.LBB785:
 221:legacy_engine.h ****       out += readHeads[i].Process((float)writeHeadPosition);
 1212              		.loc 11 221 23 discriminator 1 view .LVU333
 1213              	.L37:
 222:legacy_engine.h **** 
 1214              		.loc 11 222 7 view .LVU334
 1215              	.LBB786:
 1216              	.LBB787:
 1217              	.LBB788:
 128:legacy_engine.h ****       if (targetDelay >= 0.0f) {
 1218              		.loc 11 128 5 is_stmt 0 view .LVU335
 1219 0082 F7EE007A 		vmov.f32	s15, #1.0e+0
 1220 0086 D4ED0C6A 		vldr.32	s13, [r4, #48]
 1221              	.LBE788:
 1222              	.LBE787:
 1223              	.LBE786:
 222:legacy_engine.h **** 
 1224              		.loc 11 222 34 view .LVU336
 1225 008a B8EEC58A 		vcvt.f32.s32	s16, s10
 1226              	.LVL43:
 1227              	.LBB823:
 1228              	.LBI786:
 127:legacy_engine.h ****     if (phase >= 1.0f && (targetDelay >= 0.0f || targetAmp >= 0.0f)) {
 1229              		.loc 11 127 9 is_stmt 1 view .LVU337
 1230              	.LBB819:
 128:legacy_engine.h ****       if (targetDelay >= 0.0f) {
 1231              		.loc 11 128 5 view .LVU338
 1232              	.LBB791:
 1233 008e F4EEE76A 		vcmpe.f32	s13, s15
 1234 0092 F1EE10FA 		vmrs	APSR_nzcv, FPSCR
 1235 0096 C0F22B81 		blt	.L52
 128:legacy_engine.h ****       if (targetDelay >= 0.0f) {
 1236              		.loc 11 128 27 is_stmt 0 discriminator 1 view .LVU339
 1237 009a D4ED077A 		vldr.32	s15, [r4, #28]
ARM GAS  /var/folders/v1/156fk8j97zv9pzndh61fy7zm0000gn/T//ccyHp6tG.s 			page 47


 128:legacy_engine.h ****       if (targetDelay >= 0.0f) {
 1238              		.loc 11 128 23 discriminator 1 view .LVU340
 1239 009e F5EEC07A 		vcmpe.f32	s15, #0
 1240 00a2 F1EE10FA 		vmrs	APSR_nzcv, FPSCR
 1241 00a6 C0F21C81 		blt	.L53
 1242              	.LBB789:
 129:legacy_engine.h ****         delayA = delayB;
 1243              		.loc 11 129 7 is_stmt 1 view .LVU341
 130:legacy_engine.h ****         delayB = targetDelay;
 1244              		.loc 11 130 9 view .LVU342
 134:legacy_engine.h ****         ampA = ampB;
 1245              		.loc 11 134 11 is_stmt 0 view .LVU343
 1246 00aa 94ED0A7A 		vldr.32	s14, [r4, #40]
 130:legacy_engine.h ****         delayB = targetDelay;
 1247              		.loc 11 130 16 view .LVU344
 1248 00ae A269     		ldr	r2, [r4, #24]	@ float
 134:legacy_engine.h ****         ampA = ampB;
 1249              		.loc 11 134 7 view .LVU345
 1250 00b0 B5EEC07A 		vcmpe.f32	s14, #0
 132:legacy_engine.h ****       }
 1251              		.loc 11 132 21 view .LVU346
 1252 00b4 944B     		ldr	r3, .L54+4
 131:legacy_engine.h ****         targetDelay = -1.0f;
 1253              		.loc 11 131 16 view .LVU347
 1254 00b6 C4ED067A 		vstr.32	s15, [r4, #24]
 130:legacy_engine.h ****         delayB = targetDelay;
 1255              		.loc 11 130 16 view .LVU348
 1256 00ba 6261     		str	r2, [r4, #20]	@ float
 131:legacy_engine.h ****         targetDelay = -1.0f;
 1257              		.loc 11 131 9 is_stmt 1 view .LVU349
 132:legacy_engine.h ****       }
 1258              		.loc 11 132 9 view .LVU350
 134:legacy_engine.h ****         ampA = ampB;
 1259              		.loc 11 134 7 is_stmt 0 view .LVU351
 1260 00bc F1EE10FA 		vmrs	APSR_nzcv, FPSCR
 132:legacy_engine.h ****       }
 1261              		.loc 11 132 21 view .LVU352
 1262 00c0 E361     		str	r3, [r4, #28]	@ float
 134:legacy_engine.h ****         ampA = ampB;
 1263              		.loc 11 134 7 is_stmt 1 view .LVU353
 1264 00c2 80F21881 		bge	.L24
 1265              	.L25:
 139:legacy_engine.h ****       // Simple random for blur
 1266              		.loc 11 139 7 view .LVU354
 139:legacy_engine.h ****       // Simple random for blur
 1267              		.loc 11 139 13 is_stmt 0 view .LVU355
 1268 00c6 0023     		movs	r3, #0
 1269 00c8 2363     		str	r3, [r4, #48]	@ float
 141:legacy_engine.h ****       delta = (5.0f + (r * blurAmount)) / sampleRate;
 1270              		.loc 11 141 7 is_stmt 1 view .LVU356
 141:legacy_engine.h ****       delta = (5.0f + (r * blurAmount)) / sampleRate;
 1271              		.loc 11 141 29 is_stmt 0 view .LVU357
 1272 00ca FFF7FEFF 		bl	rand
 1273              	.LVL44:
 1274 00ce 05EE900A 		vmov	s11, r0	@ int
 141:legacy_engine.h ****       delta = (5.0f + (r * blurAmount)) / sampleRate;
 1275              		.loc 11 141 60 discriminator 1 view .LVU358
ARM GAS  /var/folders/v1/156fk8j97zv9pzndh61fy7zm0000gn/T//ccyHp6tG.s 			page 48


 1276 00d2 B0EE004A 		vmov.f32	s8, #2.0e+0
 142:legacy_engine.h ****     }
 1277              		.loc 11 142 21 view .LVU359
 1278 00d6 D4ED0E4A 		vldr.32	s9, [r4, #56]
 141:legacy_engine.h ****       delta = (5.0f + (r * blurAmount)) / sampleRate;
 1279              		.loc 11 141 60 discriminator 1 view .LVU360
 1280 00da BFEE006A 		vmov.f32	s12, #-1.0e+0
 142:legacy_engine.h ****     }
 1281              		.loc 11 142 41 view .LVU361
 1282 00de 94ED0B7A 		vldr.32	s14, [r4, #44]
 141:legacy_engine.h ****       delta = (5.0f + (r * blurAmount)) / sampleRate;
 1283              		.loc 11 141 32 discriminator 1 view .LVU362
 1284 00e2 FAEEE05A 		vcvt.f32.s32	s11, s11, #31
 1285 00e6 D4ED0C6A 		vldr.32	s13, [r4, #48]
 142:legacy_engine.h ****     }
 1286              		.loc 11 142 21 view .LVU363
 1287 00ea F1EE047A 		vmov.f32	s15, #5.0e+0
 1288 00ee 95ED7E5A 		vldr.32	s10, [r5, #504]	@ int
 141:legacy_engine.h ****       delta = (5.0f + (r * blurAmount)) / sampleRate;
 1289              		.loc 11 141 60 discriminator 1 view .LVU364
 1290 00f2 A5EE846A 		vfma.f32	s12, s11, s8
 1291              	.LVL45:
 142:legacy_engine.h ****     }
 1292              		.loc 11 142 7 is_stmt 1 view .LVU365
 142:legacy_engine.h ****     }
 1293              		.loc 11 142 21 is_stmt 0 view .LVU366
 1294 00f6 E6EE247A 		vfma.f32	s15, s12, s9
 142:legacy_engine.h ****     }
 1295              		.loc 11 142 41 view .LVU367
 1296 00fa 87EE876A 		vdiv.f32	s12, s15, s14
 1297              	.LVL46:
 142:legacy_engine.h ****     }
 1298              		.loc 11 142 13 view .LVU368
 1299 00fe 84ED0D6A 		vstr.32	s12, [r4, #52]
 1300              	.LVL47:
 1301              	.L21:
 142:legacy_engine.h ****     }
 1302              		.loc 11 142 13 view .LVU369
 1303              	.LBE789:
 1304              	.LBE791:
 145:legacy_engine.h ****         writeHeadPosition -
 1305              		.loc 11 145 5 is_stmt 1 view .LVU370
 1306              	.LBB792:
 1307              	.LBI792:
  48:legacy_engine.h ****   static int wrap_buffer_index(int x, int size) {
 1308              		.loc 11 48 14 view .LVU371
 1309              	.LBB793:
  48:legacy_engine.h ****   static int wrap_buffer_index(int x, int size) {
 1310              		.loc 11 48 54 view .LVU372
  48:legacy_engine.h ****   static int wrap_buffer_index(int x, int size) {
 1311              		.loc 11 48 69 is_stmt 0 view .LVU373
 1312 0102 D4ED057A 		vldr.32	s15, [r4, #20]
 1313              	.LBE793:
 1314              	.LBE792:
 145:legacy_engine.h ****         writeHeadPosition -
 1315              		.loc 11 145 48 view .LVU374
 1316 0106 2369     		ldr	r3, [r4, #16]
ARM GAS  /var/folders/v1/156fk8j97zv9pzndh61fy7zm0000gn/T//ccyHp6tG.s 			page 49


 1317              	.LBB795:
 1318              	.LBB794:
  48:legacy_engine.h ****   static int wrap_buffer_index(int x, int size) {
 1319              		.loc 11 48 69 view .LVU375
 1320 0108 67EE277A 		vmul.f32	s15, s14, s15
  48:legacy_engine.h ****   static int wrap_buffer_index(int x, int size) {
 1321              		.loc 11 48 73 view .LVU376
 1322 010c FDEEE77A 		vcvt.s32.f32	s15, s15
 1323              	.LBE794:
 1324              	.LBE795:
 146:legacy_engine.h ****             LegacyHelpers::seconds_to_samples(delayA, sampleRate),
 1325              		.loc 11 146 27 view .LVU377
 1326 0110 F8EEE77A 		vcvt.f32.s32	s15, s15
 1327 0114 78EE677A 		vsub.f32	s15, s16, s15
 145:legacy_engine.h ****         writeHeadPosition -
 1328              		.loc 11 145 48 view .LVU378
 1329 0118 FDEEE77A 		vcvt.s32.f32	s15, s15
 1330 011c 17EE902A 		vmov	r2, s15	@ int
 1331              	.LVL48:
 1332              	.LBB796:
 1333              	.LBI796:
  49:legacy_engine.h ****     while (x >= size)
 1334              		.loc 11 49 14 is_stmt 1 view .LVU379
 1335              	.LBB797:
  50:legacy_engine.h ****       x -= size;
 1336              		.loc 11 50 5 view .LVU380
  50:legacy_engine.h ****       x -= size;
 1337              		.loc 11 50 14 view .LVU381
 1338 0120 9A42     		cmp	r2, r3
 1339 0122 02DB     		blt	.L27
 1340              	.L28:
  51:legacy_engine.h ****     while (x < 0)
 1341              		.loc 11 51 7 view .LVU382
  51:legacy_engine.h ****     while (x < 0)
 1342              		.loc 11 51 9 is_stmt 0 view .LVU383
 1343 0124 D21A     		subs	r2, r2, r3
 1344              	.LVL49:
  50:legacy_engine.h ****       x -= size;
 1345              		.loc 11 50 14 is_stmt 1 view .LVU384
 1346 0126 9342     		cmp	r3, r2
 1347 0128 FCDD     		ble	.L28
 1348              	.L27:
  52:legacy_engine.h ****       x += size;
 1349              		.loc 11 52 14 view .LVU385
 1350 012a 002A     		cmp	r2, #0
 1351 012c 01DA     		bge	.L29
 1352              	.LVL50:
 1353              	.L30:
  53:legacy_engine.h ****     return x;
 1354              		.loc 11 53 7 view .LVU386
  52:legacy_engine.h ****       x += size;
 1355              		.loc 11 52 14 view .LVU387
 1356 012e D218     		adds	r2, r2, r3
 1357              	.LVL51:
  52:legacy_engine.h ****       x += size;
 1358              		.loc 11 52 14 is_stmt 0 view .LVU388
 1359 0130 FDD4     		bmi	.L30
ARM GAS  /var/folders/v1/156fk8j97zv9pzndh61fy7zm0000gn/T//ccyHp6tG.s 			page 50


 1360              	.LVL52:
 1361              	.L29:
  54:legacy_engine.h ****   }
 1362              		.loc 11 54 5 is_stmt 1 view .LVU389
  54:legacy_engine.h ****   }
 1363              		.loc 11 54 5 is_stmt 0 view .LVU390
 1364              	.LBE797:
 1365              	.LBE796:
 149:legacy_engine.h ****         writeHeadPosition -
 1366              		.loc 11 149 5 is_stmt 1 view .LVU391
 1367              	.LBB798:
 1368              	.LBI798:
  48:legacy_engine.h ****   static int wrap_buffer_index(int x, int size) {
 1369              		.loc 11 48 14 view .LVU392
 1370              	.LBB799:
  48:legacy_engine.h ****   static int wrap_buffer_index(int x, int size) {
 1371              		.loc 11 48 54 view .LVU393
  48:legacy_engine.h ****   static int wrap_buffer_index(int x, int size) {
 1372              		.loc 11 48 69 is_stmt 0 view .LVU394
 1373 0132 D4ED067A 		vldr.32	s15, [r4, #24]
 1374 0136 27EE277A 		vmul.f32	s14, s14, s15
  48:legacy_engine.h ****   static int wrap_buffer_index(int x, int size) {
 1375              		.loc 11 48 73 view .LVU395
 1376 013a BDEEC77A 		vcvt.s32.f32	s14, s14
 1377              	.LBE799:
 1378              	.LBE798:
 150:legacy_engine.h ****             LegacyHelpers::seconds_to_samples(delayB, sampleRate),
 1379              		.loc 11 150 27 view .LVU396
 1380 013e B8EEC77A 		vcvt.f32.s32	s14, s14
 1381 0142 38EE478A 		vsub.f32	s16, s16, s14
 1382              	.LVL53:
 149:legacy_engine.h ****         writeHeadPosition -
 1383              		.loc 11 149 48 view .LVU397
 1384 0146 FDEEC87A 		vcvt.s32.f32	s15, s16
 1385 014a 17EE901A 		vmov	r1, s15	@ int
 1386              	.LVL54:
 1387              	.LBB800:
 1388              	.LBI800:
  49:legacy_engine.h ****     while (x >= size)
 1389              		.loc 11 49 14 is_stmt 1 view .LVU398
 1390              	.LBB801:
  50:legacy_engine.h ****       x -= size;
 1391              		.loc 11 50 5 view .LVU399
  50:legacy_engine.h ****       x -= size;
 1392              		.loc 11 50 14 view .LVU400
 1393 014e 8B42     		cmp	r3, r1
 1394 0150 02DC     		bgt	.L31
 1395              	.L32:
  51:legacy_engine.h ****     while (x < 0)
 1396              		.loc 11 51 7 view .LVU401
  51:legacy_engine.h ****     while (x < 0)
 1397              		.loc 11 51 9 is_stmt 0 view .LVU402
 1398 0152 C91A     		subs	r1, r1, r3
 1399              	.LVL55:
  50:legacy_engine.h ****       x -= size;
 1400              		.loc 11 50 14 is_stmt 1 view .LVU403
 1401 0154 8B42     		cmp	r3, r1
ARM GAS  /var/folders/v1/156fk8j97zv9pzndh61fy7zm0000gn/T//ccyHp6tG.s 			page 51


 1402 0156 FCDD     		ble	.L32
 1403              	.L31:
  52:legacy_engine.h ****       x += size;
 1404              		.loc 11 52 14 view .LVU404
 1405 0158 0029     		cmp	r1, #0
 1406 015a 01DA     		bge	.L33
 1407              	.LVL56:
 1408              	.L34:
  53:legacy_engine.h ****     return x;
 1409              		.loc 11 53 7 view .LVU405
  52:legacy_engine.h ****       x += size;
 1410              		.loc 11 52 14 view .LVU406
 1411 015c C918     		adds	r1, r1, r3
 1412              	.LVL57:
  52:legacy_engine.h ****       x += size;
 1413              		.loc 11 52 14 is_stmt 0 view .LVU407
 1414 015e FDD4     		bmi	.L34
 1415              	.LVL58:
 1416              	.L33:
  54:legacy_engine.h ****   }
 1417              		.loc 11 54 5 is_stmt 1 view .LVU408
  54:legacy_engine.h ****   }
 1418              		.loc 11 54 5 is_stmt 0 view .LVU409
 1419              	.LBE801:
 1420              	.LBE800:
 154:legacy_engine.h ****     float outB = buffer[idxB];
 1421              		.loc 11 154 5 is_stmt 1 view .LVU410
 157:legacy_engine.h ****     float outputAmp = ((1.0f - phase) * ampA) + (phase * ampB);
 1422              		.loc 11 157 27 is_stmt 0 view .LVU411
 1423 0160 B7EE007A 		vmov.f32	s14, #1.0e+0
 154:legacy_engine.h ****     float outB = buffer[idxB];
 1424              		.loc 11 154 18 view .LVU412
 1425 0164 E368     		ldr	r3, [r4, #12]
 1426              	.LVL59:
 155:legacy_engine.h **** 
 1427              		.loc 11 155 5 is_stmt 1 view .LVU413
 157:legacy_engine.h ****     float outputAmp = ((1.0f - phase) * ampA) + (phase * ampB);
 1428              		.loc 11 157 5 view .LVU414
 158:legacy_engine.h **** 
 1429              		.loc 11 158 56 is_stmt 0 view .LVU415
 1430 0166 94ED096A 		vldr.32	s12, [r4, #36]
 155:legacy_engine.h **** 
 1431              		.loc 11 155 11 view .LVU416
 1432 016a 03EB8101 		add	r1, r3, r1, lsl #2
 1433              	.LVL60:
 158:legacy_engine.h **** 
 1434              		.loc 11 158 11 view .LVU417
 1435 016e 94ED084A 		vldr.32	s8, [r4, #32]
 160:legacy_engine.h ****     return loudness.Process(output) * outputAmp;
 1436              		.loc 11 160 27 view .LVU418
 1437 0172 F4EEC76A 		vcmpe.f32	s13, s14
 154:legacy_engine.h ****     float outB = buffer[idxB];
 1438              		.loc 11 154 11 view .LVU419
 1439 0176 03EB8203 		add	r3, r3, r2, lsl #2
 1440              	.LVL61:
 157:legacy_engine.h ****     float outputAmp = ((1.0f - phase) * ampA) + (phase * ampB);
 1441              		.loc 11 157 53 view .LVU420
ARM GAS  /var/folders/v1/156fk8j97zv9pzndh61fy7zm0000gn/T//ccyHp6tG.s 			page 52


 1442 017a D1ED007A 		vldr.32	s15, [r1]
 157:legacy_engine.h ****     float outputAmp = ((1.0f - phase) * ampA) + (phase * ampB);
 1443              		.loc 11 157 27 view .LVU421
 1444 017e 77EE665A 		vsub.f32	s11, s14, s13
 158:legacy_engine.h **** 
 1445              		.loc 11 158 56 view .LVU422
 1446 0182 26EE866A 		vmul.f32	s12, s13, s12
 157:legacy_engine.h ****     float outputAmp = ((1.0f - phase) * ampA) + (phase * ampB);
 1447              		.loc 11 157 11 view .LVU423
 1448 0186 D3ED004A 		vldr.32	s9, [r3]
 157:legacy_engine.h ****     float outputAmp = ((1.0f - phase) * ampA) + (phase * ampB);
 1449              		.loc 11 157 53 view .LVU424
 1450 018a 66EEA77A 		vmul.f32	s15, s13, s15
 160:legacy_engine.h ****     return loudness.Process(output) * outputAmp;
 1451              		.loc 11 160 27 view .LVU425
 1452 018e F1EE10FA 		vmrs	APSR_nzcv, FPSCR
 158:legacy_engine.h **** 
 1453              		.loc 11 158 11 view .LVU426
 1454 0192 A5EE846A 		vfma.f32	s12, s11, s8
 157:legacy_engine.h ****     float outputAmp = ((1.0f - phase) * ampA) + (phase * ampB);
 1455              		.loc 11 157 11 view .LVU427
 1456 0196 E4EEA57A 		vfma.f32	s15, s9, s11
 1457              	.LVL62:
 158:legacy_engine.h **** 
 1458              		.loc 11 158 5 is_stmt 1 view .LVU428
 160:legacy_engine.h ****     return loudness.Process(output) * outputAmp;
 1459              		.loc 11 160 5 view .LVU429
 160:legacy_engine.h ****     return loudness.Process(output) * outputAmp;
 1460              		.loc 11 160 27 is_stmt 0 view .LVU430
 1461 019a 03D8     		bhi	.L35
 160:legacy_engine.h ****     return loudness.Process(output) * outputAmp;
 1462              		.loc 11 160 27 discriminator 1 view .LVU431
 1463 019c 94ED0D7A 		vldr.32	s14, [r4, #52]
 1464 01a0 36EE877A 		vadd.f32	s14, s13, s14
 1465              	.L35:
 1466              	.LBB802:
 1467              	.LBB803:
  95:legacy_engine.h ****     return x;
 1468              		.loc 11 95 27 view .LVU432
 1469 01a4 F0EEE75A 		vabs.f32	s11, s15
 1470              	.LBB804:
 1471              	.LBB805:
  64:legacy_engine.h ****     return lastVal;
 1472              		.loc 11 64 15 view .LVU433
 1473 01a8 D4ED006A 		vldr.32	s13, [r4]
 1474              	.LBE805:
 1475              	.LBE804:
 1476              	.LBE803:
 1477              	.LBE802:
 160:legacy_engine.h ****     return loudness.Process(output) * outputAmp;
 1478              		.loc 11 160 11 discriminator 4 view .LVU434
 1479 01ac 84ED0C7A 		vstr.32	s14, [r4, #48]
 1480              	.LVL63:
 161:legacy_engine.h ****   }
 1481              		.loc 11 161 5 is_stmt 1 view .LVU435
 1482              	.LBB815:
 1483              	.LBI802:
ARM GAS  /var/folders/v1/156fk8j97zv9pzndh61fy7zm0000gn/T//ccyHp6tG.s 			page 53


  94:legacy_engine.h ****     lastVal = slew.Process(fabsf(x));
 1484              		.loc 11 94 9 view .LVU436
 1485              	.LBB812:
  95:legacy_engine.h ****     return x;
 1486              		.loc 11 95 5 view .LVU437
 1487              	.LBB809:
 1488              	.LBI804:
  63:legacy_engine.h ****     lastVal = lastVal + (x - lastVal) * coef;
 1489              		.loc 11 63 9 view .LVU438
 1490              	.LBB806:
  64:legacy_engine.h ****     return lastVal;
 1491              		.loc 11 64 5 view .LVU439
 1492              	.LBE806:
 1493              	.LBE809:
 1494              	.LBE812:
 1495              	.LBE815:
 1496              	.LBE819:
 1497              	.LBE823:
 222:legacy_engine.h **** 
 1498              		.loc 11 222 11 is_stmt 0 discriminator 1 view .LVU440
 1499 01b0 E7EE869A 		vfma.f32	s19, s15, s12
 1500              	.LVL64:
 1501              	.LBB824:
 1502              	.LBB820:
 1503              	.LBB816:
 1504              	.LBB813:
 1505              	.LBB810:
 1506              	.LBB807:
  64:legacy_engine.h ****     return lastVal;
 1507              		.loc 11 64 23 view .LVU441
 1508 01b4 F0EE667A 		vmov.f32	s15, s13
 1509              	.LVL65:
  64:legacy_engine.h ****     return lastVal;
 1510              		.loc 11 64 23 view .LVU442
 1511 01b8 D4ED014A 		vldr.32	s9, [r4, #4]
 1512              	.LVL66:
  64:legacy_engine.h ****     return lastVal;
 1513              		.loc 11 64 28 view .LVU443
 1514 01bc 35EEE67A 		vsub.f32	s14, s11, s13
 1515              	.LBE807:
 1516              	.LBE810:
 1517              	.LBE813:
 1518              	.LBE816:
 1519              	.LBE820:
 1520              	.LBE824:
 221:legacy_engine.h ****       out += readHeads[i].Process((float)writeHeadPosition);
 1521              		.loc 11 221 23 discriminator 1 view .LVU444
 1522 01c0 3C34     		adds	r4, r4, #60
 1523              	.LVL67:
 221:legacy_engine.h ****       out += readHeads[i].Process((float)writeHeadPosition);
 1524              		.loc 11 221 23 discriminator 1 view .LVU445
 1525 01c2 A642     		cmp	r6, r4
 1526              	.LBB825:
 1527              	.LBB821:
 1528              	.LBB817:
 1529              	.LBB814:
 1530              	.LBB811:
ARM GAS  /var/folders/v1/156fk8j97zv9pzndh61fy7zm0000gn/T//ccyHp6tG.s 			page 54


 1531              	.LBB808:
  64:legacy_engine.h ****     return lastVal;
 1532              		.loc 11 64 23 view .LVU446
 1533 01c4 E7EE247A 		vfma.f32	s15, s14, s9
  64:legacy_engine.h ****     return lastVal;
 1534              		.loc 11 64 13 view .LVU447
 1535 01c8 44ED0F7A 		vstr.32	s15, [r4, #-60]
  65:legacy_engine.h ****   }
 1536              		.loc 11 65 5 is_stmt 1 view .LVU448
 1537              	.LVL68:
  65:legacy_engine.h ****   }
 1538              		.loc 11 65 5 is_stmt 0 view .LVU449
 1539              	.LBE808:
 1540              	.LBE811:
  95:legacy_engine.h ****     return x;
 1541              		.loc 11 95 13 discriminator 1 view .LVU450
 1542 01cc 44ED0D7A 		vstr.32	s15, [r4, #-52]
  96:legacy_engine.h ****   }
 1543              		.loc 11 96 5 is_stmt 1 view .LVU451
 1544              	.LVL69:
  96:legacy_engine.h ****   }
 1545              		.loc 11 96 5 is_stmt 0 view .LVU452
 1546              	.LBE814:
 1547              	.LBE817:
 1548              	.LBE821:
 1549              	.LBE825:
 221:legacy_engine.h ****       out += readHeads[i].Process((float)writeHeadPosition);
 1550              		.loc 11 221 5 is_stmt 1 discriminator 3 view .LVU453
 221:legacy_engine.h ****       out += readHeads[i].Process((float)writeHeadPosition);
 1551              		.loc 11 221 23 discriminator 1 view .LVU454
 1552 01d0 7FF457AF 		bne	.L37
 1553              	.LBE785:
 225:legacy_engine.h **** 
 1554              		.loc 11 225 5 view .LVU455
 1555              	.LVL70:
 1556              	.LBB827:
 1557              	.LBI827:
  39:../temp_time_machine/DaisyExamples/DaisySP//DaisySP-LGPL/Source/Dynamics/compressor.h ****     /** Initializes compressor
  40:../temp_time_machine/DaisyExamples/DaisySP//DaisySP-LGPL/Source/Dynamics/compressor.h ****         \param sample_rate rate at which samples will be produced by the audio engine.
  41:../temp_time_machine/DaisyExamples/DaisySP//DaisySP-LGPL/Source/Dynamics/compressor.h ****     */
  42:../temp_time_machine/DaisyExamples/DaisySP//DaisySP-LGPL/Source/Dynamics/compressor.h ****     void Init(float sample_rate);
  43:../temp_time_machine/DaisyExamples/DaisySP//DaisySP-LGPL/Source/Dynamics/compressor.h **** 
  44:../temp_time_machine/DaisyExamples/DaisySP//DaisySP-LGPL/Source/Dynamics/compressor.h ****     /** Compress the audio input signal, saves the calculated gain
  45:../temp_time_machine/DaisyExamples/DaisySP//DaisySP-LGPL/Source/Dynamics/compressor.h ****         \param in audio input signal
  46:../temp_time_machine/DaisyExamples/DaisySP//DaisySP-LGPL/Source/Dynamics/compressor.h ****     */
  47:../temp_time_machine/DaisyExamples/DaisySP//DaisySP-LGPL/Source/Dynamics/compressor.h ****     float Process(float in);
  48:../temp_time_machine/DaisyExamples/DaisySP//DaisySP-LGPL/Source/Dynamics/compressor.h **** 
  49:../temp_time_machine/DaisyExamples/DaisySP//DaisySP-LGPL/Source/Dynamics/compressor.h ****     /** Compresses the audio input signal, keyed by a secondary input.
  50:../temp_time_machine/DaisyExamples/DaisySP//DaisySP-LGPL/Source/Dynamics/compressor.h ****         \param in audio input signal (to be compressed)
  51:../temp_time_machine/DaisyExamples/DaisySP//DaisySP-LGPL/Source/Dynamics/compressor.h ****         \param key audio input that will be used to side-chain the compressor
  52:../temp_time_machine/DaisyExamples/DaisySP//DaisySP-LGPL/Source/Dynamics/compressor.h ****     */
  53:../temp_time_machine/DaisyExamples/DaisySP//DaisySP-LGPL/Source/Dynamics/compressor.h ****     float Process(float in, float key)
 1558              		.loc 12 53 11 view .LVU456
 1559              	.LBB828:
  54:../temp_time_machine/DaisyExamples/DaisySP//DaisySP-LGPL/Source/Dynamics/compressor.h ****     {
  55:../temp_time_machine/DaisyExamples/DaisySP//DaisySP-LGPL/Source/Dynamics/compressor.h ****         Process(key);
 1560              		.loc 12 55 9 view .LVU457
ARM GAS  /var/folders/v1/156fk8j97zv9pzndh61fy7zm0000gn/T//ccyHp6tG.s 			page 55


 1561              	.LBE828:
 1562              	.LBE827:
 225:legacy_engine.h **** 
 1563              		.loc 11 225 59 is_stmt 0 view .LVU458
 1564 01d4 15EE102A 		vmov	r2, s10	@ int
 1565              	.LVL71:
 225:legacy_engine.h **** 
 1566              		.loc 11 225 59 view .LVU459
 1567 01d8 D5F8F031 		ldr	r3, [r5, #496]
 1568              	.LBB839:
 1569              	.LBB835:
 1570              		.loc 12 55 16 view .LVU460
 1571 01dc 05F50C70 		add	r0, r5, #560
 1572              	.LVL72:
 1573              		.loc 12 55 16 view .LVU461
 1574              	.LBE835:
 1575              	.LBE839:
 225:legacy_engine.h **** 
 1576              		.loc 11 225 59 view .LVU462
 1577 01e0 03EB8203 		add	r3, r3, r2, lsl #2
 225:legacy_engine.h **** 
 1578              		.loc 11 225 29 view .LVU463
 1579 01e4 93ED000A 		vldr.32	s0, [r3]
 1580              	.LBB840:
 1581              	.LBB836:
 1582              		.loc 12 55 16 view .LVU464
 1583 01e8 39EE800A 		vadd.f32	s0, s19, s0
 1584 01ec FFF7FEFF 		bl	_ZN7daisysp10Compressor7ProcessEf
 1585              	.LVL73:
  56:../temp_time_machine/DaisyExamples/DaisySP//DaisySP-LGPL/Source/Dynamics/compressor.h ****         return Apply(in);
 1586              		.loc 12 56 9 is_stmt 1 view .LVU465
 1587              	.LBB829:
 1588              	.LBI829:
  57:../temp_time_machine/DaisyExamples/DaisySP//DaisySP-LGPL/Source/Dynamics/compressor.h ****     }
  58:../temp_time_machine/DaisyExamples/DaisySP//DaisySP-LGPL/Source/Dynamics/compressor.h **** 
  59:../temp_time_machine/DaisyExamples/DaisySP//DaisySP-LGPL/Source/Dynamics/compressor.h ****     /** Apply compression to the audio signal, based on the previously calculated gain
  60:../temp_time_machine/DaisyExamples/DaisySP//DaisySP-LGPL/Source/Dynamics/compressor.h ****         \param in audio input signal
  61:../temp_time_machine/DaisyExamples/DaisySP//DaisySP-LGPL/Source/Dynamics/compressor.h ****     */
  62:../temp_time_machine/DaisyExamples/DaisySP//DaisySP-LGPL/Source/Dynamics/compressor.h ****     float Apply(float in) { return gain_ * in; }
 1589              		.loc 12 62 11 view .LVU466
 1590              	.LBB830:
 1591              		.loc 12 62 29 view .LVU467
 1592              	.LBE830:
 1593              	.LBE829:
 1594              	.LBE836:
 1595              	.LBE840:
 1596              	.LBB841:
 1597              	.LBB842:
  64:legacy_engine.h ****     return lastVal;
 1598              		.loc 11 64 15 is_stmt 0 view .LVU468
 1599 01f0 95ED847A 		vldr.32	s14, [r5, #528]
  64:legacy_engine.h ****     return lastVal;
 1600              		.loc 11 64 28 view .LVU469
 1601 01f4 D5ED807A 		vldr.32	s15, [r5, #512]
  64:legacy_engine.h ****     return lastVal;
 1602              		.loc 11 64 23 view .LVU470
 1603 01f8 95ED856A 		vldr.32	s12, [r5, #532]
ARM GAS  /var/folders/v1/156fk8j97zv9pzndh61fy7zm0000gn/T//ccyHp6tG.s 			page 56


  64:legacy_engine.h ****     return lastVal;
 1604              		.loc 11 64 28 view .LVU471
 1605 01fc 77EEC77A 		vsub.f32	s15, s15, s14
 1606              	.LBE842:
 1607              	.LBE841:
 1608              	.LBB846:
 1609              	.LBB837:
 1610              	.LBB833:
 1611              	.LBB831:
 1612              		.loc 12 62 44 view .LVU472
 1613 0200 D5ED916A 		vldr.32	s13, [r5, #580]
 1614              	.LBE831:
 1615              	.LBE833:
 1616              	.LBE837:
 1617              	.LBE846:
 227:legacy_engine.h ****                    (out * feedbackSlew.Process(feedback) * ampCoef);
 1618              		.loc 11 227 27 view .LVU473
 1619 0204 D5F8F831 		ldr	r3, [r5, #504]
 1620              	.LBB847:
 1621              	.LBB838:
 1622              	.LBB834:
 1623              	.LBB832:
 1624              		.loc 12 62 44 view .LVU474
 1625 0208 69EEA69A 		vmul.f32	s19, s19, s13
 1626              	.LVL74:
 1627              		.loc 12 62 44 view .LVU475
 1628              	.LBE832:
 1629              	.LBE834:
 1630              	.LBE838:
 1631              	.LBE847:
 227:legacy_engine.h ****                    (out * feedbackSlew.Process(feedback) * ampCoef);
 1632              		.loc 11 227 5 is_stmt 1 view .LVU476
 227:legacy_engine.h ****                    (out * feedbackSlew.Process(feedback) * ampCoef);
 1633              		.loc 11 227 44 is_stmt 0 view .LVU477
 1634 020c D5F8F021 		ldr	r2, [r5, #496]
 1635              	.LBB848:
 1636              	.LBB843:
  64:legacy_engine.h ****     return lastVal;
 1637              		.loc 11 64 23 view .LVU478
 1638 0210 A7EE867A 		vfma.f32	s14, s15, s12
 1639              	.LBE843:
 1640              	.LBE848:
 1641              	.LBB849:
 1642              	.LBB850:
  79:legacy_engine.h ****       gainCoef = targetGainCoef;
 1643              		.loc 11 79 26 view .LVU479
 1644 0214 D5ED8A5A 		vldr.32	s11, [r5, #552]
 1645              	.LBE850:
 1646              	.LBE849:
 227:legacy_engine.h ****                    (out * feedbackSlew.Process(feedback) * ampCoef);
 1647              		.loc 11 227 44 view .LVU480
 1648 0218 02EB8302 		add	r2, r2, r3, lsl #2
 1649              	.LBB854:
 1650              	.LBB851:
  78:legacy_engine.h ****     if (targetGainCoef < gainCoef) {
 1651              		.loc 11 78 59 discriminator 1 view .LVU481
 1652 021c F7EE006A 		vmov.f32	s13, #1.0e+0
ARM GAS  /var/folders/v1/156fk8j97zv9pzndh61fy7zm0000gn/T//ccyHp6tG.s 			page 57


 1653              	.LBE851:
 1654              	.LBE854:
 227:legacy_engine.h ****                    (out * feedbackSlew.Process(feedback) * ampCoef);
 1655              		.loc 11 227 44 view .LVU482
 1656 0220 D2ED007A 		vldr.32	s15, [r2]
 1657              	.LVL75:
 1658              	.LBB855:
 1659              	.LBI841:
  63:legacy_engine.h ****     lastVal = lastVal + (x - lastVal) * coef;
 1660              		.loc 11 63 9 is_stmt 1 view .LVU483
 1661              	.LBB844:
  64:legacy_engine.h ****     return lastVal;
 1662              		.loc 11 64 5 view .LVU484
 1663              	.LBE844:
 1664              	.LBE855:
 228:legacy_engine.h ****     buffer[writeHeadPosition] = -feedbackLimiter.Process(fb_val);
 1665              		.loc 11 228 25 is_stmt 0 discriminator 1 view .LVU485
 1666 0224 27EE296A 		vmul.f32	s12, s14, s19
 1667              	.LBB856:
 1668              	.LBB845:
  64:legacy_engine.h ****     return lastVal;
 1669              		.loc 11 64 13 view .LVU486
 1670 0228 85ED847A 		vstr.32	s14, [r5, #528]
  65:legacy_engine.h ****   }
 1671              		.loc 11 65 5 is_stmt 1 view .LVU487
 1672              	.LVL76:
  65:legacy_engine.h ****   }
 1673              		.loc 11 65 5 is_stmt 0 view .LVU488
 1674              	.LBE845:
 1675              	.LBE856:
 228:legacy_engine.h ****     buffer[writeHeadPosition] = -feedbackLimiter.Process(fb_val);
 1676              		.loc 11 228 67 discriminator 1 view .LVU489
 1677 022c E6EE097A 		vfma.f32	s15, s12, s18
 1678              	.LVL77:
 229:legacy_engine.h **** 
 1679              		.loc 11 229 5 is_stmt 1 view .LVU490
 1680              	.LBB857:
 1681              	.LBI849:
  77:legacy_engine.h ****     float targetGainCoef = 1.0f / std::max(fabsf(in), 1.0f);
 1682              		.loc 11 77 9 view .LVU491
 1683              	.LBB852:
  78:legacy_engine.h ****     if (targetGainCoef < gainCoef) {
 1684              		.loc 11 78 5 view .LVU492
  78:legacy_engine.h ****     if (targetGainCoef < gainCoef) {
 1685              		.loc 11 78 49 is_stmt 0 view .LVU493
 1686 0230 B0EEE77A 		vabs.f32	s14, s15
  78:legacy_engine.h ****     if (targetGainCoef < gainCoef) {
 1687              		.loc 11 78 59 discriminator 1 view .LVU494
 1688 0234 B4EEE67A 		vcmpe.f32	s14, s13
 1689 0238 F1EE10FA 		vmrs	APSR_nzcv, FPSCR
 1690 023c 54BF     		ite	pl
 1691 023e B0EE476A 		vmovpl.f32	s12, s14
 1692 0242 B0EE666A 		vmovmi.f32	s12, s13
 1693 0246 86EE867A 		vdiv.f32	s14, s13, s12
 1694              	.LVL78:
  79:legacy_engine.h ****       gainCoef = targetGainCoef;
 1695              		.loc 11 79 5 is_stmt 1 view .LVU495
ARM GAS  /var/folders/v1/156fk8j97zv9pzndh61fy7zm0000gn/T//ccyHp6tG.s 			page 58


 1696 024a B4EEE57A 		vcmpe.f32	s14, s11
 1697 024e F1EE10FA 		vmrs	APSR_nzcv, FPSCR
 1698 0252 07D4     		bmi	.L38
  82:legacy_engine.h ****     }
 1699              		.loc 11 82 7 view .LVU496
  82:legacy_engine.h ****     }
 1700              		.loc 11 82 37 is_stmt 0 view .LVU497
 1701 0254 95ED8B6A 		vldr.32	s12, [r5, #556]
  82:legacy_engine.h ****     }
 1702              		.loc 11 82 35 view .LVU498
 1703 0258 76EEC66A 		vsub.f32	s13, s13, s12
  82:legacy_engine.h ****     }
 1704              		.loc 11 82 67 view .LVU499
 1705 025c 27EE067A 		vmul.f32	s14, s14, s12
 1706              	.LVL79:
  82:legacy_engine.h ****     }
 1707              		.loc 11 82 50 view .LVU500
 1708 0260 A5EEA67A 		vfma.f32	s14, s11, s13
 1709              	.L38:
 1710              	.LBE852:
 1711              	.LBE857:
 229:legacy_engine.h **** 
 1712              		.loc 11 229 33 discriminator 1 view .LVU501
 1713 0264 67EEC77A 		vnmul.f32	s15, s15, s14
 1714              	.LVL80:
 229:legacy_engine.h **** 
 1715              		.loc 11 229 33 discriminator 1 view .LVU502
 1716 0268 85ED8A7A 		vstr.32	s14, [r5, #552]
 1717              	.LBB858:
 1718              	.LBB853:
  84:legacy_engine.h ****   }
 1719              		.loc 11 84 5 is_stmt 1 view .LVU503
 1720              	.LVL81:
  84:legacy_engine.h ****   }
 1721              		.loc 11 84 5 is_stmt 0 view .LVU504
 1722              	.LBE853:
 1723              	.LBE858:
 1724              	.LBB859:
 1725              	.LBB860:
  78:legacy_engine.h ****     if (targetGainCoef < gainCoef) {
 1726              		.loc 11 78 59 discriminator 1 view .LVU505
 1727 026c B7EE007A 		vmov.f32	s14, #1.0e+0
 1728              	.LBE860:
 1729              	.LBE859:
 229:legacy_engine.h **** 
 1730              		.loc 11 229 31 discriminator 1 view .LVU506
 1731 0270 C2ED007A 		vstr.32	s15, [r2]
 231:legacy_engine.h ****         outputLimiter.Process(out + in * dryAmpSlew.Process(dryAmp));
 1732              		.loc 11 231 5 is_stmt 1 view .LVU507
 1733              	.LVL82:
 1734              	.LBB864:
 1735              	.LBI864:
  63:legacy_engine.h ****     lastVal = lastVal + (x - lastVal) * coef;
 1736              		.loc 11 63 9 view .LVU508
 1737              	.LBB865:
  64:legacy_engine.h ****     return lastVal;
 1738              		.loc 11 64 5 view .LVU509
ARM GAS  /var/folders/v1/156fk8j97zv9pzndh61fy7zm0000gn/T//ccyHp6tG.s 			page 59


  64:legacy_engine.h ****     return lastVal;
 1739              		.loc 11 64 15 is_stmt 0 view .LVU510
 1740 0274 D5ED827A 		vldr.32	s15, [r5, #520]
  64:legacy_engine.h ****     return lastVal;
 1741              		.loc 11 64 28 view .LVU511
 1742 0278 D5ED7F6A 		vldr.32	s13, [r5, #508]
  64:legacy_engine.h ****     return lastVal;
 1743              		.loc 11 64 23 view .LVU512
 1744 027c D5ED835A 		vldr.32	s11, [r5, #524]
  64:legacy_engine.h ****     return lastVal;
 1745              		.loc 11 64 28 view .LVU513
 1746 0280 76EEE76A 		vsub.f32	s13, s13, s15
 1747              	.LBE865:
 1748              	.LBE864:
 1749              	.LBB868:
 1750              	.LBB861:
  79:legacy_engine.h ****       gainCoef = targetGainCoef;
 1751              		.loc 11 79 26 view .LVU514
 1752 0284 95ED886A 		vldr.32	s12, [r5, #544]
 1753              	.LBE861:
 1754              	.LBE868:
 1755              	.LBB869:
 1756              	.LBB866:
  64:legacy_engine.h ****     return lastVal;
 1757              		.loc 11 64 23 view .LVU515
 1758 0288 E6EEA57A 		vfma.f32	s15, s13, s11
 1759              	.LBE866:
 1760              	.LBE869:
 232:legacy_engine.h **** 
 1761              		.loc 11 232 30 discriminator 1 view .LVU516
 1762 028c E8EEA79A 		vfma.f32	s19, s17, s15
 1763              	.LVL83:
 1764              	.LBB870:
 1765              	.LBB867:
  64:legacy_engine.h ****     return lastVal;
 1766              		.loc 11 64 13 view .LVU517
 1767 0290 C5ED827A 		vstr.32	s15, [r5, #520]
  65:legacy_engine.h ****   }
 1768              		.loc 11 65 5 is_stmt 1 view .LVU518
 1769              	.LVL84:
  65:legacy_engine.h ****   }
 1770              		.loc 11 65 5 is_stmt 0 view .LVU519
 1771              	.LBE867:
 1772              	.LBE870:
 1773              	.LBB871:
 1774              	.LBI859:
  77:legacy_engine.h ****     float targetGainCoef = 1.0f / std::max(fabsf(in), 1.0f);
 1775              		.loc 11 77 9 is_stmt 1 view .LVU520
 1776              	.LBB862:
  78:legacy_engine.h ****     if (targetGainCoef < gainCoef) {
 1777              		.loc 11 78 5 view .LVU521
  78:legacy_engine.h ****     if (targetGainCoef < gainCoef) {
 1778              		.loc 11 78 49 is_stmt 0 view .LVU522
 1779 0294 F0EEE97A 		vabs.f32	s15, s19
  78:legacy_engine.h ****     if (targetGainCoef < gainCoef) {
 1780              		.loc 11 78 59 discriminator 1 view .LVU523
 1781 0298 F4EEC77A 		vcmpe.f32	s15, s14
ARM GAS  /var/folders/v1/156fk8j97zv9pzndh61fy7zm0000gn/T//ccyHp6tG.s 			page 60


 1782 029c F1EE10FA 		vmrs	APSR_nzcv, FPSCR
 1783 02a0 48BF     		it	mi
 1784 02a2 F0EE477A 		vmovmi.f32	s15, s14
 1785 02a6 87EE270A 		vdiv.f32	s0, s14, s15
 1786              	.LVL85:
  79:legacy_engine.h ****       gainCoef = targetGainCoef;
 1787              		.loc 11 79 5 is_stmt 1 view .LVU524
 1788 02aa B4EEC60A 		vcmpe.f32	s0, s12
 1789 02ae F1EE10FA 		vmrs	APSR_nzcv, FPSCR
 1790 02b2 07D4     		bmi	.L39
  82:legacy_engine.h ****     }
 1791              		.loc 11 82 7 view .LVU525
  82:legacy_engine.h ****     }
 1792              		.loc 11 82 37 is_stmt 0 view .LVU526
 1793 02b4 D5ED897A 		vldr.32	s15, [r5, #548]
  82:legacy_engine.h ****     }
 1794              		.loc 11 82 35 view .LVU527
 1795 02b8 37EE677A 		vsub.f32	s14, s14, s15
  82:legacy_engine.h ****     }
 1796              		.loc 11 82 67 view .LVU528
 1797 02bc 20EE270A 		vmul.f32	s0, s0, s15
 1798              	.LVL86:
  82:legacy_engine.h ****     }
 1799              		.loc 11 82 50 view .LVU529
 1800 02c0 A6EE070A 		vfma.f32	s0, s12, s14
 1801              	.L39:
 1802              	.LBE862:
 1803              	.LBE871:
 234:legacy_engine.h ****     if (writeHeadPosition >= bufferSize)
 1804              		.loc 11 234 22 view .LVU530
 1805 02c4 0133     		adds	r3, r3, #1
 235:legacy_engine.h ****       writeHeadPosition = 0;
 1806              		.loc 11 235 5 view .LVU531
 1807 02c6 D5F8F421 		ldr	r2, [r5, #500]
 1808 02ca 85ED880A 		vstr.32	s0, [r5, #544]
 1809              	.LBB872:
 1810              	.LBB863:
  84:legacy_engine.h ****   }
 1811              		.loc 11 84 5 is_stmt 1 view .LVU532
 1812              	.LVL87:
  84:legacy_engine.h ****   }
 1813              		.loc 11 84 5 is_stmt 0 view .LVU533
 1814              	.LBE863:
 1815              	.LBE872:
 234:legacy_engine.h ****     if (writeHeadPosition >= bufferSize)
 1816              		.loc 11 234 5 is_stmt 1 view .LVU534
 235:legacy_engine.h ****       writeHeadPosition = 0;
 1817              		.loc 11 235 5 view .LVU535
 239:legacy_engine.h **** };
 1818              		.loc 11 239 3 is_stmt 0 view .LVU536
 1819 02ce 20EE290A 		vmul.f32	s0, s0, s19
 1820              	.LVL88:
 236:legacy_engine.h **** 
 1821              		.loc 11 236 25 view .LVU537
 1822 02d2 9342     		cmp	r3, r2
 1823 02d4 A8BF     		it	ge
 1824 02d6 0023     		movge	r3, #0
ARM GAS  /var/folders/v1/156fk8j97zv9pzndh61fy7zm0000gn/T//ccyHp6tG.s 			page 61


 1825 02d8 C5F8F831 		str	r3, [r5, #504]
 238:legacy_engine.h ****   }
 1826              		.loc 11 238 5 is_stmt 1 view .LVU538
 1827              	.LVL89:
 239:legacy_engine.h **** };
 1828              		.loc 11 239 3 is_stmt 0 view .LVU539
 1829 02dc BDEC048B 		vldm	sp!, {d8-d9}
 1830              		.cfi_remember_state
 1831              		.cfi_restore 82
 1832              		.cfi_restore 83
 1833              		.cfi_restore 80
 1834              		.cfi_restore 81
 1835              		.cfi_def_cfa_offset 16
 1836 02e0 70BD     		pop	{r4, r5, r6, pc}
 1837              	.LVL90:
 1838              	.L53:
 1839              		.cfi_restore_state
 1840              	.LBB873:
 1841              	.LBB826:
 1842              	.LBB822:
 1843              	.LBB818:
 128:legacy_engine.h ****       if (targetDelay >= 0.0f) {
 1844              		.loc 11 128 50 discriminator 2 view .LVU540
 1845 02e2 94ED0A7A 		vldr.32	s14, [r4, #40]
 128:legacy_engine.h ****       if (targetDelay >= 0.0f) {
 1846              		.loc 11 128 47 discriminator 2 view .LVU541
 1847 02e6 B5EEC07A 		vcmpe.f32	s14, #0
 1848 02ea F1EE10FA 		vmrs	APSR_nzcv, FPSCR
 1849 02ee 02DA     		bge	.L24
 1850              	.L52:
 128:legacy_engine.h ****       if (targetDelay >= 0.0f) {
 1851              		.loc 11 128 47 discriminator 2 view .LVU542
 1852 02f0 94ED0B7A 		vldr.32	s14, [r4, #44]
 1853 02f4 05E7     		b	.L21
 1854              	.L24:
 1855              	.LBB790:
 135:legacy_engine.h ****         ampB = targetAmp;
 1856              		.loc 11 135 9 is_stmt 1 view .LVU543
 135:legacy_engine.h ****         ampB = targetAmp;
 1857              		.loc 11 135 14 is_stmt 0 view .LVU544
 1858 02f6 626A     		ldr	r2, [r4, #36]	@ float
 137:legacy_engine.h ****       }
 1859              		.loc 11 137 19 view .LVU545
 1860 02f8 034B     		ldr	r3, .L54+4
 136:legacy_engine.h ****         targetAmp = -1.0f;
 1861              		.loc 11 136 14 view .LVU546
 1862 02fa 84ED097A 		vstr.32	s14, [r4, #36]
 135:legacy_engine.h ****         ampB = targetAmp;
 1863              		.loc 11 135 14 view .LVU547
 1864 02fe 2262     		str	r2, [r4, #32]	@ float
 136:legacy_engine.h ****         targetAmp = -1.0f;
 1865              		.loc 11 136 9 is_stmt 1 view .LVU548
 137:legacy_engine.h ****       }
 1866              		.loc 11 137 9 view .LVU549
 137:legacy_engine.h ****       }
 1867              		.loc 11 137 19 is_stmt 0 view .LVU550
 1868 0300 A362     		str	r3, [r4, #40]	@ float
ARM GAS  /var/folders/v1/156fk8j97zv9pzndh61fy7zm0000gn/T//ccyHp6tG.s 			page 62


 1869 0302 E0E6     		b	.L25
 1870              	.L55:
 1871              		.align	2
 1872              	.L54:
 1873 0304 00000000 		.word	0
 1874 0308 000080BF 		.word	-1082130432
 1875              	.LBE790:
 1876              	.LBE818:
 1877              	.LBE822:
 1878              	.LBE826:
 1879              	.LBE873:
 1880              		.cfi_endproc
 1881              	.LFE3746:
 1883              		.section	.text._ZN19OmniResonatorEngine12ProcessBlockEPKfS1_PfS2_jS1_fff,"axG",%progbits,_ZN19Omni
 1884              		.align	1
 1885              		.p2align 2,,3
 1886              		.weak	_ZN19OmniResonatorEngine12ProcessBlockEPKfS1_PfS2_jS1_fff
 1887              		.syntax unified
 1888              		.thumb
 1889              		.thumb_func
 1891              	_ZN19OmniResonatorEngine12ProcessBlockEPKfS1_PfS2_jS1_fff:
 1892              	.LVL91:
 1893              	.LFB3755:
  31:omni_resonator.h **** public:
  32:omni_resonator.h ****   void Init(float sample_rate) {
  33:omni_resonator.h ****     sr_ = sample_rate;
  34:omni_resonator.h ****     for (int i = 0; i < 8; i++) {
  35:omni_resonator.h ****       voices_l_[i].Init(sr_);
  36:omni_resonator.h ****       voices_r_[i].Init(sr_);
  37:omni_resonator.h ****     }
  38:omni_resonator.h ****     root_freq_ = 110.0f;
  39:omni_resonator.h ****   }
  40:omni_resonator.h **** 
  41:omni_resonator.h ****   void ProcessBlock(const float *in_l, const float *in_r, float *out_l,
 1894              		.loc 10 41 8 is_stmt 1 view -0
 1895              		.cfi_startproc
 1896              		@ args = 12, pretend = 0, frame = 24
 1897              		@ frame_needed = 0, uses_anonymous_args = 0
  42:omni_resonator.h ****                     float *out_r, size_t size, const float *harmonic_gains,
  43:omni_resonator.h ****                     float note_cv, float structure, float damping) {
  44:omni_resonator.h ****     float midi_note = 36.0f + (note_cv * 60.0f);
 1898              		.loc 10 44 5 view .LVU552
 1899              		.loc 10 44 11 is_stmt 0 view .LVU553
 1900 0000 DFED915A 		vldr.32	s11, .L77
  45:omni_resonator.h ****     midi_note = floorf(midi_note + 0.5f);
 1901              		.loc 10 45 23 view .LVU554
 1902 0004 B6EE006A 		vmov.f32	s12, #5.0e-1
  44:omni_resonator.h ****     midi_note = floorf(midi_note + 0.5f);
 1903              		.loc 10 44 11 view .LVU555
 1904 0008 DFED907A 		vldr.32	s15, .L77+4
 1905              	.LBB903:
 1906              	.LBB904:
 1907              		.file 15 "../temp_time_machine/DaisyExamples/DaisySP//Source/Utility/dsp.h"
   1:../temp_time_machine/DaisyExamples/DaisySP//Source/Utility/dsp.h **** /*
   2:../temp_time_machine/DaisyExamples/DaisySP//Source/Utility/dsp.h **** Copyright (c) 2020 Electrosmith, Corp, Emilie Gillet
   3:../temp_time_machine/DaisyExamples/DaisySP//Source/Utility/dsp.h **** 
   4:../temp_time_machine/DaisyExamples/DaisySP//Source/Utility/dsp.h **** Use of this source code is governed by an MIT-style
ARM GAS  /var/folders/v1/156fk8j97zv9pzndh61fy7zm0000gn/T//ccyHp6tG.s 			page 63


   5:../temp_time_machine/DaisyExamples/DaisySP//Source/Utility/dsp.h **** license that can be found in the LICENSE file or at
   6:../temp_time_machine/DaisyExamples/DaisySP//Source/Utility/dsp.h **** https://opensource.org/licenses/MIT.
   7:../temp_time_machine/DaisyExamples/DaisySP//Source/Utility/dsp.h **** */
   8:../temp_time_machine/DaisyExamples/DaisySP//Source/Utility/dsp.h **** 
   9:../temp_time_machine/DaisyExamples/DaisySP//Source/Utility/dsp.h **** /** Helpful defines, functions, and other utilities for use in/with daisysp modules.
  10:../temp_time_machine/DaisyExamples/DaisySP//Source/Utility/dsp.h **** */
  11:../temp_time_machine/DaisyExamples/DaisySP//Source/Utility/dsp.h **** #pragma once
  12:../temp_time_machine/DaisyExamples/DaisySP//Source/Utility/dsp.h **** #ifndef DSY_CORE_DSP
  13:../temp_time_machine/DaisyExamples/DaisySP//Source/Utility/dsp.h **** #define DSY_CORE_DSP
  14:../temp_time_machine/DaisyExamples/DaisySP//Source/Utility/dsp.h **** #include <cassert>
  15:../temp_time_machine/DaisyExamples/DaisySP//Source/Utility/dsp.h **** #include <cstdint>
  16:../temp_time_machine/DaisyExamples/DaisySP//Source/Utility/dsp.h **** #include <random>
  17:../temp_time_machine/DaisyExamples/DaisySP//Source/Utility/dsp.h **** #include <cmath>
  18:../temp_time_machine/DaisyExamples/DaisySP//Source/Utility/dsp.h **** 
  19:../temp_time_machine/DaisyExamples/DaisySP//Source/Utility/dsp.h **** /** PIs
  20:../temp_time_machine/DaisyExamples/DaisySP//Source/Utility/dsp.h **** */
  21:../temp_time_machine/DaisyExamples/DaisySP//Source/Utility/dsp.h **** #define PI_F 3.1415927410125732421875f
  22:../temp_time_machine/DaisyExamples/DaisySP//Source/Utility/dsp.h **** #define TWOPI_F (2.0f * PI_F)
  23:../temp_time_machine/DaisyExamples/DaisySP//Source/Utility/dsp.h **** #define HALFPI_F (PI_F * 0.5f)
  24:../temp_time_machine/DaisyExamples/DaisySP//Source/Utility/dsp.h **** #define DSY_MIN(in, mn) (in < mn ? in : mn)
  25:../temp_time_machine/DaisyExamples/DaisySP//Source/Utility/dsp.h **** #define DSY_MAX(in, mx) (in > mx ? in : mx)
  26:../temp_time_machine/DaisyExamples/DaisySP//Source/Utility/dsp.h **** #define DSY_CLAMP(in, mn, mx) (DSY_MIN(DSY_MAX(in, mn), mx))
  27:../temp_time_machine/DaisyExamples/DaisySP//Source/Utility/dsp.h **** #define DSY_COUNTOF(_arr) (sizeof(_arr) / sizeof(_arr[0]))
  28:../temp_time_machine/DaisyExamples/DaisySP//Source/Utility/dsp.h **** 
  29:../temp_time_machine/DaisyExamples/DaisySP//Source/Utility/dsp.h **** namespace daisysp
  30:../temp_time_machine/DaisyExamples/DaisySP//Source/Utility/dsp.h **** {
  31:../temp_time_machine/DaisyExamples/DaisySP//Source/Utility/dsp.h **** //Avoids division for random floats. e.g. rand() * kRandFrac
  32:../temp_time_machine/DaisyExamples/DaisySP//Source/Utility/dsp.h **** static constexpr float kRandFrac = 1.f / (float)RAND_MAX;
  33:../temp_time_machine/DaisyExamples/DaisySP//Source/Utility/dsp.h **** 
  34:../temp_time_machine/DaisyExamples/DaisySP//Source/Utility/dsp.h **** //Convert from semitones to other units. e.g. 2 ^ (kOneTwelfth * x)
  35:../temp_time_machine/DaisyExamples/DaisySP//Source/Utility/dsp.h **** static constexpr float kOneTwelfth = 1.f / 12.f;
  36:../temp_time_machine/DaisyExamples/DaisySP//Source/Utility/dsp.h **** 
  37:../temp_time_machine/DaisyExamples/DaisySP//Source/Utility/dsp.h **** /** efficient floating point min/max
  38:../temp_time_machine/DaisyExamples/DaisySP//Source/Utility/dsp.h **** c/o stephen mccaul
  39:../temp_time_machine/DaisyExamples/DaisySP//Source/Utility/dsp.h **** */
  40:../temp_time_machine/DaisyExamples/DaisySP//Source/Utility/dsp.h **** inline float fmax(float a, float b)
  41:../temp_time_machine/DaisyExamples/DaisySP//Source/Utility/dsp.h **** {
  42:../temp_time_machine/DaisyExamples/DaisySP//Source/Utility/dsp.h ****     float r;
  43:../temp_time_machine/DaisyExamples/DaisySP//Source/Utility/dsp.h **** #ifdef __arm__
  44:../temp_time_machine/DaisyExamples/DaisySP//Source/Utility/dsp.h ****     asm("vmaxnm.f32 %[d], %[n], %[m]" : [d] "=t"(r) : [n] "t"(a), [m] "t"(b) :);
  45:../temp_time_machine/DaisyExamples/DaisySP//Source/Utility/dsp.h **** #else
  46:../temp_time_machine/DaisyExamples/DaisySP//Source/Utility/dsp.h ****     r = (a > b) ? a : b;
  47:../temp_time_machine/DaisyExamples/DaisySP//Source/Utility/dsp.h **** #endif // __arm__
  48:../temp_time_machine/DaisyExamples/DaisySP//Source/Utility/dsp.h ****     return r;
  49:../temp_time_machine/DaisyExamples/DaisySP//Source/Utility/dsp.h **** }
  50:../temp_time_machine/DaisyExamples/DaisySP//Source/Utility/dsp.h **** 
  51:../temp_time_machine/DaisyExamples/DaisySP//Source/Utility/dsp.h **** inline float fmin(float a, float b)
  52:../temp_time_machine/DaisyExamples/DaisySP//Source/Utility/dsp.h **** {
  53:../temp_time_machine/DaisyExamples/DaisySP//Source/Utility/dsp.h ****     float r;
  54:../temp_time_machine/DaisyExamples/DaisySP//Source/Utility/dsp.h **** #ifdef __arm__
  55:../temp_time_machine/DaisyExamples/DaisySP//Source/Utility/dsp.h ****     asm("vminnm.f32 %[d], %[n], %[m]" : [d] "=t"(r) : [n] "t"(a), [m] "t"(b) :);
  56:../temp_time_machine/DaisyExamples/DaisySP//Source/Utility/dsp.h **** #else
  57:../temp_time_machine/DaisyExamples/DaisySP//Source/Utility/dsp.h ****     r = (a < b) ? a : b;
  58:../temp_time_machine/DaisyExamples/DaisySP//Source/Utility/dsp.h **** #endif // __arm__
  59:../temp_time_machine/DaisyExamples/DaisySP//Source/Utility/dsp.h ****     return r;
  60:../temp_time_machine/DaisyExamples/DaisySP//Source/Utility/dsp.h **** }
  61:../temp_time_machine/DaisyExamples/DaisySP//Source/Utility/dsp.h **** 
ARM GAS  /var/folders/v1/156fk8j97zv9pzndh61fy7zm0000gn/T//ccyHp6tG.s 			page 64


  62:../temp_time_machine/DaisyExamples/DaisySP//Source/Utility/dsp.h **** /** quick fp clamp
  63:../temp_time_machine/DaisyExamples/DaisySP//Source/Utility/dsp.h **** */
  64:../temp_time_machine/DaisyExamples/DaisySP//Source/Utility/dsp.h **** inline float fclamp(float in, float min, float max)
  65:../temp_time_machine/DaisyExamples/DaisySP//Source/Utility/dsp.h **** {
  66:../temp_time_machine/DaisyExamples/DaisySP//Source/Utility/dsp.h ****     return fmin(fmax(in, min), max);
  67:../temp_time_machine/DaisyExamples/DaisySP//Source/Utility/dsp.h **** }
  68:../temp_time_machine/DaisyExamples/DaisySP//Source/Utility/dsp.h **** 
  69:../temp_time_machine/DaisyExamples/DaisySP//Source/Utility/dsp.h **** /** From Musicdsp.org "Fast power and root estimates for 32bit floats)
  70:../temp_time_machine/DaisyExamples/DaisySP//Source/Utility/dsp.h **** Original code by Stefan Stenzel
  71:../temp_time_machine/DaisyExamples/DaisySP//Source/Utility/dsp.h **** These are approximations
  72:../temp_time_machine/DaisyExamples/DaisySP//Source/Utility/dsp.h **** */
  73:../temp_time_machine/DaisyExamples/DaisySP//Source/Utility/dsp.h **** inline float fastpower(float f, int n)
  74:../temp_time_machine/DaisyExamples/DaisySP//Source/Utility/dsp.h **** {
  75:../temp_time_machine/DaisyExamples/DaisySP//Source/Utility/dsp.h ****     long *lp, l;
  76:../temp_time_machine/DaisyExamples/DaisySP//Source/Utility/dsp.h ****     lp = (long *)(&f);
  77:../temp_time_machine/DaisyExamples/DaisySP//Source/Utility/dsp.h ****     l  = *lp;
  78:../temp_time_machine/DaisyExamples/DaisySP//Source/Utility/dsp.h ****     l -= 0x3F800000;
  79:../temp_time_machine/DaisyExamples/DaisySP//Source/Utility/dsp.h ****     l <<= (n - 1);
  80:../temp_time_machine/DaisyExamples/DaisySP//Source/Utility/dsp.h ****     l += 0x3F800000;
  81:../temp_time_machine/DaisyExamples/DaisySP//Source/Utility/dsp.h ****     *lp = l;
  82:../temp_time_machine/DaisyExamples/DaisySP//Source/Utility/dsp.h ****     return f;
  83:../temp_time_machine/DaisyExamples/DaisySP//Source/Utility/dsp.h **** }
  84:../temp_time_machine/DaisyExamples/DaisySP//Source/Utility/dsp.h **** 
  85:../temp_time_machine/DaisyExamples/DaisySP//Source/Utility/dsp.h **** inline float fastroot(float f, int n)
  86:../temp_time_machine/DaisyExamples/DaisySP//Source/Utility/dsp.h **** {
  87:../temp_time_machine/DaisyExamples/DaisySP//Source/Utility/dsp.h ****     long *lp, l;
  88:../temp_time_machine/DaisyExamples/DaisySP//Source/Utility/dsp.h ****     lp = (long *)(&f);
  89:../temp_time_machine/DaisyExamples/DaisySP//Source/Utility/dsp.h ****     l  = *lp;
  90:../temp_time_machine/DaisyExamples/DaisySP//Source/Utility/dsp.h ****     l -= 0x3F800000;
  91:../temp_time_machine/DaisyExamples/DaisySP//Source/Utility/dsp.h ****     l >>= (n - 1);
  92:../temp_time_machine/DaisyExamples/DaisySP//Source/Utility/dsp.h ****     l += 0x3F800000;
  93:../temp_time_machine/DaisyExamples/DaisySP//Source/Utility/dsp.h ****     *lp = l;
  94:../temp_time_machine/DaisyExamples/DaisySP//Source/Utility/dsp.h ****     return f;
  95:../temp_time_machine/DaisyExamples/DaisySP//Source/Utility/dsp.h **** }
  96:../temp_time_machine/DaisyExamples/DaisySP//Source/Utility/dsp.h **** 
  97:../temp_time_machine/DaisyExamples/DaisySP//Source/Utility/dsp.h **** /** Significantly more efficient than fmodf(x, 1.0f) for calculating
  98:../temp_time_machine/DaisyExamples/DaisySP//Source/Utility/dsp.h ****  *  the decimal part of a floating point value.
  99:../temp_time_machine/DaisyExamples/DaisySP//Source/Utility/dsp.h ****  */
 100:../temp_time_machine/DaisyExamples/DaisySP//Source/Utility/dsp.h **** inline float fastmod1f(float x)
 101:../temp_time_machine/DaisyExamples/DaisySP//Source/Utility/dsp.h **** {
 102:../temp_time_machine/DaisyExamples/DaisySP//Source/Utility/dsp.h ****     return x - static_cast<int>(x);
 103:../temp_time_machine/DaisyExamples/DaisySP//Source/Utility/dsp.h **** }
 104:../temp_time_machine/DaisyExamples/DaisySP//Source/Utility/dsp.h **** 
 105:../temp_time_machine/DaisyExamples/DaisySP//Source/Utility/dsp.h **** /** From http://openaudio.blogspot.com/2017/02/faster-log10-and-pow.html
 106:../temp_time_machine/DaisyExamples/DaisySP//Source/Utility/dsp.h **** No approximation, pow10f(x) gives a 90% speed increase over powf(10.f, x)
 107:../temp_time_machine/DaisyExamples/DaisySP//Source/Utility/dsp.h **** */
 108:../temp_time_machine/DaisyExamples/DaisySP//Source/Utility/dsp.h **** inline float pow10f(float f)
 109:../temp_time_machine/DaisyExamples/DaisySP//Source/Utility/dsp.h **** {
 110:../temp_time_machine/DaisyExamples/DaisySP//Source/Utility/dsp.h ****     return expf(2.302585092994046f * f);
 111:../temp_time_machine/DaisyExamples/DaisySP//Source/Utility/dsp.h **** }
 112:../temp_time_machine/DaisyExamples/DaisySP//Source/Utility/dsp.h **** 
 113:../temp_time_machine/DaisyExamples/DaisySP//Source/Utility/dsp.h **** /* Original code for fastlog2f by Dr. Paul Beckmann from the ARM community forum, adapted from the 
 114:../temp_time_machine/DaisyExamples/DaisySP//Source/Utility/dsp.h **** About 25% performance increase over std::log10f
 115:../temp_time_machine/DaisyExamples/DaisySP//Source/Utility/dsp.h **** */
 116:../temp_time_machine/DaisyExamples/DaisySP//Source/Utility/dsp.h **** inline float fastlog2f(float f)
 117:../temp_time_machine/DaisyExamples/DaisySP//Source/Utility/dsp.h **** {
 118:../temp_time_machine/DaisyExamples/DaisySP//Source/Utility/dsp.h ****     float frac;
ARM GAS  /var/folders/v1/156fk8j97zv9pzndh61fy7zm0000gn/T//ccyHp6tG.s 			page 65


 119:../temp_time_machine/DaisyExamples/DaisySP//Source/Utility/dsp.h ****     int   exp;
 120:../temp_time_machine/DaisyExamples/DaisySP//Source/Utility/dsp.h ****     frac = frexpf(fabsf(f), &exp);
 121:../temp_time_machine/DaisyExamples/DaisySP//Source/Utility/dsp.h ****     f    = 1.23149591368684f;
 122:../temp_time_machine/DaisyExamples/DaisySP//Source/Utility/dsp.h ****     f *= frac;
 123:../temp_time_machine/DaisyExamples/DaisySP//Source/Utility/dsp.h ****     f += -4.11852516267426f;
 124:../temp_time_machine/DaisyExamples/DaisySP//Source/Utility/dsp.h ****     f *= frac;
 125:../temp_time_machine/DaisyExamples/DaisySP//Source/Utility/dsp.h ****     f += 6.02197014179219f;
 126:../temp_time_machine/DaisyExamples/DaisySP//Source/Utility/dsp.h ****     f *= frac;
 127:../temp_time_machine/DaisyExamples/DaisySP//Source/Utility/dsp.h ****     f += -3.13396450166353f;
 128:../temp_time_machine/DaisyExamples/DaisySP//Source/Utility/dsp.h ****     f += exp;
 129:../temp_time_machine/DaisyExamples/DaisySP//Source/Utility/dsp.h ****     return (f);
 130:../temp_time_machine/DaisyExamples/DaisySP//Source/Utility/dsp.h **** }
 131:../temp_time_machine/DaisyExamples/DaisySP//Source/Utility/dsp.h **** 
 132:../temp_time_machine/DaisyExamples/DaisySP//Source/Utility/dsp.h **** inline float fastlog10f(float f)
 133:../temp_time_machine/DaisyExamples/DaisySP//Source/Utility/dsp.h **** {
 134:../temp_time_machine/DaisyExamples/DaisySP//Source/Utility/dsp.h ****     return fastlog2f(f) * 0.3010299956639812f;
 135:../temp_time_machine/DaisyExamples/DaisySP//Source/Utility/dsp.h **** }
 136:../temp_time_machine/DaisyExamples/DaisySP//Source/Utility/dsp.h **** 
 137:../temp_time_machine/DaisyExamples/DaisySP//Source/Utility/dsp.h **** /** Midi to frequency helper
 138:../temp_time_machine/DaisyExamples/DaisySP//Source/Utility/dsp.h **** */
 139:../temp_time_machine/DaisyExamples/DaisySP//Source/Utility/dsp.h **** inline float mtof(float m)
 140:../temp_time_machine/DaisyExamples/DaisySP//Source/Utility/dsp.h **** {
 141:../temp_time_machine/DaisyExamples/DaisySP//Source/Utility/dsp.h ****     return powf(2, (m - 69.0f) / 12.0f) * 440.0f;
 1908              		.loc 15 141 16 view .LVU556
 1909 000c B2EE087A 		vmov.f32	s14, #1.2e+1
 1910              		.loc 15 141 23 view .LVU557
 1911 0010 DFED8F6A 		vldr.32	s13, .L77+8
 1912              	.LBE904:
 1913              	.LBE903:
  44:omni_resonator.h ****     midi_note = floorf(midi_note + 0.5f);
 1914              		.loc 10 44 11 view .LVU558
 1915 0014 E0EE257A 		vfma.f32	s15, s0, s11
 1916              	.LVL92:
 1917              		.loc 10 45 5 is_stmt 1 view .LVU559
 1918              	.LBB910:
 1919              	.LBB905:
 1920              		.loc 15 141 16 is_stmt 0 view .LVU560
 1921 0018 B0EE000A 		vmov.f32	s0, #2.0e+0
 1922              	.LVL93:
 1923              		.loc 15 141 16 view .LVU561
 1924              	.LBE905:
 1925              	.LBE910:
  41:omni_resonator.h ****                     float *out_r, size_t size, const float *harmonic_gains,
 1926              		.loc 10 41 8 view .LVU562
 1927 001c 2DE9F04F 		push	{r4, r5, r6, r7, r8, r9, r10, fp, lr}
 1928              		.cfi_def_cfa_offset 36
 1929              		.cfi_offset 4, -36
 1930              		.cfi_offset 5, -32
 1931              		.cfi_offset 6, -28
 1932              		.cfi_offset 7, -24
 1933              		.cfi_offset 8, -20
 1934              		.cfi_offset 9, -16
 1935              		.cfi_offset 10, -12
 1936              		.cfi_offset 11, -8
 1937              		.cfi_offset 14, -4
 1938 0020 2DED068B 		vpush.64	{d8, d9, d10}
 1939              		.cfi_def_cfa_offset 60
ARM GAS  /var/folders/v1/156fk8j97zv9pzndh61fy7zm0000gn/T//ccyHp6tG.s 			page 66


 1940              		.cfi_offset 80, -60
 1941              		.cfi_offset 81, -56
 1942              		.cfi_offset 82, -52
 1943              		.cfi_offset 83, -48
 1944              		.cfi_offset 84, -44
 1945              		.cfi_offset 85, -40
 1946              		.loc 10 45 23 view .LVU563
 1947 0024 77EE867A 		vadd.f32	s15, s15, s12
 1948              	.LVL94:
  41:omni_resonator.h ****                     float *out_r, size_t size, const float *harmonic_gains,
 1949              		.loc 10 41 8 view .LVU564
 1950 0028 87B0     		sub	sp, sp, #28
 1951              		.cfi_def_cfa_offset 88
  41:omni_resonator.h ****                     float *out_r, size_t size, const float *harmonic_gains,
 1952              		.loc 10 41 8 view .LVU565
 1953 002a B0EE609A 		vmov.f32	s18, s1
 1954 002e 8246     		mov	r10, r0
 1955 0030 1E46     		mov	r6, r3
 1956 0032 F0EE418A 		vmov.f32	s17, s2
 1957              		.loc 10 45 23 view .LVU566
 1958 0036 FBFE677A 		vrintm.f32	s15, s15
 1959              	.LVL95:
  46:omni_resonator.h ****     root_freq_ = mtof(midi_note);
 1960              		.loc 10 46 5 is_stmt 1 view .LVU567
 1961              	.LBB911:
 1962              	.LBI903:
 139:../temp_time_machine/DaisyExamples/DaisySP//Source/Utility/dsp.h **** {
 1963              		.loc 15 139 14 view .LVU568
 1964              	.LBB906:
 1965              		.loc 15 141 5 view .LVU569
 1966              		.loc 15 141 23 is_stmt 0 view .LVU570
 1967 003a 77EEE60A 		vsub.f32	s1, s15, s13
 1968              	.LVL96:
 1969              		.loc 15 141 23 view .LVU571
 1970              	.LBE906:
 1971              	.LBE911:
  41:omni_resonator.h ****                     float *out_r, size_t size, const float *harmonic_gains,
 1972              		.loc 10 41 8 view .LVU572
 1973 003e 0F46     		mov	r7, r1
 1974 0040 1546     		mov	r5, r2
 1975              		.loc 10 46 16 discriminator 1 view .LVU573
 1976 0042 0AF28458 		addw	r8, r10, #1412
 1977              	.LBB912:
 1978              	.LBB913:
  47:omni_resonator.h ****     UpdateRatios(structure);
  48:omni_resonator.h **** 
  49:omni_resonator.h ****     float t_damp = damping * damping;
  50:omni_resonator.h ****     float res_val = 0.80f + (t_damp * 0.1995f);
  51:omni_resonator.h **** 
  52:omni_resonator.h ****     for (size_t i = 0; i < size; i++) {
  53:omni_resonator.h ****       float input = (in_l[i] + in_r[i]) * 0.5f;
  54:omni_resonator.h ****       static float prev = 0.0f;
  55:omni_resonator.h ****       float exciter = input - prev;
  56:omni_resonator.h ****       prev = input;
  57:omni_resonator.h ****       exciter = exciter * 4.0f; // Boost
  58:omni_resonator.h **** 
  59:omni_resonator.h ****       float sum_l = 0.0f, sum_r = 0.0f;
ARM GAS  /var/folders/v1/156fk8j97zv9pzndh61fy7zm0000gn/T//ccyHp6tG.s 			page 67


  60:omni_resonator.h **** 
  61:omni_resonator.h ****       for (int k = 0; k < 8; k++) {
  62:omni_resonator.h ****         float f = root_freq_ * ratios_[k];
  63:omni_resonator.h ****         if (f > 16000.0f)
  64:omni_resonator.h ****           f = 16000.0f;
  65:omni_resonator.h ****         float detune = 1.0f + (0.01f * (k % 2 == 0 ? 1 : -1));
  66:omni_resonator.h **** 
  67:omni_resonator.h ****         voices_l_[k].SetFreq(f);
  68:omni_resonator.h ****         voices_r_[k].SetFreq(f * detune);
  69:omni_resonator.h ****         voices_l_[k].SetRes(res_val);
  70:omni_resonator.h ****         voices_r_[k].SetRes(res_val);
  71:omni_resonator.h **** 
  72:omni_resonator.h ****         sum_l += voices_l_[k].Process(exciter * harmonic_gains[k]);
  73:omni_resonator.h ****         sum_r += voices_r_[k].Process(exciter * harmonic_gains[k]);
  74:omni_resonator.h ****       }
  75:omni_resonator.h ****       out_l[i] = sum_l * 0.8f;
  76:omni_resonator.h ****       out_r[i] = sum_r * 0.8f;
  77:omni_resonator.h ****     }
  78:omni_resonator.h ****   }
  79:omni_resonator.h **** 
  80:omni_resonator.h **** private:
  81:omni_resonator.h ****   float sr_;
  82:omni_resonator.h ****   OmniResonatorVoice voices_l_[8];
  83:omni_resonator.h ****   OmniResonatorVoice voices_r_[8];
  84:omni_resonator.h ****   float root_freq_;
  85:omni_resonator.h ****   float ratios_[8];
  86:omni_resonator.h **** 
  87:omni_resonator.h ****   void UpdateRatios(float structure) {
  88:omni_resonator.h ****     for (int i = 0; i < 8; i++) {
 1979              		.loc 10 88 14 view .LVU574
 1980 0046 0024     		movs	r4, #0
 1981              	.LBE913:
 1982              	.LBE912:
 1983              	.LBB933:
 1984              	.LBB907:
 1985              		.loc 15 141 16 view .LVU575
 1986 0048 C0EE870A 		vdiv.f32	s1, s1, s14
 1987 004c FFF7FEFF 		bl	powf
 1988              	.LVL97:
 1989              		.loc 15 141 43 discriminator 1 view .LVU576
 1990 0050 9FED807A 		vldr.32	s14, .L77+12
 1991 0054 0AF5B163 		add	r3, r10, #1416
 1992              	.LBE907:
 1993              	.LBE933:
  46:omni_resonator.h ****     UpdateRatios(structure);
 1994              		.loc 10 46 16 discriminator 1 view .LVU577
 1995 0058 9946     		mov	r9, r3
 1996 005a 0493     		str	r3, [sp, #16]
 1997              	.LBB934:
 1998              	.LBB908:
 1999              		.loc 15 141 16 view .LVU578
 2000 005c B0EE408A 		vmov.f32	s16, s0
 2001              	.LBE908:
 2002              	.LBE934:
  46:omni_resonator.h ****     UpdateRatios(structure);
 2003              		.loc 10 46 16 discriminator 1 view .LVU579
 2004 0060 9FED7D0A 		vldr.32	s0, .L77+16
ARM GAS  /var/folders/v1/156fk8j97zv9pzndh61fy7zm0000gn/T//ccyHp6tG.s 			page 68


 2005              	.LBB935:
 2006              	.LBB909:
 2007              		.loc 15 141 43 discriminator 1 view .LVU580
 2008 0064 28EE078A 		vmul.f32	s16, s16, s14
 2009              	.LVL98:
 2010              		.loc 15 141 43 discriminator 1 view .LVU581
 2011              	.LBE909:
 2012              	.LBE935:
  46:omni_resonator.h ****     UpdateRatios(structure);
 2013              		.loc 10 46 16 discriminator 1 view .LVU582
 2014 0068 88ED008A 		vstr.32	s16, [r8]
  47:omni_resonator.h ****     UpdateRatios(structure);
 2015              		.loc 10 47 5 is_stmt 1 view .LVU583
 2016              	.LVL99:
 2017              	.LBB936:
 2018              	.LBI912:
  87:omni_resonator.h ****     for (int i = 0; i < 8; i++) {
 2019              		.loc 10 87 8 view .LVU584
 2020              		.loc 10 88 5 view .LVU585
 2021              	.LBB932:
 2022              		.loc 10 88 23 discriminator 1 view .LVU586
 2023 006c 11E0     		b	.L61
 2024              	.LVL100:
 2025              	.L74:
 2026              	.LBB914:
 2027              	.LBB915:
 2028              	.LBB916:
  89:omni_resonator.h ****       float h = (float)(i + 1);
  90:omni_resonator.h ****       float odd = 1.0f + (i * 2.0f);
  91:omni_resonator.h ****       float inharm = 1.0f + (i * 1.5f) + (sinf(i * 34.0f) * 0.5f);
  92:omni_resonator.h **** 
  93:omni_resonator.h ****       if (structure < 0.5f) {
  94:omni_resonator.h ****         float t = structure * 2.0f;
 2029              		.loc 10 94 15 is_stmt 0 view .LVU587
 2030 006e 79EE097A 		vadd.f32	s15, s18, s18
 2031              	.LVL101:
  95:omni_resonator.h ****         ratios_[i] = (h * (1.0f - t)) + (odd * t);
 2032              		.loc 10 95 9 is_stmt 1 view .LVU588
 2033              	.LBE916:
 2034              	.LBE915:
 2035              	.LBE914:
  88:omni_resonator.h ****       float h = (float)(i + 1);
 2036              		.loc 10 88 23 is_stmt 0 discriminator 1 view .LVU589
 2037 0072 082C     		cmp	r4, #8
 2038              	.LBB929:
  91:omni_resonator.h **** 
 2039              		.loc 10 91 47 view .LVU590
 2040 0074 9FED790A 		vldr.32	s0, .L77+20
 2041              	.LVL102:
 2042              	.LBB922:
 2043              	.LBB917:
 2044              		.loc 10 95 33 view .LVU591
 2045 0078 37EE677A 		vsub.f32	s14, s14, s15
 2046              		.loc 10 95 46 view .LVU592
 2047 007c 65EE277A 		vmul.f32	s15, s10, s15
 2048              	.LVL103:
 2049              		.loc 10 95 39 view .LVU593
ARM GAS  /var/folders/v1/156fk8j97zv9pzndh61fy7zm0000gn/T//ccyHp6tG.s 			page 69


 2050 0080 E5EE877A 		vfma.f32	s15, s11, s14
 2051 0084 E9EC017A 		vstmia.32	r9!, {s15}
 2052              	.LVL104:
 2053              		.loc 10 95 39 view .LVU594
 2054              	.LBE917:
 2055              	.LBE922:
 2056              	.LBE929:
  88:omni_resonator.h ****       float h = (float)(i + 1);
 2057              		.loc 10 88 23 is_stmt 1 discriminator 1 view .LVU595
 2058 0088 33D0     		beq	.L60
 2059              	.LVL105:
 2060              	.L75:
 2061              	.LBB930:
  91:omni_resonator.h **** 
 2062              		.loc 10 91 47 is_stmt 0 view .LVU596
 2063 008a 25EE800A 		vmul.f32	s0, s11, s0
 2064 008e FFF7FEFF 		bl	sinf
 2065              	.LVL106:
 2066              	.L61:
  89:omni_resonator.h ****       float odd = 1.0f + (i * 2.0f);
 2067              		.loc 10 89 7 is_stmt 1 view .LVU597
 2068              	.LBB923:
 2069              	.LBB918:
  94:omni_resonator.h ****         ratios_[i] = (h * (1.0f - t)) + (odd * t);
 2070              		.loc 10 94 9 view .LVU598
 2071              	.LBE918:
 2072              	.LBB919:
  96:omni_resonator.h ****       } else {
  97:omni_resonator.h ****         float t = (structure - 0.5f) * 2.0f;
 2073              		.loc 10 97 9 view .LVU599
 2074              	.LBE919:
  93:omni_resonator.h ****         float t = structure * 2.0f;
 2075              		.loc 10 93 7 is_stmt 0 view .LVU600
 2076 0092 F6EE006A 		vmov.f32	s13, #5.0e-1
 2077              	.LVL107:
  93:omni_resonator.h ****         float t = structure * 2.0f;
 2078              		.loc 10 93 7 view .LVU601
 2079              	.LBE923:
  90:omni_resonator.h ****       float inharm = 1.0f + (i * 1.5f) + (sinf(i * 34.0f) * 0.5f);
 2080              		.loc 10 90 29 view .LVU602
 2081 0096 07EE904A 		vmov	s15, r4	@ int
  90:omni_resonator.h ****       float inharm = 1.0f + (i * 1.5f) + (sinf(i * 34.0f) * 0.5f);
 2082              		.loc 10 90 13 view .LVU603
 2083 009a B7EE007A 		vmov.f32	s14, #1.0e+0
  89:omni_resonator.h ****       float odd = 1.0f + (i * 2.0f);
 2084              		.loc 10 89 27 view .LVU604
 2085 009e 0134     		adds	r4, r4, #1
 2086              	.LVL108:
  90:omni_resonator.h ****       float inharm = 1.0f + (i * 1.5f) + (sinf(i * 34.0f) * 0.5f);
 2087              		.loc 10 90 29 view .LVU605
 2088 00a0 B8EEE76A 		vcvt.f32.s32	s12, s15
 2089              	.LBB924:
  93:omni_resonator.h ****         float t = structure * 2.0f;
 2090              		.loc 10 93 7 view .LVU606
 2091 00a4 B4EEE69A 		vcmpe.f32	s18, s13
 2092              	.LBE924:
  89:omni_resonator.h ****       float odd = 1.0f + (i * 2.0f);
ARM GAS  /var/folders/v1/156fk8j97zv9pzndh61fy7zm0000gn/T//ccyHp6tG.s 			page 70


 2093              		.loc 10 89 13 view .LVU607
 2094 00a8 05EE904A 		vmov	s11, r4	@ int
  90:omni_resonator.h ****       float inharm = 1.0f + (i * 1.5f) + (sinf(i * 34.0f) * 0.5f);
 2095              		.loc 10 90 13 view .LVU608
 2096 00ac F0EE007A 		vmov.f32	s15, #2.0e+0
 2097              	.LVL109:
  90:omni_resonator.h ****       float inharm = 1.0f + (i * 1.5f) + (sinf(i * 34.0f) * 0.5f);
 2098              		.loc 10 90 13 view .LVU609
 2099 00b0 B0EE475A 		vmov.f32	s10, s14
 2100              	.LBB925:
  93:omni_resonator.h ****         float t = structure * 2.0f;
 2101              		.loc 10 93 7 view .LVU610
 2102 00b4 F1EE10FA 		vmrs	APSR_nzcv, FPSCR
 2103              	.LBE925:
  91:omni_resonator.h **** 
 2104              		.loc 10 91 27 view .LVU611
 2105 00b8 F7EE084A 		vmov.f32	s9, #1.5e+0
  90:omni_resonator.h ****       float inharm = 1.0f + (i * 1.5f) + (sinf(i * 34.0f) * 0.5f);
 2106              		.loc 10 90 13 view .LVU612
 2107 00bc A6EE275A 		vfma.f32	s10, s12, s15
  89:omni_resonator.h ****       float odd = 1.0f + (i * 2.0f);
 2108              		.loc 10 89 13 view .LVU613
 2109 00c0 F8EEE55A 		vcvt.f32.s32	s11, s11
 2110              	.LVL110:
  90:omni_resonator.h ****       float inharm = 1.0f + (i * 1.5f) + (sinf(i * 34.0f) * 0.5f);
 2111              		.loc 10 90 7 is_stmt 1 view .LVU614
  91:omni_resonator.h **** 
 2112              		.loc 10 91 7 view .LVU615
  93:omni_resonator.h ****         float t = structure * 2.0f;
 2113              		.loc 10 93 7 view .LVU616
 2114              	.LBB926:
 2115 00c4 D3D4     		bmi	.L74
 2116              	.LBE926:
  91:omni_resonator.h **** 
 2117              		.loc 10 91 27 is_stmt 0 view .LVU617
 2118 00c6 F0EE477A 		vmov.f32	s15, s14
 2119              	.LBE930:
  88:omni_resonator.h ****       float h = (float)(i + 1);
 2120              		.loc 10 88 23 discriminator 1 view .LVU618
 2121 00ca 082C     		cmp	r4, #8
 2122              	.LBB931:
  91:omni_resonator.h **** 
 2123              		.loc 10 91 27 view .LVU619
 2124 00cc E6EE247A 		vfma.f32	s15, s12, s9
 2125              	.LBB927:
 2126              	.LBB920:
 2127              		.loc 10 97 30 view .LVU620
 2128 00d0 39EE666A 		vsub.f32	s12, s18, s13
 2129              	.LVL111:
 2130              		.loc 10 97 15 view .LVU621
 2131 00d4 36EE066A 		vadd.f32	s12, s12, s12
 2132              	.LVL112:
  98:omni_resonator.h ****         ratios_[i] = (odd * (1.0f - t)) + (inharm * t);
 2133              		.loc 10 98 9 is_stmt 1 view .LVU622
 2134              	.LBE920:
 2135              	.LBE927:
  91:omni_resonator.h **** 
ARM GAS  /var/folders/v1/156fk8j97zv9pzndh61fy7zm0000gn/T//ccyHp6tG.s 			page 71


 2136              		.loc 10 91 13 is_stmt 0 discriminator 1 view .LVU623
 2137 00d8 E0EE267A 		vfma.f32	s15, s0, s13
  91:omni_resonator.h **** 
 2138              		.loc 10 91 47 view .LVU624
 2139 00dc 9FED5F0A 		vldr.32	s0, .L77+20
 2140              	.LVL113:
 2141              	.LBB928:
 2142              	.LBB921:
 2143              		.loc 10 98 35 view .LVU625
 2144 00e0 37EE467A 		vsub.f32	s14, s14, s12
 2145              		.loc 10 98 51 view .LVU626
 2146 00e4 67EE867A 		vmul.f32	s15, s15, s12
 2147              		.loc 10 98 41 view .LVU627
 2148 00e8 E5EE077A 		vfma.f32	s15, s10, s14
 2149 00ec E9EC017A 		vstmia.32	r9!, {s15}
 2150              	.LVL114:
 2151              		.loc 10 98 41 view .LVU628
 2152              	.LBE921:
 2153              	.LBE928:
 2154              	.LBE931:
  88:omni_resonator.h ****       float h = (float)(i + 1);
 2155              		.loc 10 88 23 is_stmt 1 discriminator 1 view .LVU629
 2156 00f0 CBD1     		bne	.L75
 2157              	.LVL115:
 2158              	.L60:
  88:omni_resonator.h ****       float h = (float)(i + 1);
 2159              		.loc 10 88 23 is_stmt 0 discriminator 1 view .LVU630
 2160              	.LBE932:
 2161              	.LBE936:
  49:omni_resonator.h ****     float res_val = 0.80f + (t_damp * 0.1995f);
 2162              		.loc 10 49 5 is_stmt 1 view .LVU631
  50:omni_resonator.h **** 
 2163              		.loc 10 50 5 view .LVU632
  49:omni_resonator.h ****     float res_val = 0.80f + (t_damp * 0.1995f);
 2164              		.loc 10 49 11 is_stmt 0 view .LVU633
 2165 00f2 68EEA88A 		vmul.f32	s17, s17, s17
 2166              	.LVL116:
  50:omni_resonator.h **** 
 2167              		.loc 10 50 11 view .LVU634
 2168 00f6 DFED5A7A 		vldr.32	s15, .L77+24
 2169 00fa 9FED5AAA 		vldr.32	s20, .L77+28
 2170              	.LBB937:
  52:omni_resonator.h ****       float input = (in_l[i] + in_r[i]) * 0.5f;
 2171              		.loc 10 52 26 discriminator 1 view .LVU635
 2172 00fe 179B     		ldr	r3, [sp, #92]
 2173              	.LBE937:
  50:omni_resonator.h **** 
 2174              		.loc 10 50 11 view .LVU636
 2175 0100 A8EEA7AA 		vfma.f32	s20, s17, s15
 2176              	.LVL117:
  52:omni_resonator.h ****       float input = (in_l[i] + in_r[i]) * 0.5f;
 2177              		.loc 10 52 5 is_stmt 1 view .LVU637
 2178              	.LBB988:
  52:omni_resonator.h ****       float input = (in_l[i] + in_r[i]) * 0.5f;
 2179              		.loc 10 52 26 discriminator 1 view .LVU638
 2180 0104 002B     		cmp	r3, #0
 2181 0106 00F09980 		beq	.L56
ARM GAS  /var/folders/v1/156fk8j97zv9pzndh61fy7zm0000gn/T//ccyHp6tG.s 			page 72


 2182 010a 0AF11003 		add	r3, r10, #16
  52:omni_resonator.h ****       float input = (in_l[i] + in_r[i]) * 0.5f;
 2183              		.loc 10 52 17 is_stmt 0 view .LVU639
 2184 010e 4FF0000A 		mov	r10, #0
 2185              	.LVL118:
  52:omni_resonator.h ****       float input = (in_l[i] + in_r[i]) * 0.5f;
 2186              		.loc 10 52 17 view .LVU640
 2187 0112 3946     		mov	r1, r7
 2188 0114 2A46     		mov	r2, r5
 2189 0116 0593     		str	r3, [sp, #20]
 2190 0118 169B     		ldr	r3, [sp, #88]
 2191              	.LVL119:
  52:omni_resonator.h ****       float input = (in_l[i] + in_r[i]) * 0.5f;
 2192              		.loc 10 52 17 view .LVU641
 2193 011a DFF85891 		ldr	r9, .L77+44
 2194 011e 1F46     		mov	r7, r3
 2195              	.LVL120:
  52:omni_resonator.h ****       float input = (in_l[i] + in_r[i]) * 0.5f;
 2196              		.loc 10 52 17 view .LVU642
 2197 0120 3346     		mov	r3, r6
 2198 0122 5646     		mov	r6, r10
 2199              	.LVL121:
 2200              	.L66:
 2201              	.LBB938:
  53:omni_resonator.h ****       static float prev = 0.0f;
 2202              		.loc 10 53 7 is_stmt 1 view .LVU643
  53:omni_resonator.h ****       static float prev = 0.0f;
 2203              		.loc 10 53 38 is_stmt 0 view .LVU644
 2204 0124 B2EC017A 		vldmia.32	r2!, {s14}
  53:omni_resonator.h ****       static float prev = 0.0f;
 2205              		.loc 10 53 13 view .LVU645
 2206 0128 F6EE006A 		vmov.f32	s13, #5.0e-1
 2207              	.LVL122:
  53:omni_resonator.h ****       static float prev = 0.0f;
 2208              		.loc 10 53 28 view .LVU646
 2209 012c F1EC017A 		vldmia.32	r1!, {s15}
 2210              	.LBB939:
  61:omni_resonator.h ****         float f = root_freq_ * ratios_[k];
 2211              		.loc 10 61 16 view .LVU647
 2212 0130 0025     		movs	r5, #0
 2213              	.LBE939:
  55:omni_resonator.h ****       prev = input;
 2214              		.loc 10 55 13 view .LVU648
 2215 0132 99ED009A 		vldr.32	s18, [r9]
  53:omni_resonator.h ****       static float prev = 0.0f;
 2216              		.loc 10 53 30 view .LVU649
 2217 0136 77EE877A 		vadd.f32	s15, s15, s14
 2218 013a DDF860B0 		ldr	fp, [sp, #96]
  57:omni_resonator.h **** 
 2219              		.loc 10 57 15 view .LVU650
 2220 013e B1EE007A 		vmov.f32	s14, #4.0e+0
  59:omni_resonator.h **** 
 2221              		.loc 10 59 27 view .LVU651
 2222 0142 DFED458A 		vldr.32	s17, .L77+16
  53:omni_resonator.h ****       static float prev = 0.0f;
 2223              		.loc 10 53 13 view .LVU652
 2224 0146 67EEA67A 		vmul.f32	s15, s15, s13
ARM GAS  /var/folders/v1/156fk8j97zv9pzndh61fy7zm0000gn/T//ccyHp6tG.s 			page 73


 2225              	.LVL123:
  54:omni_resonator.h ****       float exciter = input - prev;
 2226              		.loc 10 54 7 is_stmt 1 view .LVU653
  55:omni_resonator.h ****       prev = input;
 2227              		.loc 10 55 7 view .LVU654
  59:omni_resonator.h **** 
 2228              		.loc 10 59 13 is_stmt 0 view .LVU655
 2229 014a F0EE689A 		vmov.f32	s19, s17
  55:omni_resonator.h ****       prev = input;
 2230              		.loc 10 55 13 view .LVU656
 2231 014e 37EEC99A 		vsub.f32	s18, s15, s18
 2232              	.LVL124:
  56:omni_resonator.h ****       exciter = exciter * 4.0f; // Boost
 2233              		.loc 10 56 7 is_stmt 1 view .LVU657
  56:omni_resonator.h ****       exciter = exciter * 4.0f; // Boost
 2234              		.loc 10 56 12 is_stmt 0 view .LVU658
 2235 0152 C9ED007A 		vstr.32	s15, [r9]
  57:omni_resonator.h **** 
 2236              		.loc 10 57 7 is_stmt 1 view .LVU659
  57:omni_resonator.h **** 
 2237              		.loc 10 57 15 is_stmt 0 view .LVU660
 2238 0156 DDE904A4 		ldrd	r10, r4, [sp, #16]
 2239              	.LBB981:
  61:omni_resonator.h ****         float f = root_freq_ * ratios_[k];
 2240              		.loc 10 61 16 view .LVU661
 2241 015a CDE90067 		strd	r6, r7, [sp]
 2242              	.LBE981:
  57:omni_resonator.h **** 
 2243              		.loc 10 57 15 view .LVU662
 2244 015e 29EE079A 		vmul.f32	s18, s18, s14
 2245              	.LVL125:
  59:omni_resonator.h **** 
 2246              		.loc 10 59 7 is_stmt 1 view .LVU663
  61:omni_resonator.h ****         float f = root_freq_ * ratios_[k];
 2247              		.loc 10 61 7 view .LVU664
 2248              	.LBB982:
  61:omni_resonator.h ****         float f = root_freq_ * ratios_[k];
 2249              		.loc 10 61 25 discriminator 1 view .LVU665
  61:omni_resonator.h ****         float f = root_freq_ * ratios_[k];
 2250              		.loc 10 61 16 is_stmt 0 view .LVU666
 2251 0162 5E46     		mov	r6, fp
 2252              	.LVL126:
  61:omni_resonator.h ****         float f = root_freq_ * ratios_[k];
 2253              		.loc 10 61 16 view .LVU667
 2254 0164 5746     		mov	r7, r10
 2255 0166 8B46     		mov	fp, r1
 2256 0168 CDE90232 		strd	r3, r2, [sp, #8]
 2257 016c 01E0     		b	.L65
 2258              	.LVL127:
 2259              	.L76:
 2260              	.LBB940:
