ARM GAS  /var/folders/v1/156fk8j97zv9pzndh61fy7zm0000gn/T//ccQgUds1.s 			page 1


   1              		.cpu cortex-m7
   2              		.arch armv7e-m
   3              		.fpu fpv5-d16
   4              		.eabi_attribute 28, 1
   5              		.eabi_attribute 20, 1
   6              		.eabi_attribute 21, 1
   7              		.eabi_attribute 23, 3
   8              		.eabi_attribute 24, 1
   9              		.eabi_attribute 25, 1
  10              		.eabi_attribute 26, 1
  11              		.eabi_attribute 30, 2
  12              		.eabi_attribute 34, 1
  13              		.eabi_attribute 18, 4
  14              		.file	"time_machine_hardware.cpp"
  15              		.text
  16              	.Ltext0:
  17              		.cfi_sections	.debug_frame
  18              		.file 1 "time_machine_hardware.cpp"
  19              		.section	.text._ZN3oam12time_machine19TimeMachineHardware4InitEv,"ax",%progbits
  20              		.align	1
  21              		.p2align 2,,3
  22              		.global	_ZN3oam12time_machine19TimeMachineHardware4InitEv
  23              		.syntax unified
  24              		.thumb
  25              		.thumb_func
  27              	_ZN3oam12time_machine19TimeMachineHardware4InitEv:
  28              	.LVL0:
  29              	.LFB3004:
   1:time_machine_hardware.cpp **** #include "time_machine_hardware.h"
   2:time_machine_hardware.cpp **** #include <vector>
   3:time_machine_hardware.cpp **** 
   4:time_machine_hardware.cpp **** namespace oam
   5:time_machine_hardware.cpp **** {
   6:time_machine_hardware.cpp **** namespace time_machine
   7:time_machine_hardware.cpp **** {
   8:time_machine_hardware.cpp ****     /** Const definitions */
   9:time_machine_hardware.cpp ****     static constexpr dsy_gpio_pin DUMMYPIN        = {DSY_GPIOX, 0};
  10:time_machine_hardware.cpp ****     static constexpr dsy_gpio_pin PIN_ADC_CTRL_1  = {DSY_GPIOA, 3};
  11:time_machine_hardware.cpp ****     static constexpr dsy_gpio_pin PIN_ADC_CTRL_2  = {DSY_GPIOA, 6};
  12:time_machine_hardware.cpp ****     static constexpr dsy_gpio_pin PIN_ADC_CTRL_3  = {DSY_GPIOA, 2};
  13:time_machine_hardware.cpp ****     static constexpr dsy_gpio_pin PIN_ADC_CTRL_4  = {DSY_GPIOA, 7};
  14:time_machine_hardware.cpp ****     static constexpr dsy_gpio_pin PIN_ADC_CTRL_5  = {DSY_GPIOB, 1};
  15:time_machine_hardware.cpp ****     static constexpr dsy_gpio_pin PIN_ADC_CTRL_6  = {DSY_GPIOC, 4};
  16:time_machine_hardware.cpp ****     static constexpr dsy_gpio_pin PIN_ADC_CTRL_7  = {DSY_GPIOC, 0};
  17:time_machine_hardware.cpp ****     static constexpr dsy_gpio_pin PIN_ADC_CTRL_8  = {DSY_GPIOC, 1};
  18:time_machine_hardware.cpp ****     static constexpr dsy_gpio_pin PIN_ADC_CTRL_9  = {DSY_GPIOA, 1};
  19:time_machine_hardware.cpp ****     static constexpr dsy_gpio_pin PIN_ADC_CTRL_10 = {DSY_GPIOA, 0};
  20:time_machine_hardware.cpp ****     static constexpr dsy_gpio_pin PIN_ADC_CTRL_11 = {DSY_GPIOC, 2};
  21:time_machine_hardware.cpp ****     static constexpr dsy_gpio_pin PIN_ADC_CTRL_12 = {DSY_GPIOC, 3};
  22:time_machine_hardware.cpp ****     static constexpr dsy_gpio_pin PIN_USER_LED    = {DSY_GPIOC, 7};
  23:time_machine_hardware.cpp **** 
  24:time_machine_hardware.cpp ****     const dsy_gpio_pin kPinMap[4][10] = {
  25:time_machine_hardware.cpp ****         /** Header Bank A */
  26:time_machine_hardware.cpp ****         {
  27:time_machine_hardware.cpp ****             DUMMYPIN,        /**< A1  - -12V Power Input */
  28:time_machine_hardware.cpp ****             {DSY_GPIOA, 1},  /**< A2  - UART1 Rx */
  29:time_machine_hardware.cpp ****             {DSY_GPIOA, 0},  /**< A3  - UART1 Tx */
ARM GAS  /var/folders/v1/156fk8j97zv9pzndh61fy7zm0000gn/T//ccQgUds1.s 			page 2


  30:time_machine_hardware.cpp ****             DUMMYPIN,        /**< A4  - GND */
  31:time_machine_hardware.cpp ****             DUMMYPIN,        /**< A5  - +12V Power Input */
  32:time_machine_hardware.cpp ****             DUMMYPIN,        /**< A6  - +5V Power Output */
  33:time_machine_hardware.cpp ****             DUMMYPIN,        /**< A7  - GND */
  34:time_machine_hardware.cpp ****             {DSY_GPIOB, 14}, /**< A8  - USB DM */
  35:time_machine_hardware.cpp ****             {DSY_GPIOB, 15}, /**< A9  - USB DP */
  36:time_machine_hardware.cpp ****             DUMMYPIN,        /**< A10 - +3V3 Power Output */
  37:time_machine_hardware.cpp ****         },
  38:time_machine_hardware.cpp ****         /** Header Bank B */
  39:time_machine_hardware.cpp ****         {
  40:time_machine_hardware.cpp ****             DUMMYPIN,        /**< B1  - Audio Out Right */
  41:time_machine_hardware.cpp ****             DUMMYPIN,        /**< B2  - Audio Out Left*/
  42:time_machine_hardware.cpp ****             DUMMYPIN,        /**< B3  - Audio In Right */
  43:time_machine_hardware.cpp ****             DUMMYPIN,        /**< B4  - Audio In Left */
  44:time_machine_hardware.cpp ****             {DSY_GPIOC, 13}, /**< B5  - GATE OUT 1 */
  45:time_machine_hardware.cpp ****             {DSY_GPIOC, 14}, /**< B6  - GATE OUT 2 */
  46:time_machine_hardware.cpp ****             {DSY_GPIOB, 8},  /**< B7  - I2C1 SCL */
  47:time_machine_hardware.cpp ****             {DSY_GPIOB, 9},  /**< B8  - I2C1 SDA */
  48:time_machine_hardware.cpp ****             {DSY_GPIOG, 14}, /**< B9  - GATE IN 2 */
  49:time_machine_hardware.cpp ****             {DSY_GPIOG, 13}, /**< B10 - GATE IN 1 */
  50:time_machine_hardware.cpp ****         },
  51:time_machine_hardware.cpp ****         /** Header Bank C */
  52:time_machine_hardware.cpp ****         {
  53:time_machine_hardware.cpp ****             {DSY_GPIOA, 5}, /**< C1  - CV Out 2 */
  54:time_machine_hardware.cpp ****             PIN_ADC_CTRL_4, /**< C2  - CV In 4 */
  55:time_machine_hardware.cpp ****             PIN_ADC_CTRL_3, /**< C3  - CV In 3 */
  56:time_machine_hardware.cpp ****             PIN_ADC_CTRL_2, /**< C4  - CV In 2 */
  57:time_machine_hardware.cpp ****             PIN_ADC_CTRL_1, /**< C5  - CV In 1 */
  58:time_machine_hardware.cpp ****             PIN_ADC_CTRL_5, /**< C6  - CV In 5 */
  59:time_machine_hardware.cpp ****             PIN_ADC_CTRL_6, /**< C7  - CV In 6 */
  60:time_machine_hardware.cpp ****             PIN_ADC_CTRL_7, /**< C8  - CV In 7 */
  61:time_machine_hardware.cpp ****             PIN_ADC_CTRL_8, /**< C9  - CV In 8 */
  62:time_machine_hardware.cpp ****             {DSY_GPIOA, 4}, /**< C10 - CV Out 1 */
  63:time_machine_hardware.cpp ****         },
  64:time_machine_hardware.cpp ****         /** Header Bank D */
  65:time_machine_hardware.cpp ****         {
  66:time_machine_hardware.cpp ****             {DSY_GPIOB, 4},  /**< D1  - SPI2 CS */
  67:time_machine_hardware.cpp ****             {DSY_GPIOC, 11}, /**< D2  - SDMMC D3 */
  68:time_machine_hardware.cpp ****             {DSY_GPIOC, 10}, /**< D3  - SDMMC D2*/
  69:time_machine_hardware.cpp ****             {DSY_GPIOC, 9},  /**< D4  - SDMMC D1*/
  70:time_machine_hardware.cpp ****             {DSY_GPIOC, 8},  /**< D5  - SDMMC D0 */
  71:time_machine_hardware.cpp ****             {DSY_GPIOC, 12}, /**< D6  - SDMMC CK */
  72:time_machine_hardware.cpp ****             {DSY_GPIOD, 2},  /**< D7  - SDMMC CMD */
  73:time_machine_hardware.cpp ****             {DSY_GPIOC, 2},  /**< D8  - SPI2 MISO */
  74:time_machine_hardware.cpp ****             {DSY_GPIOC, 3},  /**< D9  - SPI2 MOSI */
  75:time_machine_hardware.cpp ****             {DSY_GPIOD, 3},  /**< D10 - SPI2 SCK  */
  76:time_machine_hardware.cpp ****         },
  77:time_machine_hardware.cpp ****     };
  78:time_machine_hardware.cpp **** 
  79:time_machine_hardware.cpp ****     const dsy_gpio_pin TimeMachineHardware::A1  = kPinMap[0][0];
  80:time_machine_hardware.cpp ****     const dsy_gpio_pin TimeMachineHardware::A2  = kPinMap[0][1];
  81:time_machine_hardware.cpp ****     const dsy_gpio_pin TimeMachineHardware::A3  = kPinMap[0][2];
  82:time_machine_hardware.cpp ****     const dsy_gpio_pin TimeMachineHardware::A4  = kPinMap[0][3];
  83:time_machine_hardware.cpp ****     const dsy_gpio_pin TimeMachineHardware::A5  = kPinMap[0][4];
  84:time_machine_hardware.cpp ****     const dsy_gpio_pin TimeMachineHardware::A6  = kPinMap[0][5];
  85:time_machine_hardware.cpp ****     const dsy_gpio_pin TimeMachineHardware::A7  = kPinMap[0][6];
  86:time_machine_hardware.cpp ****     const dsy_gpio_pin TimeMachineHardware::A8  = kPinMap[0][7];
ARM GAS  /var/folders/v1/156fk8j97zv9pzndh61fy7zm0000gn/T//ccQgUds1.s 			page 3


  87:time_machine_hardware.cpp ****     const dsy_gpio_pin TimeMachineHardware::A9  = kPinMap[0][8];
  88:time_machine_hardware.cpp ****     const dsy_gpio_pin TimeMachineHardware::A10 = kPinMap[0][9];
  89:time_machine_hardware.cpp ****     const dsy_gpio_pin TimeMachineHardware::B1  = kPinMap[1][0];
  90:time_machine_hardware.cpp ****     const dsy_gpio_pin TimeMachineHardware::B2  = kPinMap[1][1];
  91:time_machine_hardware.cpp ****     const dsy_gpio_pin TimeMachineHardware::B3  = kPinMap[1][2];
  92:time_machine_hardware.cpp ****     const dsy_gpio_pin TimeMachineHardware::B4  = kPinMap[1][3];
  93:time_machine_hardware.cpp ****     const dsy_gpio_pin TimeMachineHardware::B5  = kPinMap[1][4];
  94:time_machine_hardware.cpp ****     const dsy_gpio_pin TimeMachineHardware::B6  = kPinMap[1][5];
  95:time_machine_hardware.cpp ****     const dsy_gpio_pin TimeMachineHardware::B7  = kPinMap[1][6];
  96:time_machine_hardware.cpp ****     const dsy_gpio_pin TimeMachineHardware::B8  = kPinMap[1][7];
  97:time_machine_hardware.cpp ****     const dsy_gpio_pin TimeMachineHardware::B9  = kPinMap[1][8];
  98:time_machine_hardware.cpp ****     const dsy_gpio_pin TimeMachineHardware::B10 = kPinMap[1][9];
  99:time_machine_hardware.cpp ****     const dsy_gpio_pin TimeMachineHardware::C1  = kPinMap[2][0];
 100:time_machine_hardware.cpp ****     const dsy_gpio_pin TimeMachineHardware::C2  = kPinMap[2][1];
 101:time_machine_hardware.cpp ****     const dsy_gpio_pin TimeMachineHardware::C3  = kPinMap[2][2];
 102:time_machine_hardware.cpp ****     const dsy_gpio_pin TimeMachineHardware::C4  = kPinMap[2][3];
 103:time_machine_hardware.cpp ****     const dsy_gpio_pin TimeMachineHardware::C5  = kPinMap[2][4];
 104:time_machine_hardware.cpp ****     const dsy_gpio_pin TimeMachineHardware::C6  = kPinMap[2][5];
 105:time_machine_hardware.cpp ****     const dsy_gpio_pin TimeMachineHardware::C7  = kPinMap[2][6];
 106:time_machine_hardware.cpp ****     const dsy_gpio_pin TimeMachineHardware::C8  = kPinMap[2][7];
 107:time_machine_hardware.cpp ****     const dsy_gpio_pin TimeMachineHardware::C9  = kPinMap[2][8];
 108:time_machine_hardware.cpp ****     const dsy_gpio_pin TimeMachineHardware::C10 = kPinMap[2][9];
 109:time_machine_hardware.cpp ****     const dsy_gpio_pin TimeMachineHardware::D1  = kPinMap[3][0];
 110:time_machine_hardware.cpp ****     const dsy_gpio_pin TimeMachineHardware::D2  = kPinMap[3][1];
 111:time_machine_hardware.cpp ****     const dsy_gpio_pin TimeMachineHardware::D3  = kPinMap[3][2];
 112:time_machine_hardware.cpp ****     const dsy_gpio_pin TimeMachineHardware::D4  = kPinMap[3][3];
 113:time_machine_hardware.cpp ****     const dsy_gpio_pin TimeMachineHardware::D5  = kPinMap[3][4];
 114:time_machine_hardware.cpp ****     const dsy_gpio_pin TimeMachineHardware::D6  = kPinMap[3][5];
 115:time_machine_hardware.cpp ****     const dsy_gpio_pin TimeMachineHardware::D7  = kPinMap[3][6];
 116:time_machine_hardware.cpp ****     const dsy_gpio_pin TimeMachineHardware::D8  = kPinMap[3][7];
 117:time_machine_hardware.cpp ****     const dsy_gpio_pin TimeMachineHardware::D9  = kPinMap[3][8];
 118:time_machine_hardware.cpp ****     const dsy_gpio_pin TimeMachineHardware::D10 = kPinMap[3][9];
 119:time_machine_hardware.cpp **** 
 120:time_machine_hardware.cpp ****     /** outside of class static buffer(s) for DMA access */
 121:time_machine_hardware.cpp ****     uint16_t DMA_BUFFER_MEM_SECTION dsy_patch_sm_dac_buffer[2][48];
 122:time_machine_hardware.cpp **** 
 123:time_machine_hardware.cpp ****     class TimeMachineHardware::Impl
 124:time_machine_hardware.cpp ****     {
 125:time_machine_hardware.cpp ****       public:
 126:time_machine_hardware.cpp ****         // Impl()
 127:time_machine_hardware.cpp ****         // {
 128:time_machine_hardware.cpp ****         //     dac_running_            = false;
 129:time_machine_hardware.cpp ****         //     dac_buffer_size_        = 48;
 130:time_machine_hardware.cpp ****         //     dac_output_[0]          = 0;
 131:time_machine_hardware.cpp ****         //     dac_output_[1]          = 0;
 132:time_machine_hardware.cpp ****         //     internal_dac_buffer_[0] = dsy_patch_sm_dac_buffer[0];
 133:time_machine_hardware.cpp ****         //     internal_dac_buffer_[1] = dsy_patch_sm_dac_buffer[1];
 134:time_machine_hardware.cpp ****         // }
 135:time_machine_hardware.cpp **** 
 136:time_machine_hardware.cpp ****         // void InitDac();
 137:time_machine_hardware.cpp **** 
 138:time_machine_hardware.cpp ****         // void StartDac(DacHandle::DacCallback callback);
 139:time_machine_hardware.cpp **** 
 140:time_machine_hardware.cpp ****       //   void StopDac();
 141:time_machine_hardware.cpp **** 
 142:time_machine_hardware.cpp ****       //   static void InternalDacCallback(uint16_t **output, size_t size);
 143:time_machine_hardware.cpp **** 
ARM GAS  /var/folders/v1/156fk8j97zv9pzndh61fy7zm0000gn/T//ccQgUds1.s 			page 4


 144:time_machine_hardware.cpp ****       //   /** Based on a 0-5V output with a 0-4095 12-bit DAC */
 145:time_machine_hardware.cpp ****       //   static inline uint16_t VoltageToCode(float input)
 146:time_machine_hardware.cpp ****       //   {
 147:time_machine_hardware.cpp ****       //       float pre = input * 819.f;
 148:time_machine_hardware.cpp ****       //       if(pre > 4095.f)
 149:time_machine_hardware.cpp ****       //           pre = 4095.f;
 150:time_machine_hardware.cpp ****       //       else if(pre < 0.f)
 151:time_machine_hardware.cpp ****       //           pre = 0.f;
 152:time_machine_hardware.cpp ****       //       return (uint16_t)pre;
 153:time_machine_hardware.cpp ****       //   }
 154:time_machine_hardware.cpp **** 
 155:time_machine_hardware.cpp ****       //   inline void WriteCvOut(int channel, float voltage)
 156:time_machine_hardware.cpp ****       //   {
 157:time_machine_hardware.cpp ****       //       if(channel == 0 || channel == 1)
 158:time_machine_hardware.cpp ****       //           dac_output_[0] = VoltageToCode(voltage);
 159:time_machine_hardware.cpp ****       //       if(channel == 0 || channel == 2)
 160:time_machine_hardware.cpp ****       //           dac_output_[1] = VoltageToCode(voltage);
 161:time_machine_hardware.cpp ****       //   }
 162:time_machine_hardware.cpp **** 
 163:time_machine_hardware.cpp ****       //   size_t    dac_buffer_size_;
 164:time_machine_hardware.cpp ****       //   uint16_t *internal_dac_buffer_[2];
 165:time_machine_hardware.cpp ****       //   uint16_t  dac_output_[2];
 166:time_machine_hardware.cpp ****       //   DacHandle dac_;
 167:time_machine_hardware.cpp **** 
 168:time_machine_hardware.cpp ****       // private:
 169:time_machine_hardware.cpp ****       //   bool dac_running_;
 170:time_machine_hardware.cpp ****     };
 171:time_machine_hardware.cpp **** 
 172:time_machine_hardware.cpp ****     /** Static Local Object */
 173:time_machine_hardware.cpp ****     static TimeMachineHardware::Impl patch_sm_hw;
 174:time_machine_hardware.cpp **** 
 175:time_machine_hardware.cpp ****     /** Impl function definintions */
 176:time_machine_hardware.cpp **** 
 177:time_machine_hardware.cpp ****     // void TimeMachineHardware::Impl::InitDac()
 178:time_machine_hardware.cpp ****     // {
 179:time_machine_hardware.cpp ****     //     DacHandle::Config dac_config;
 180:time_machine_hardware.cpp ****     //     dac_config.mode     = DacHandle::Mode::DMA;
 181:time_machine_hardware.cpp ****     //     dac_config.bitdepth = DacHandle::BitDepth::
 182:time_machine_hardware.cpp ****     //         BITS_12; /**< Sets the output value to 0-4095 */
 183:time_machine_hardware.cpp ****     //     dac_config.chn               = DacHandle::Channel::BOTH;
 184:time_machine_hardware.cpp ****     //     dac_config.buff_state        = DacHandle::BufferState::ENABLED;
 185:time_machine_hardware.cpp ****     //     dac_config.target_samplerate = 48000;
 186:time_machine_hardware.cpp ****     //     dac_.Init(dac_config);
 187:time_machine_hardware.cpp ****     // }
 188:time_machine_hardware.cpp **** 
 189:time_machine_hardware.cpp ****     // void TimeMachineHardware::Impl::StartDac(DacHandle::DacCallback callback)
 190:time_machine_hardware.cpp ****     // {
 191:time_machine_hardware.cpp ****     //     if(dac_running_)
 192:time_machine_hardware.cpp ****     //         dac_.Stop();
 193:time_machine_hardware.cpp ****     //     dac_.Start(internal_dac_buffer_[0],
 194:time_machine_hardware.cpp ****     //                internal_dac_buffer_[1],
 195:time_machine_hardware.cpp ****     //                dac_buffer_size_,
 196:time_machine_hardware.cpp ****     //                callback == nullptr ? InternalDacCallback : callback);
 197:time_machine_hardware.cpp ****     //     dac_running_ = true;
 198:time_machine_hardware.cpp ****     // }
 199:time_machine_hardware.cpp **** 
 200:time_machine_hardware.cpp ****     // void TimeMachineHardware::Impl::StopDac()
ARM GAS  /var/folders/v1/156fk8j97zv9pzndh61fy7zm0000gn/T//ccQgUds1.s 			page 5


 201:time_machine_hardware.cpp ****     // {
 202:time_machine_hardware.cpp ****     //     dac_.Stop();
 203:time_machine_hardware.cpp ****     //     dac_running_ = false;
 204:time_machine_hardware.cpp ****     // }
 205:time_machine_hardware.cpp **** 
 206:time_machine_hardware.cpp **** 
 207:time_machine_hardware.cpp ****     // void TimeMachineHardware::Impl::InternalDacCallback(uint16_t **output, size_t size)
 208:time_machine_hardware.cpp ****     // {
 209:time_machine_hardware.cpp ****     //     /** We could add some smoothing, interp, or something to make this a bit less waste-y */
 210:time_machine_hardware.cpp ****     //     // std::fill(&output[0][0], &output[0][size], patch_sm_hw.dac_output_[0]);
 211:time_machine_hardware.cpp ****     //     // std::fill(&output[1][1], &output[1][size], patch_sm_hw.dac_output_[1]);
 212:time_machine_hardware.cpp ****     //     for(size_t i = 0; i < size; i++)
 213:time_machine_hardware.cpp ****     //     {
 214:time_machine_hardware.cpp ****     //         output[0][i] = patch_sm_hw.dac_output_[0];
 215:time_machine_hardware.cpp ****     //         output[1][i] = patch_sm_hw.dac_output_[1];
 216:time_machine_hardware.cpp ****     //     }
 217:time_machine_hardware.cpp ****     // }
 218:time_machine_hardware.cpp **** 
 219:time_machine_hardware.cpp ****     /** Actual TimeMachineHardware implementation 
 220:time_machine_hardware.cpp ****  *  With the pimpl model in place, we can/should probably
 221:time_machine_hardware.cpp ****  *  move the rest of the implementation to the Impl class
 222:time_machine_hardware.cpp ****  */
 223:time_machine_hardware.cpp **** 
 224:time_machine_hardware.cpp ****     void TimeMachineHardware::Init()
 225:time_machine_hardware.cpp ****     {
  30              		.loc 1 225 5 view -0
  31              		.cfi_startproc
  32              		@ args = 0, pretend = 0, frame = 464
  33              		@ frame_needed = 0, uses_anonymous_args = 0
 226:time_machine_hardware.cpp ****         /** Assign pimpl pointer */
 227:time_machine_hardware.cpp ****         pimpl_ = &patch_sm_hw;
  34              		.loc 1 227 9 view .LVU1
 225:time_machine_hardware.cpp ****         /** Assign pimpl pointer */
  35              		.loc 1 225 5 is_stmt 0 view .LVU2
  36 0000 2DE9F043 		push	{r4, r5, r6, r7, r8, r9, lr}
  37              		.cfi_def_cfa_offset 28
  38              		.cfi_offset 4, -28
  39              		.cfi_offset 5, -24
  40              		.cfi_offset 6, -20
  41              		.cfi_offset 7, -16
  42              		.cfi_offset 8, -12
  43              		.cfi_offset 9, -8
  44              		.cfi_offset 14, -4
  45              	.LBB295:
  46              	.LBB296:
  47              		.file 2 "../temp_time_machine/DaisyExamples/libDaisy/src/sys/system.h"
   1:../temp_time_machine/DaisyExamples/libDaisy/src/sys/system.h **** #ifndef DSY_SYSTEM_H
   2:../temp_time_machine/DaisyExamples/libDaisy/src/sys/system.h **** #define DSY_SYSTEM_H
   3:../temp_time_machine/DaisyExamples/libDaisy/src/sys/system.h **** 
   4:../temp_time_machine/DaisyExamples/libDaisy/src/sys/system.h **** #ifndef UNIT_TEST // for unit tests, a dummy implementation is provided below
   5:../temp_time_machine/DaisyExamples/libDaisy/src/sys/system.h **** 
   6:../temp_time_machine/DaisyExamples/libDaisy/src/sys/system.h **** #include <cstdint>
   7:../temp_time_machine/DaisyExamples/libDaisy/src/sys/system.h **** #include "per/tim.h"
   8:../temp_time_machine/DaisyExamples/libDaisy/src/sys/system.h **** 
   9:../temp_time_machine/DaisyExamples/libDaisy/src/sys/system.h **** namespace daisy
  10:../temp_time_machine/DaisyExamples/libDaisy/src/sys/system.h **** {
  11:../temp_time_machine/DaisyExamples/libDaisy/src/sys/system.h **** /** A handle for interacting with the Core System.
ARM GAS  /var/folders/v1/156fk8j97zv9pzndh61fy7zm0000gn/T//ccQgUds1.s 			page 6


  12:../temp_time_machine/DaisyExamples/libDaisy/src/sys/system.h ****  ** This includes the Clock tree, MPU, global DMA initialization,
  13:../temp_time_machine/DaisyExamples/libDaisy/src/sys/system.h ****  ** cache handling, and any other necessary global initiailzation
  14:../temp_time_machine/DaisyExamples/libDaisy/src/sys/system.h ****  **
  15:../temp_time_machine/DaisyExamples/libDaisy/src/sys/system.h ****  ** @author shensley
  16:../temp_time_machine/DaisyExamples/libDaisy/src/sys/system.h ****  ** @ingroup system
  17:../temp_time_machine/DaisyExamples/libDaisy/src/sys/system.h ****  */
  18:../temp_time_machine/DaisyExamples/libDaisy/src/sys/system.h **** class System
  19:../temp_time_machine/DaisyExamples/libDaisy/src/sys/system.h **** {
  20:../temp_time_machine/DaisyExamples/libDaisy/src/sys/system.h ****   public:
  21:../temp_time_machine/DaisyExamples/libDaisy/src/sys/system.h ****     /** Contains settings for initializing the System */
  22:../temp_time_machine/DaisyExamples/libDaisy/src/sys/system.h ****     struct Config
  23:../temp_time_machine/DaisyExamples/libDaisy/src/sys/system.h ****     {
  24:../temp_time_machine/DaisyExamples/libDaisy/src/sys/system.h ****         /** Specifies the system clock frequency that feeds APB/AHB clocks, etc. */
  25:../temp_time_machine/DaisyExamples/libDaisy/src/sys/system.h ****         enum class SysClkFreq
  26:../temp_time_machine/DaisyExamples/libDaisy/src/sys/system.h ****         {
  27:../temp_time_machine/DaisyExamples/libDaisy/src/sys/system.h ****             FREQ_400MHZ,
  28:../temp_time_machine/DaisyExamples/libDaisy/src/sys/system.h ****             FREQ_480MHZ,
  29:../temp_time_machine/DaisyExamples/libDaisy/src/sys/system.h ****         };
  30:../temp_time_machine/DaisyExamples/libDaisy/src/sys/system.h **** 
  31:../temp_time_machine/DaisyExamples/libDaisy/src/sys/system.h ****         /** Method to call on the struct to set to defaults
  32:../temp_time_machine/DaisyExamples/libDaisy/src/sys/system.h ****          ** CPU Freq set to 400MHz
  33:../temp_time_machine/DaisyExamples/libDaisy/src/sys/system.h ****          ** Cache Enabled
  34:../temp_time_machine/DaisyExamples/libDaisy/src/sys/system.h ****          ** */
  35:../temp_time_machine/DaisyExamples/libDaisy/src/sys/system.h ****         void Defaults()
  36:../temp_time_machine/DaisyExamples/libDaisy/src/sys/system.h ****         {
  37:../temp_time_machine/DaisyExamples/libDaisy/src/sys/system.h ****             cpu_freq    = SysClkFreq::FREQ_400MHZ;
  38:../temp_time_machine/DaisyExamples/libDaisy/src/sys/system.h ****             use_dcache  = true;
  39:../temp_time_machine/DaisyExamples/libDaisy/src/sys/system.h ****             use_icache  = true;
  40:../temp_time_machine/DaisyExamples/libDaisy/src/sys/system.h ****             skip_clocks = false;
  41:../temp_time_machine/DaisyExamples/libDaisy/src/sys/system.h ****         }
  42:../temp_time_machine/DaisyExamples/libDaisy/src/sys/system.h **** 
  43:../temp_time_machine/DaisyExamples/libDaisy/src/sys/system.h ****         /** Method to call on the struct to set to boost mode:
  44:../temp_time_machine/DaisyExamples/libDaisy/src/sys/system.h ****          ** CPU Freq set to 480MHz
  45:../temp_time_machine/DaisyExamples/libDaisy/src/sys/system.h ****          ** Cache Enabled
  46:../temp_time_machine/DaisyExamples/libDaisy/src/sys/system.h ****          ** */
  47:../temp_time_machine/DaisyExamples/libDaisy/src/sys/system.h ****         void Boost()
  48:../temp_time_machine/DaisyExamples/libDaisy/src/sys/system.h ****         {
  49:../temp_time_machine/DaisyExamples/libDaisy/src/sys/system.h ****             cpu_freq    = SysClkFreq::FREQ_480MHZ;
  50:../temp_time_machine/DaisyExamples/libDaisy/src/sys/system.h ****             use_dcache  = true;
  48              		.loc 2 50 25 view .LVU3
  49 0004 40F20113 		movw	r3, #257
  50              	.LBE296:
  51              	.LBE295:
  52              		.loc 1 227 16 view .LVU4
  53 0008 B34A     		ldr	r2, .L28
  54              	.LBB299:
  55              	.LBB297:
  49:../temp_time_machine/DaisyExamples/libDaisy/src/sys/system.h ****             use_dcache  = true;
  56              		.loc 2 49 25 view .LVU5
  57 000a 0126     		movs	r6, #1
  58              	.LBE297:
  59              	.LBE299:
 225:time_machine_hardware.cpp ****         /** Assign pimpl pointer */
  60              		.loc 1 225 5 view .LVU6
  61 000c 0546     		mov	r5, r0
  62 000e 2DED028B 		vpush.64	{d8}
  63              		.cfi_def_cfa_offset 36
ARM GAS  /var/folders/v1/156fk8j97zv9pzndh61fy7zm0000gn/T//ccQgUds1.s 			page 7


  64              		.cfi_offset 80, -36
  65              		.cfi_offset 81, -32
  66 0012 F9B0     		sub	sp, sp, #484
  67              		.cfi_def_cfa_offset 520
  68              		.loc 1 227 16 view .LVU7
  69 0014 C0F8EC21 		str	r2, [r0, #492]
 228:time_machine_hardware.cpp ****         /** Initialize the MCU and clock tree */
 229:time_machine_hardware.cpp ****         System::Config syscfg;
  70              		.loc 1 229 9 is_stmt 1 view .LVU8
 230:time_machine_hardware.cpp ****         syscfg.Boost();
  71              		.loc 1 230 9 view .LVU9
  72              	.LVL1:
  73              	.LBB300:
  74              	.LBI295:
  47:../temp_time_machine/DaisyExamples/libDaisy/src/sys/system.h ****         {
  75              		.loc 2 47 14 view .LVU10
  76              	.LBB298:
  49:../temp_time_machine/DaisyExamples/libDaisy/src/sys/system.h ****             use_dcache  = true;
  77              		.loc 2 49 13 view .LVU11
  78              		.loc 2 50 13 view .LVU12
  51:../temp_time_machine/DaisyExamples/libDaisy/src/sys/system.h ****             use_icache  = true;
  79              		.loc 2 51 13 view .LVU13
  50:../temp_time_machine/DaisyExamples/libDaisy/src/sys/system.h ****             use_icache  = true;
  80              		.loc 2 50 25 is_stmt 0 view .LVU14
  81 0018 ADF82030 		strh	r3, [sp, #32]	@ movhi
  52:../temp_time_machine/DaisyExamples/libDaisy/src/sys/system.h ****             skip_clocks = false;
  82              		.loc 2 52 13 is_stmt 1 view .LVU15
  83              		.loc 2 52 25 is_stmt 0 view .LVU16
  84 001c 0023     		movs	r3, #0
  49:../temp_time_machine/DaisyExamples/libDaisy/src/sys/system.h ****             use_dcache  = true;
  85              		.loc 2 49 25 view .LVU17
  86 001e 0796     		str	r6, [sp, #28]
  87              		.loc 2 52 25 view .LVU18
  88 0020 8DF82230 		strb	r3, [sp, #34]
  89              	.LVL2:
  90              		.loc 2 52 25 view .LVU19
  91              	.LBE298:
  92              	.LBE300:
 231:time_machine_hardware.cpp **** 
 232:time_machine_hardware.cpp ****         auto memory = System::GetProgramMemoryRegion();
  93              		.loc 1 232 9 is_stmt 1 view .LVU20
  94              		.loc 1 232 53 is_stmt 0 view .LVU21
  95 0024 FFF7FEFF 		bl	_ZN5daisy6System22GetProgramMemoryRegionEv
  96              	.LVL3:
 233:time_machine_hardware.cpp ****         if(memory != System::MemoryRegion::INTERNAL_FLASH)
  97              		.loc 1 233 9 is_stmt 1 view .LVU22
  98 0028 0028     		cmp	r0, #0
  99 002a 40F04881 		bne	.L2
 234:time_machine_hardware.cpp ****             syscfg.skip_clocks = true;
 235:time_machine_hardware.cpp **** 
 236:time_machine_hardware.cpp ****         system.Init(syscfg);
 100              		.loc 1 236 9 view .LVU23
 101              		.loc 1 236 20 is_stmt 0 view .LVU24
 102 002e 2846     		mov	r0, r5
 103              	.LVL4:
 104              		.loc 1 236 20 view .LVU25
 105 0030 07A9     		add	r1, sp, #28
ARM GAS  /var/folders/v1/156fk8j97zv9pzndh61fy7zm0000gn/T//ccQgUds1.s 			page 8


 106 0032 FFF7FEFF 		bl	_ZN5daisy6System4InitERKNS0_6ConfigE
 107              	.LVL5:
 237:time_machine_hardware.cpp ****         /** Memories */
 238:time_machine_hardware.cpp ****         if(memory == System::MemoryRegion::INTERNAL_FLASH)
 108              		.loc 1 238 9 is_stmt 1 view .LVU26
 239:time_machine_hardware.cpp ****         {
 240:time_machine_hardware.cpp ****             /** FMC SDRAM */
 241:time_machine_hardware.cpp ****             sdram.Init();
 109              		.loc 1 241 13 view .LVU27
 110              		.loc 1 241 23 is_stmt 0 view .LVU28
 111 0036 05F10800 		add	r0, r5, #8
 112 003a FFF7FEFF 		bl	_ZN11SdramHandle4InitEv
 113              	.LVL6:
 242:time_machine_hardware.cpp ****         }
 243:time_machine_hardware.cpp ****         if(memory != System::MemoryRegion::QSPI)
 114              		.loc 1 243 9 is_stmt 1 view .LVU29
 115              	.L3:
 116              	.LBB301:
 117              	.LBB302:
 244:time_machine_hardware.cpp ****         {
 245:time_machine_hardware.cpp ****             /** QUADSPI FLASH */
 246:time_machine_hardware.cpp ****             QSPIHandle::Config qspi_config;
 118              		.loc 1 246 13 view .LVU30
 247:time_machine_hardware.cpp ****             qspi_config.device = QSPIHandle::Config::Device::IS25LP064A;
 119              		.loc 1 247 13 view .LVU31
 248:time_machine_hardware.cpp ****             qspi_config.mode   = QSPIHandle::Config::Mode::MEMORY_MAPPED;
 120              		.loc 1 248 13 view .LVU32
 247:time_machine_hardware.cpp ****             qspi_config.device = QSPIHandle::Config::Device::IS25LP064A;
 121              		.loc 1 247 32 is_stmt 0 view .LVU33
 122 003e 0DF18808 		add	r8, sp, #136
 249:time_machine_hardware.cpp ****             qspi_config.pin_config.io0 = {DSY_GPIOF, 8};
 123              		.loc 1 249 40 view .LVU34
 124 0042 A64B     		ldr	r3, .L28+4
 247:time_machine_hardware.cpp ****             qspi_config.device = QSPIHandle::Config::Device::IS25LP064A;
 125              		.loc 1 247 32 view .LVU35
 126 0044 0121     		movs	r1, #1
 127              		.loc 1 249 40 view .LVU36
 128 0046 A64A     		ldr	r2, .L28+8
 129 0048 C8F80030 		str	r3, [r8]
 130 004c 03F17D43 		add	r3, r3, #-50331648
 247:time_machine_hardware.cpp ****             qspi_config.device = QSPIHandle::Config::Device::IS25LP064A;
 131              		.loc 1 247 32 view .LVU37
 132 0050 A8F80C10 		strh	r1, [r8, #12]	@ movhi
 133              		.loc 1 249 13 is_stmt 1 view .LVU38
 250:time_machine_hardware.cpp ****             qspi_config.pin_config.io1 = {DSY_GPIOF, 9};
 134              		.loc 1 250 13 view .LVU39
 251:time_machine_hardware.cpp ****             qspi_config.pin_config.io2 = {DSY_GPIOF, 7};
 135              		.loc 1 251 13 view .LVU40
 252:time_machine_hardware.cpp ****             qspi_config.pin_config.io3 = {DSY_GPIOF, 6};
 136              		.loc 1 252 13 view .LVU41
 253:time_machine_hardware.cpp ****             qspi_config.pin_config.clk = {DSY_GPIOF, 10};
 137              		.loc 1 253 13 view .LVU42
 254:time_machine_hardware.cpp ****             qspi_config.pin_config.ncs = {DSY_GPIOG, 6};
 138              		.loc 1 254 13 view .LVU43
 255:time_machine_hardware.cpp ****             qspi.Init(qspi_config);
 139              		.loc 1 255 22 is_stmt 0 view .LVU44
 140 0054 05F10C00 		add	r0, r5, #12
ARM GAS  /var/folders/v1/156fk8j97zv9pzndh61fy7zm0000gn/T//ccQgUds1.s 			page 9


 249:time_machine_hardware.cpp ****             qspi_config.pin_config.io1 = {DSY_GPIOF, 9};
 141              		.loc 1 249 40 view .LVU45
 142 0058 03F58133 		add	r3, r3, #66048
 143              		.loc 1 255 22 view .LVU46
 144 005c 4146     		mov	r1, r8
 249:time_machine_hardware.cpp ****             qspi_config.pin_config.io1 = {DSY_GPIOF, 9};
 145              		.loc 1 249 40 view .LVU47
 146 005e C8E90123 		strd	r2, r3, [r8, #4]
 147              		.loc 1 255 13 is_stmt 1 view .LVU48
 148              		.loc 1 255 22 is_stmt 0 view .LVU49
 149 0062 FFF7FEFF 		bl	_ZN5daisy10QSPIHandle4InitERKNS0_6ConfigE
 150              	.LVL7:
 151              	.L4:
 152              		.loc 1 255 22 view .LVU50
 153              	.LBE302:
 154              	.LBE301:
 256:time_machine_hardware.cpp ****         }
 257:time_machine_hardware.cpp ****         /** Audio */
 258:time_machine_hardware.cpp ****         // Audio Init
 259:time_machine_hardware.cpp ****         SaiHandle::Config sai_config;
 155              		.loc 1 259 9 is_stmt 1 view .LVU51
 260:time_machine_hardware.cpp ****         sai_config.periph          = SaiHandle::Config::Peripheral::SAI_1;
 156              		.loc 1 260 9 view .LVU52
 261:time_machine_hardware.cpp ****         sai_config.sr              = SaiHandle::Config::SampleRate::SAI_48KHZ;
 262:time_machine_hardware.cpp ****         sai_config.bit_depth       = SaiHandle::Config::BitDepth::SAI_24BIT;
 263:time_machine_hardware.cpp ****         sai_config.a_sync          = SaiHandle::Config::Sync::MASTER;
 264:time_machine_hardware.cpp ****         sai_config.b_sync          = SaiHandle::Config::Sync::SLAVE;
 265:time_machine_hardware.cpp ****         sai_config.a_dir           = SaiHandle::Config::Direction::RECEIVE;
 266:time_machine_hardware.cpp ****         sai_config.b_dir           = SaiHandle::Config::Direction::TRANSMIT;
 267:time_machine_hardware.cpp ****         sai_config.pin_config.fs   = {DSY_GPIOE, 4};
 268:time_machine_hardware.cpp ****         sai_config.pin_config.mclk = {DSY_GPIOE, 2};
 157              		.loc 1 268 36 is_stmt 0 view .LVU53
 158 0066 9F4B     		ldr	r3, .L28+12
 159              	.LBB303:
 160              	.LBB304:
 161              	.LBB305:
 162              		.file 3 "../temp_time_machine/DaisyExamples/libDaisy/src/per/sai.h"
   1:../temp_time_machine/DaisyExamples/libDaisy/src/per/sai.h **** #pragma once
   2:../temp_time_machine/DaisyExamples/libDaisy/src/per/sai.h **** #ifndef DSY_SAI_H
   3:../temp_time_machine/DaisyExamples/libDaisy/src/per/sai.h **** #define DSY_SAI_H
   4:../temp_time_machine/DaisyExamples/libDaisy/src/per/sai.h **** 
   5:../temp_time_machine/DaisyExamples/libDaisy/src/per/sai.h **** #include "daisy_core.h"
   6:../temp_time_machine/DaisyExamples/libDaisy/src/per/sai.h **** 
   7:../temp_time_machine/DaisyExamples/libDaisy/src/per/sai.h **** namespace daisy
   8:../temp_time_machine/DaisyExamples/libDaisy/src/per/sai.h **** {
   9:../temp_time_machine/DaisyExamples/libDaisy/src/per/sai.h **** /** 
  10:../temp_time_machine/DaisyExamples/libDaisy/src/per/sai.h ****  * Support for I2S Audio Protocol with different bit-depth, samplerate options
  11:../temp_time_machine/DaisyExamples/libDaisy/src/per/sai.h ****  * Allows for master or slave, as well as freedom of selecting direction, 
  12:../temp_time_machine/DaisyExamples/libDaisy/src/per/sai.h ****  * and other behavior for each peripheral, and block.
  13:../temp_time_machine/DaisyExamples/libDaisy/src/per/sai.h ****  * 
  14:../temp_time_machine/DaisyExamples/libDaisy/src/per/sai.h ****  * DMA Transfer commands must use buffers located within non-cached memory or use cache maintenance
  15:../temp_time_machine/DaisyExamples/libDaisy/src/per/sai.h ****  * To declare an unitialized global element in the DMA memory section:
  16:../temp_time_machine/DaisyExamples/libDaisy/src/per/sai.h ****  *    int32_t DSY_DMA_BUFFER_SECTOR my_buffer[96];
  17:../temp_time_machine/DaisyExamples/libDaisy/src/per/sai.h ****  *
  18:../temp_time_machine/DaisyExamples/libDaisy/src/per/sai.h ****  * Callback functions will be called once per half of the buffer. In the above example, 
  19:../temp_time_machine/DaisyExamples/libDaisy/src/per/sai.h ****  * the callback function would be called once for every 48 samples.
  20:../temp_time_machine/DaisyExamples/libDaisy/src/per/sai.h ****  * 
ARM GAS  /var/folders/v1/156fk8j97zv9pzndh61fy7zm0000gn/T//ccQgUds1.s 			page 10


  21:../temp_time_machine/DaisyExamples/libDaisy/src/per/sai.h ****  * Use SAI Handle like this:
  22:../temp_time_machine/DaisyExamples/libDaisy/src/per/sai.h ****  * 
  23:../temp_time_machine/DaisyExamples/libDaisy/src/per/sai.h ****  *  SaiHandle::Config sai_config;
  24:../temp_time_machine/DaisyExamples/libDaisy/src/per/sai.h ****  *  sai_config.periph          = SaiHandle::Config::Peripheral::SAI_1;
  25:../temp_time_machine/DaisyExamples/libDaisy/src/per/sai.h ****  *  sai_config.sr              = SaiHandle::Config::SampleRate::SAI_48KHZ;
  26:../temp_time_machine/DaisyExamples/libDaisy/src/per/sai.h ****  *  sai_config.bit_depth       = SaiHandle::Config::BitDepth::SAI_24BIT;
  27:../temp_time_machine/DaisyExamples/libDaisy/src/per/sai.h ****  *  sai_config.a_sync          = SaiHandle::Config::Sync::MASTER;
  28:../temp_time_machine/DaisyExamples/libDaisy/src/per/sai.h ****  *  sai_config.b_sync          = SaiHandle::Config::Sync::SLAVE;
  29:../temp_time_machine/DaisyExamples/libDaisy/src/per/sai.h ****  *  sai_config.a_dir           = SaiHandle::Config::Direction::RECEIVE;
  30:../temp_time_machine/DaisyExamples/libDaisy/src/per/sai.h ****  *  sai_config.b_dir           = SaiHandle::Config::Direction::TRANSMIT;
  31:../temp_time_machine/DaisyExamples/libDaisy/src/per/sai.h ****  *  sai_config.pin_config.fs   = {DSY_GPIOE, 4};
  32:../temp_time_machine/DaisyExamples/libDaisy/src/per/sai.h ****  *  sai_config.pin_config.mclk = {DSY_GPIOE, 2};
  33:../temp_time_machine/DaisyExamples/libDaisy/src/per/sai.h ****  *  sai_config.pin_config.sck  = {DSY_GPIOE, 5};
  34:../temp_time_machine/DaisyExamples/libDaisy/src/per/sai.h ****  *  sai_config.pin_config.sa   = {DSY_GPIOE, 6};
  35:../temp_time_machine/DaisyExamples/libDaisy/src/per/sai.h ****  *  sai_config.pin_config.sb   = {DSY_GPIOE, 3};
  36:../temp_time_machine/DaisyExamples/libDaisy/src/per/sai.h ****  *  // Then Initialize
  37:../temp_time_machine/DaisyExamples/libDaisy/src/per/sai.h ****  *  SaiHandle sai;
  38:../temp_time_machine/DaisyExamples/libDaisy/src/per/sai.h ****  *  sai.Init(sai_config);
  39:../temp_time_machine/DaisyExamples/libDaisy/src/per/sai.h ****  *  // Now you can use it:
  40:../temp_time_machine/DaisyExamples/libDaisy/src/per/sai.h ****  *  sai.StartDma(. . .);
  41:../temp_time_machine/DaisyExamples/libDaisy/src/per/sai.h ****  */
  42:../temp_time_machine/DaisyExamples/libDaisy/src/per/sai.h **** class SaiHandle
  43:../temp_time_machine/DaisyExamples/libDaisy/src/per/sai.h **** {
  44:../temp_time_machine/DaisyExamples/libDaisy/src/per/sai.h ****   public:
  45:../temp_time_machine/DaisyExamples/libDaisy/src/per/sai.h ****     /** Contains settings for initialising an SAI Interface */
  46:../temp_time_machine/DaisyExamples/libDaisy/src/per/sai.h ****     struct Config
  47:../temp_time_machine/DaisyExamples/libDaisy/src/per/sai.h ****     {
  48:../temp_time_machine/DaisyExamples/libDaisy/src/per/sai.h ****         /** Specifies the internal peripheral to use (mapped to different hardware pins) */
  49:../temp_time_machine/DaisyExamples/libDaisy/src/per/sai.h ****         enum class Peripheral
  50:../temp_time_machine/DaisyExamples/libDaisy/src/per/sai.h ****         {
  51:../temp_time_machine/DaisyExamples/libDaisy/src/per/sai.h ****             SAI_1,
  52:../temp_time_machine/DaisyExamples/libDaisy/src/per/sai.h ****             SAI_2,
  53:../temp_time_machine/DaisyExamples/libDaisy/src/per/sai.h ****         };
  54:../temp_time_machine/DaisyExamples/libDaisy/src/per/sai.h **** 
  55:../temp_time_machine/DaisyExamples/libDaisy/src/per/sai.h ****         /** Rate at which samples will be streaming to/from the device. */
  56:../temp_time_machine/DaisyExamples/libDaisy/src/per/sai.h ****         enum class SampleRate
  57:../temp_time_machine/DaisyExamples/libDaisy/src/per/sai.h ****         {
  58:../temp_time_machine/DaisyExamples/libDaisy/src/per/sai.h ****             SAI_8KHZ,
  59:../temp_time_machine/DaisyExamples/libDaisy/src/per/sai.h ****             SAI_16KHZ,
  60:../temp_time_machine/DaisyExamples/libDaisy/src/per/sai.h ****             SAI_32KHZ,
  61:../temp_time_machine/DaisyExamples/libDaisy/src/per/sai.h ****             SAI_48KHZ,
  62:../temp_time_machine/DaisyExamples/libDaisy/src/per/sai.h ****             SAI_96KHZ,
  63:../temp_time_machine/DaisyExamples/libDaisy/src/per/sai.h ****         };
  64:../temp_time_machine/DaisyExamples/libDaisy/src/per/sai.h **** 
  65:../temp_time_machine/DaisyExamples/libDaisy/src/per/sai.h ****         /** Bit Depth that the hardware expects to be transferred to/from the device. */
  66:../temp_time_machine/DaisyExamples/libDaisy/src/per/sai.h ****         enum class BitDepth
  67:../temp_time_machine/DaisyExamples/libDaisy/src/per/sai.h ****         {
  68:../temp_time_machine/DaisyExamples/libDaisy/src/per/sai.h ****             SAI_16BIT,
  69:../temp_time_machine/DaisyExamples/libDaisy/src/per/sai.h ****             SAI_24BIT,
  70:../temp_time_machine/DaisyExamples/libDaisy/src/per/sai.h ****             SAI_32BIT,
  71:../temp_time_machine/DaisyExamples/libDaisy/src/per/sai.h ****         };
  72:../temp_time_machine/DaisyExamples/libDaisy/src/per/sai.h **** 
  73:../temp_time_machine/DaisyExamples/libDaisy/src/per/sai.h ****         /** Specifies whether a particular block is the master or the slave 
  74:../temp_time_machine/DaisyExamples/libDaisy/src/per/sai.h ****          ** If both are set to slave, no MCLK signal will be used, and it is
  75:../temp_time_machine/DaisyExamples/libDaisy/src/per/sai.h ****          ** expected that the codec will have its own xtal.
  76:../temp_time_machine/DaisyExamples/libDaisy/src/per/sai.h ****          */
  77:../temp_time_machine/DaisyExamples/libDaisy/src/per/sai.h ****         enum class Sync
ARM GAS  /var/folders/v1/156fk8j97zv9pzndh61fy7zm0000gn/T//ccQgUds1.s 			page 11


  78:../temp_time_machine/DaisyExamples/libDaisy/src/per/sai.h ****         {
  79:../temp_time_machine/DaisyExamples/libDaisy/src/per/sai.h ****             MASTER,
  80:../temp_time_machine/DaisyExamples/libDaisy/src/per/sai.h ****             SLAVE,
  81:../temp_time_machine/DaisyExamples/libDaisy/src/per/sai.h ****         };
  82:../temp_time_machine/DaisyExamples/libDaisy/src/per/sai.h **** 
  83:../temp_time_machine/DaisyExamples/libDaisy/src/per/sai.h ****         /** Specifies the direction for each peripheral block. */
  84:../temp_time_machine/DaisyExamples/libDaisy/src/per/sai.h ****         enum class Direction
  85:../temp_time_machine/DaisyExamples/libDaisy/src/per/sai.h ****         {
  86:../temp_time_machine/DaisyExamples/libDaisy/src/per/sai.h ****             TRANSMIT,
  87:../temp_time_machine/DaisyExamples/libDaisy/src/per/sai.h ****             RECEIVE,
  88:../temp_time_machine/DaisyExamples/libDaisy/src/per/sai.h ****         };
  89:../temp_time_machine/DaisyExamples/libDaisy/src/per/sai.h **** 
  90:../temp_time_machine/DaisyExamples/libDaisy/src/per/sai.h ****         Peripheral periph;
  91:../temp_time_machine/DaisyExamples/libDaisy/src/per/sai.h ****         struct
  92:../temp_time_machine/DaisyExamples/libDaisy/src/per/sai.h ****         {
  93:../temp_time_machine/DaisyExamples/libDaisy/src/per/sai.h ****             dsy_gpio_pin mclk, fs, sck, sa, sb;
  94:../temp_time_machine/DaisyExamples/libDaisy/src/per/sai.h ****         } pin_config;
  95:../temp_time_machine/DaisyExamples/libDaisy/src/per/sai.h ****         SampleRate sr;
  96:../temp_time_machine/DaisyExamples/libDaisy/src/per/sai.h ****         BitDepth   bit_depth;
  97:../temp_time_machine/DaisyExamples/libDaisy/src/per/sai.h ****         Sync       a_sync, b_sync;
  98:../temp_time_machine/DaisyExamples/libDaisy/src/per/sai.h ****         Direction  a_dir, b_dir;
  99:../temp_time_machine/DaisyExamples/libDaisy/src/per/sai.h ****     };
 100:../temp_time_machine/DaisyExamples/libDaisy/src/per/sai.h **** 
 101:../temp_time_machine/DaisyExamples/libDaisy/src/per/sai.h ****     /** Return values for SAI functions */
 102:../temp_time_machine/DaisyExamples/libDaisy/src/per/sai.h ****     enum class Result
 103:../temp_time_machine/DaisyExamples/libDaisy/src/per/sai.h ****     {
 104:../temp_time_machine/DaisyExamples/libDaisy/src/per/sai.h ****         OK,
 105:../temp_time_machine/DaisyExamples/libDaisy/src/per/sai.h ****         ERR,
 106:../temp_time_machine/DaisyExamples/libDaisy/src/per/sai.h ****     };
 107:../temp_time_machine/DaisyExamples/libDaisy/src/per/sai.h **** 
 108:../temp_time_machine/DaisyExamples/libDaisy/src/per/sai.h ****     SaiHandle() : pimpl_(nullptr) {}
 163              		.loc 3 108 19 view .LVU54
 164 0068 05AF     		add	r7, sp, #20
 165              	.LBE305:
 166              	.LBE304:
 167              	.LBE303:
 260:time_machine_hardware.cpp ****         sai_config.sr              = SaiHandle::Config::SampleRate::SAI_48KHZ;
 168              		.loc 1 260 36 view .LVU55
 169 006a 0024     		movs	r4, #0
 262:time_machine_hardware.cpp ****         sai_config.a_sync          = SaiHandle::Config::Sync::MASTER;
 170              		.loc 1 262 36 view .LVU56
 171 006c 0126     		movs	r6, #1
 172              		.loc 1 268 36 view .LVU57
 173 006e 1993     		str	r3, [sp, #100]
 174 0070 03F10073 		add	r3, r3, #33554432
 261:time_machine_hardware.cpp ****         sai_config.bit_depth       = SaiHandle::Config::BitDepth::SAI_24BIT;
 175              		.loc 1 261 36 view .LVU58
 176 0074 4FF00309 		mov	r9, #3
 269:time_machine_hardware.cpp ****         sai_config.pin_config.sck  = {DSY_GPIOE, 5};
 270:time_machine_hardware.cpp ****         sai_config.pin_config.sa   = {DSY_GPIOE, 6};
 271:time_machine_hardware.cpp ****         sai_config.pin_config.sb   = {DSY_GPIOE, 3};
 272:time_machine_hardware.cpp ****         SaiHandle sai_1_handle;
 273:time_machine_hardware.cpp ****         sai_1_handle.Init(sai_config);
 177              		.loc 1 273 26 view .LVU59
 178 0078 18A9     		add	r1, sp, #96
 268:time_machine_hardware.cpp ****         sai_config.pin_config.sck  = {DSY_GPIOE, 5};
 179              		.loc 1 268 36 view .LVU60
ARM GAS  /var/folders/v1/156fk8j97zv9pzndh61fy7zm0000gn/T//ccQgUds1.s 			page 12


 180 007a 03F54073 		add	r3, r3, #768
 181              		.loc 1 273 26 view .LVU61
 182 007e 3846     		mov	r0, r7
 261:time_machine_hardware.cpp ****         sai_config.bit_depth       = SaiHandle::Config::BitDepth::SAI_24BIT;
 183              		.loc 1 261 36 view .LVU62
 184 0080 CDF87090 		str	r9, [sp, #112]
 268:time_machine_hardware.cpp ****         sai_config.pin_config.sck  = {DSY_GPIOE, 5};
 185              		.loc 1 268 36 view .LVU63
 186 0084 1A93     		str	r3, [sp, #104]
 271:time_machine_hardware.cpp ****         SaiHandle sai_1_handle;
 187              		.loc 1 271 36 view .LVU64
 188 0086 4FF44173 		mov	r3, #772
 262:time_machine_hardware.cpp ****         sai_config.a_sync          = SaiHandle::Config::Sync::MASTER;
 189              		.loc 1 262 36 view .LVU65
 190 008a 1D96     		str	r6, [sp, #116]
 271:time_machine_hardware.cpp ****         SaiHandle sai_1_handle;
 191              		.loc 1 271 36 view .LVU66
 192 008c ADF86C30 		strh	r3, [sp, #108]	@ movhi
 260:time_machine_hardware.cpp ****         sai_config.sr              = SaiHandle::Config::SampleRate::SAI_48KHZ;
 193              		.loc 1 260 36 view .LVU67
 194 0090 1894     		str	r4, [sp, #96]
 261:time_machine_hardware.cpp ****         sai_config.bit_depth       = SaiHandle::Config::BitDepth::SAI_24BIT;
 195              		.loc 1 261 9 is_stmt 1 view .LVU68
 262:time_machine_hardware.cpp ****         sai_config.a_sync          = SaiHandle::Config::Sync::MASTER;
 196              		.loc 1 262 9 view .LVU69
 263:time_machine_hardware.cpp ****         sai_config.b_sync          = SaiHandle::Config::Sync::SLAVE;
 197              		.loc 1 263 9 view .LVU70
 264:time_machine_hardware.cpp ****         sai_config.a_dir           = SaiHandle::Config::Direction::RECEIVE;
 198              		.loc 1 264 9 view .LVU71
 263:time_machine_hardware.cpp ****         sai_config.b_sync          = SaiHandle::Config::Sync::SLAVE;
 199              		.loc 1 263 36 is_stmt 0 view .LVU72
 200 0092 1E94     		str	r4, [sp, #120]
 266:time_machine_hardware.cpp ****         sai_config.pin_config.fs   = {DSY_GPIOE, 4};
 201              		.loc 1 266 36 view .LVU73
 202 0094 2194     		str	r4, [sp, #132]
 203              	.LBB308:
 204              	.LBB307:
 205              	.LBB306:
 206              		.loc 3 108 19 view .LVU74
 207 0096 0594     		str	r4, [sp, #20]
 208              	.LBE306:
 209              	.LBE307:
 210              	.LBE308:
 265:time_machine_hardware.cpp ****         sai_config.b_dir           = SaiHandle::Config::Direction::TRANSMIT;
 211              		.loc 1 265 36 view .LVU75
 212 0098 CDE91F66 		strd	r6, r6, [sp, #124]
 266:time_machine_hardware.cpp ****         sai_config.pin_config.fs   = {DSY_GPIOE, 4};
 213              		.loc 1 266 9 is_stmt 1 view .LVU76
 267:time_machine_hardware.cpp ****         sai_config.pin_config.mclk = {DSY_GPIOE, 2};
 214              		.loc 1 267 9 view .LVU77
 268:time_machine_hardware.cpp ****         sai_config.pin_config.sck  = {DSY_GPIOE, 5};
 215              		.loc 1 268 9 view .LVU78
 269:time_machine_hardware.cpp ****         sai_config.pin_config.sa   = {DSY_GPIOE, 6};
 216              		.loc 1 269 9 view .LVU79
 270:time_machine_hardware.cpp ****         sai_config.pin_config.sb   = {DSY_GPIOE, 3};
 217              		.loc 1 270 9 view .LVU80
 271:time_machine_hardware.cpp ****         SaiHandle sai_1_handle;
ARM GAS  /var/folders/v1/156fk8j97zv9pzndh61fy7zm0000gn/T//ccQgUds1.s 			page 13


 218              		.loc 1 271 9 view .LVU81
 272:time_machine_hardware.cpp ****         sai_1_handle.Init(sai_config);
 219              		.loc 1 272 9 view .LVU82
 220              	.LVL8:
 221              	.LBB309:
 222              	.LBI303:
 223              		.loc 3 108 5 view .LVU83
 224              		.loc 3 108 5 is_stmt 0 view .LVU84
 225              	.LBE309:
 226              		.loc 1 273 9 is_stmt 1 view .LVU85
 227              		.loc 1 273 26 is_stmt 0 view .LVU86
 228 009c FFF7FEFF 		bl	_ZN5daisy9SaiHandle4InitERKNS0_6ConfigE
 229              	.LVL9:
 274:time_machine_hardware.cpp **** 
 275:time_machine_hardware.cpp ****         I2CHandle::Config i2c_cfg;
 230              		.loc 1 275 9 is_stmt 1 view .LVU87
 231              	.LBB310:
 232              	.LBI310:
 233              		.file 4 "../temp_time_machine/DaisyExamples/libDaisy/src/per/i2c.h"
   1:../temp_time_machine/DaisyExamples/libDaisy/src/per/i2c.h **** #pragma once
   2:../temp_time_machine/DaisyExamples/libDaisy/src/per/i2c.h **** #include "daisy_core.h"
   3:../temp_time_machine/DaisyExamples/libDaisy/src/per/i2c.h **** 
   4:../temp_time_machine/DaisyExamples/libDaisy/src/per/i2c.h **** namespace daisy
   5:../temp_time_machine/DaisyExamples/libDaisy/src/per/i2c.h **** {
   6:../temp_time_machine/DaisyExamples/libDaisy/src/per/i2c.h **** /** A handle for interacting with an I2C peripheral. This is a dumb
   7:../temp_time_machine/DaisyExamples/libDaisy/src/per/i2c.h ****  *  gateway that internally points to one of the four I2C peripherals
   8:../temp_time_machine/DaisyExamples/libDaisy/src/per/i2c.h ****  *  after it was initialised. It can then be copied and passed around.
   9:../temp_time_machine/DaisyExamples/libDaisy/src/per/i2c.h ****  *  Use an I2CHandle like this:
  10:../temp_time_machine/DaisyExamples/libDaisy/src/per/i2c.h ****  *  
  11:../temp_time_machine/DaisyExamples/libDaisy/src/per/i2c.h ****  *      // setup the configuration
  12:../temp_time_machine/DaisyExamples/libDaisy/src/per/i2c.h ****  *      I2CHandle::Config i2c_conf;
  13:../temp_time_machine/DaisyExamples/libDaisy/src/per/i2c.h ****  *      i2c_conf.periph = I2CHandle::Config::Peripheral::I2C_1;
  14:../temp_time_machine/DaisyExamples/libDaisy/src/per/i2c.h ****  *      i2c_conf.speed  = I2CHandle::Config::Speed::I2C_400KHZ;
  15:../temp_time_machine/DaisyExamples/libDaisy/src/per/i2c.h ****  *      i2c_conf.mode   = I2CHandle::Config::Mode::Master;
  16:../temp_time_machine/DaisyExamples/libDaisy/src/per/i2c.h ****  *      i2c_conf.pin_config.scl  = {DSY_GPIOB, 8};
  17:../temp_time_machine/DaisyExamples/libDaisy/src/per/i2c.h ****  *      i2c_conf.pin_config.sda  = {DSY_GPIOB, 9};
  18:../temp_time_machine/DaisyExamples/libDaisy/src/per/i2c.h ****  *      // initialise the peripheral
  19:../temp_time_machine/DaisyExamples/libDaisy/src/per/i2c.h ****  *      I2CHandle i2c;
  20:../temp_time_machine/DaisyExamples/libDaisy/src/per/i2c.h ****  *      i2c.Init(i2c_conf);
  21:../temp_time_machine/DaisyExamples/libDaisy/src/per/i2c.h ****  *      // now i2c points to the corresponding peripheral and can be used.
  22:../temp_time_machine/DaisyExamples/libDaisy/src/per/i2c.h ****  *      i2c.TransmitBlocking( ... );
  23:../temp_time_machine/DaisyExamples/libDaisy/src/per/i2c.h ****  */
  24:../temp_time_machine/DaisyExamples/libDaisy/src/per/i2c.h **** class I2CHandle
  25:../temp_time_machine/DaisyExamples/libDaisy/src/per/i2c.h **** {
  26:../temp_time_machine/DaisyExamples/libDaisy/src/per/i2c.h ****   public:
  27:../temp_time_machine/DaisyExamples/libDaisy/src/per/i2c.h ****     /** Contains settings for initialising an I2C interface. */
  28:../temp_time_machine/DaisyExamples/libDaisy/src/per/i2c.h ****     struct Config
 234              		.loc 4 28 12 view .LVU88
 235              	.LBB311:
 236 00a0 1023     		movs	r3, #16
 237              	.LBE311:
 238              	.LBE310:
 276:time_machine_hardware.cpp ****         i2c_cfg.periph         = I2CHandle::Config::Peripheral::I2C_2;
 239              		.loc 1 276 32 is_stmt 0 view .LVU89
 240 00a2 0D96     		str	r6, [sp, #52]
 277:time_machine_hardware.cpp ****         i2c_cfg.mode           = I2CHandle::Config::Mode::I2C_MASTER;
 278:time_machine_hardware.cpp ****         i2c_cfg.speed          = I2CHandle::Config::Speed::I2C_400KHZ;
ARM GAS  /var/folders/v1/156fk8j97zv9pzndh61fy7zm0000gn/T//ccQgUds1.s 			page 14


 279:time_machine_hardware.cpp ****         i2c_cfg.pin_config.scl = {DSY_GPIOB, 10};
 280:time_machine_hardware.cpp ****         i2c_cfg.pin_config.sda = {DSY_GPIOB, 11};
 281:time_machine_hardware.cpp ****         I2CHandle i2c2;
 282:time_machine_hardware.cpp ****         i2c2.Init(i2c_cfg);
 241              		.loc 1 282 18 view .LVU90
 242 00a4 0DA9     		add	r1, sp, #52
 243              	.LVL10:
 244              	.LBB313:
 245              	.LBB312:
 246              		.loc 4 28 12 view .LVU91
 247 00a6 8DF84430 		strb	r3, [sp, #68]
 248              	.LVL11:
 249              		.loc 4 28 12 view .LVU92
 250              	.LBE312:
 251              	.LBE313:
 276:time_machine_hardware.cpp ****         i2c_cfg.periph         = I2CHandle::Config::Peripheral::I2C_2;
 252              		.loc 1 276 9 is_stmt 1 view .LVU93
 277:time_machine_hardware.cpp ****         i2c_cfg.mode           = I2CHandle::Config::Mode::I2C_MASTER;
 253              		.loc 1 277 9 view .LVU94
 278:time_machine_hardware.cpp ****         i2c_cfg.pin_config.scl = {DSY_GPIOB, 10};
 254              		.loc 1 278 9 view .LVU95
 279:time_machine_hardware.cpp ****         i2c_cfg.pin_config.sda = {DSY_GPIOB, 11};
 255              		.loc 1 279 9 view .LVU96
 280:time_machine_hardware.cpp ****         I2CHandle i2c2;
 256              		.loc 1 280 9 view .LVU97
 279:time_machine_hardware.cpp ****         i2c_cfg.pin_config.sda = {DSY_GPIOB, 11};
 257              		.loc 1 279 32 is_stmt 0 view .LVU98
 258 00aa 8F4B     		ldr	r3, .L28+16
 259              	.LBB314:
 260              	.LBB315:
 261              	.LBB316:
  29:../temp_time_machine/DaisyExamples/libDaisy/src/per/i2c.h ****     {
  30:../temp_time_machine/DaisyExamples/libDaisy/src/per/i2c.h ****         /** Specifies whether the interface will operate in master or slave mode. */
  31:../temp_time_machine/DaisyExamples/libDaisy/src/per/i2c.h ****         enum class Mode
  32:../temp_time_machine/DaisyExamples/libDaisy/src/per/i2c.h ****         {
  33:../temp_time_machine/DaisyExamples/libDaisy/src/per/i2c.h ****             I2C_MASTER,
  34:../temp_time_machine/DaisyExamples/libDaisy/src/per/i2c.h ****             I2C_SLAVE,
  35:../temp_time_machine/DaisyExamples/libDaisy/src/per/i2c.h ****         };
  36:../temp_time_machine/DaisyExamples/libDaisy/src/per/i2c.h **** 
  37:../temp_time_machine/DaisyExamples/libDaisy/src/per/i2c.h ****         /** Specifices the internal peripheral to use (these are mapped to different pins on the ha
  38:../temp_time_machine/DaisyExamples/libDaisy/src/per/i2c.h ****         enum class Peripheral
  39:../temp_time_machine/DaisyExamples/libDaisy/src/per/i2c.h ****         {
  40:../temp_time_machine/DaisyExamples/libDaisy/src/per/i2c.h ****             I2C_1 = 0, /**< & */
  41:../temp_time_machine/DaisyExamples/libDaisy/src/per/i2c.h ****             I2C_2,     /**< & */
  42:../temp_time_machine/DaisyExamples/libDaisy/src/per/i2c.h ****             I2C_3,     /**< & */
  43:../temp_time_machine/DaisyExamples/libDaisy/src/per/i2c.h ****             I2C_4,     /**< & */
  44:../temp_time_machine/DaisyExamples/libDaisy/src/per/i2c.h ****         };
  45:../temp_time_machine/DaisyExamples/libDaisy/src/per/i2c.h **** 
  46:../temp_time_machine/DaisyExamples/libDaisy/src/per/i2c.h ****         /** Rate at which the clock/data will be sent/received. The device being used will have max
  47:../temp_time_machine/DaisyExamples/libDaisy/src/per/i2c.h ****          *  1MHZ Mode is currently 886kHz
  48:../temp_time_machine/DaisyExamples/libDaisy/src/per/i2c.h ****          */
  49:../temp_time_machine/DaisyExamples/libDaisy/src/per/i2c.h ****         enum class Speed
  50:../temp_time_machine/DaisyExamples/libDaisy/src/per/i2c.h ****         {
  51:../temp_time_machine/DaisyExamples/libDaisy/src/per/i2c.h ****             I2C_100KHZ, /**< & */
  52:../temp_time_machine/DaisyExamples/libDaisy/src/per/i2c.h ****             I2C_400KHZ, /**< & */
  53:../temp_time_machine/DaisyExamples/libDaisy/src/per/i2c.h ****             I2C_1MHZ,   /**< & */
  54:../temp_time_machine/DaisyExamples/libDaisy/src/per/i2c.h ****         };
ARM GAS  /var/folders/v1/156fk8j97zv9pzndh61fy7zm0000gn/T//ccQgUds1.s 			page 15


  55:../temp_time_machine/DaisyExamples/libDaisy/src/per/i2c.h **** 
  56:../temp_time_machine/DaisyExamples/libDaisy/src/per/i2c.h ****         Peripheral periph; /**< & */
  57:../temp_time_machine/DaisyExamples/libDaisy/src/per/i2c.h ****         struct
  58:../temp_time_machine/DaisyExamples/libDaisy/src/per/i2c.h ****         {
  59:../temp_time_machine/DaisyExamples/libDaisy/src/per/i2c.h ****             dsy_gpio_pin scl; /**< & */
  60:../temp_time_machine/DaisyExamples/libDaisy/src/per/i2c.h ****             dsy_gpio_pin sda; /**< & */
  61:../temp_time_machine/DaisyExamples/libDaisy/src/per/i2c.h ****         } pin_config;         /**< & */
  62:../temp_time_machine/DaisyExamples/libDaisy/src/per/i2c.h **** 
  63:../temp_time_machine/DaisyExamples/libDaisy/src/per/i2c.h ****         Speed speed; /**< & */
  64:../temp_time_machine/DaisyExamples/libDaisy/src/per/i2c.h ****         Mode  mode;  /**< & */
  65:../temp_time_machine/DaisyExamples/libDaisy/src/per/i2c.h ****         // 0x10 is chosen as a default to avoid conflicts with reserved addresses
  66:../temp_time_machine/DaisyExamples/libDaisy/src/per/i2c.h ****         uint8_t address = 0x10; /**< & */
  67:../temp_time_machine/DaisyExamples/libDaisy/src/per/i2c.h ****     };
  68:../temp_time_machine/DaisyExamples/libDaisy/src/per/i2c.h **** 
  69:../temp_time_machine/DaisyExamples/libDaisy/src/per/i2c.h ****     /** Return values for I2C functions. */
  70:../temp_time_machine/DaisyExamples/libDaisy/src/per/i2c.h ****     enum class Result
  71:../temp_time_machine/DaisyExamples/libDaisy/src/per/i2c.h ****     {
  72:../temp_time_machine/DaisyExamples/libDaisy/src/per/i2c.h ****         OK, /**< & */
  73:../temp_time_machine/DaisyExamples/libDaisy/src/per/i2c.h ****         ERR /**< & */
  74:../temp_time_machine/DaisyExamples/libDaisy/src/per/i2c.h ****     };
  75:../temp_time_machine/DaisyExamples/libDaisy/src/per/i2c.h **** 
  76:../temp_time_machine/DaisyExamples/libDaisy/src/per/i2c.h ****     enum class Direction
  77:../temp_time_machine/DaisyExamples/libDaisy/src/per/i2c.h ****     {
  78:../temp_time_machine/DaisyExamples/libDaisy/src/per/i2c.h ****         TRANSMIT, /**< & */
  79:../temp_time_machine/DaisyExamples/libDaisy/src/per/i2c.h ****         RECEIVE,  /**< & */
  80:../temp_time_machine/DaisyExamples/libDaisy/src/per/i2c.h ****     };
  81:../temp_time_machine/DaisyExamples/libDaisy/src/per/i2c.h **** 
  82:../temp_time_machine/DaisyExamples/libDaisy/src/per/i2c.h ****     I2CHandle() : pimpl_(nullptr) {}
 262              		.loc 4 82 19 view .LVU99
 263 00ac 0694     		str	r4, [sp, #24]
 264              	.LBE316:
 265              	.LBE315:
 266              	.LBE314:
 279:time_machine_hardware.cpp ****         i2c_cfg.pin_config.sda = {DSY_GPIOB, 11};
 267              		.loc 1 279 32 view .LVU100
 268 00ae 0E93     		str	r3, [sp, #56]
 281:time_machine_hardware.cpp ****         i2c2.Init(i2c_cfg);
 269              		.loc 1 281 9 is_stmt 1 view .LVU101
 270              	.LVL12:
 271              	.LBB319:
 272              	.LBI314:
 273              		.loc 4 82 5 view .LVU102
 274              		.loc 4 82 5 is_stmt 0 view .LVU103
 275              	.LBE319:
 276              		.loc 1 282 9 is_stmt 1 view .LVU104
 277:time_machine_hardware.cpp ****         i2c_cfg.speed          = I2CHandle::Config::Speed::I2C_400KHZ;
 277              		.loc 1 277 32 is_stmt 0 view .LVU105
 278 00b0 CDE90F64 		strd	r6, r4, [sp, #60]
 279              	.LBB320:
 280              	.LBB318:
 281              	.LBB317:
 282              		.loc 4 82 19 view .LVU106
 283 00b4 06AE     		add	r6, sp, #24
 284              	.LBE317:
 285              	.LBE318:
 286              	.LBE320:
 287              		.loc 1 282 18 view .LVU107
ARM GAS  /var/folders/v1/156fk8j97zv9pzndh61fy7zm0000gn/T//ccQgUds1.s 			page 16


 288 00b6 3046     		mov	r0, r6
 283:time_machine_hardware.cpp ****         codec.Init(i2c2);
 284:time_machine_hardware.cpp **** 
 285:time_machine_hardware.cpp ****         /*
 286:time_machine_hardware.cpp ****         dsy_gpio scl;
 287:time_machine_hardware.cpp ****         scl.mode = DSY_GPIO_MODE_OUTPUT_PP;
 288:time_machine_hardware.cpp ****         scl.pull = DSY_GPIO_PULLUP;
 289:time_machine_hardware.cpp ****         scl.pin  = {DSY_GPIOB, 10};
 290:time_machine_hardware.cpp ****         dsy_gpio_init(&scl);
 291:time_machine_hardware.cpp **** 
 292:time_machine_hardware.cpp ****         dsy_gpio sda;
 293:time_machine_hardware.cpp ****         sda.mode = DSY_GPIO_MODE_OUTPUT_PP;
 294:time_machine_hardware.cpp ****         sda.pull = DSY_GPIO_PULLUP;
 295:time_machine_hardware.cpp ****         sda.pin  = {DSY_GPIOB, 11};
 296:time_machine_hardware.cpp ****         dsy_gpio_init(&sda);
 297:time_machine_hardware.cpp ****         */
 298:time_machine_hardware.cpp **** 
 299:time_machine_hardware.cpp ****         AudioHandle::Config audio_config;
 300:time_machine_hardware.cpp ****         audio_config.blocksize  = 48;
 301:time_machine_hardware.cpp ****         audio_config.samplerate = SaiHandle::Config::SampleRate::SAI_48KHZ;
 302:time_machine_hardware.cpp ****         audio_config.postgain   = 1.f;
 303:time_machine_hardware.cpp ****         audio.Init(audio_config, sai_1_handle);
 289              		.loc 1 303 19 view .LVU108
 290 00b8 05F11006 		add	r6, r5, #16
 282:time_machine_hardware.cpp ****         codec.Init(i2c2);
 291              		.loc 1 282 18 view .LVU109
 292 00bc FFF7FEFF 		bl	_ZN5daisy9I2CHandle4InitERKNS0_6ConfigE
 293              	.LVL13:
 283:time_machine_hardware.cpp ****         codec.Init(i2c2);
 294              		.loc 1 283 9 is_stmt 1 view .LVU110
 283:time_machine_hardware.cpp ****         codec.Init(i2c2);
 295              		.loc 1 283 19 is_stmt 0 view .LVU111
 296 00c0 0699     		ldr	r1, [sp, #24]
 297 00c2 05F12000 		add	r0, r5, #32
 298 00c6 FFF7FEFF 		bl	_ZN5daisy7Pcm30604InitENS_9I2CHandleE
 299              	.LVL14:
 299:time_machine_hardware.cpp ****         audio_config.blocksize  = 48;
 300              		.loc 1 299 9 is_stmt 1 view .LVU112
 301              	.LBB321:
 302              	.LBI321:
 303              		.file 5 "../temp_time_machine/DaisyExamples/libDaisy/src/hid/audio.h"
   1:../temp_time_machine/DaisyExamples/libDaisy/src/hid/audio.h **** #ifndef DSY_AUDIO_H
   2:../temp_time_machine/DaisyExamples/libDaisy/src/hid/audio.h **** #define DSY_AUDIO_H /**< & */
   3:../temp_time_machine/DaisyExamples/libDaisy/src/hid/audio.h **** 
   4:../temp_time_machine/DaisyExamples/libDaisy/src/hid/audio.h **** #include "per/sai.h"
   5:../temp_time_machine/DaisyExamples/libDaisy/src/hid/audio.h **** 
   6:../temp_time_machine/DaisyExamples/libDaisy/src/hid/audio.h **** namespace daisy
   7:../temp_time_machine/DaisyExamples/libDaisy/src/hid/audio.h **** {
   8:../temp_time_machine/DaisyExamples/libDaisy/src/hid/audio.h **** /** @brief Audio Engine Handle
   9:../temp_time_machine/DaisyExamples/libDaisy/src/hid/audio.h ****  *  @ingroup audio 
  10:../temp_time_machine/DaisyExamples/libDaisy/src/hid/audio.h ****  *  @details This class allows for higher level access to an audio engine.
  11:../temp_time_machine/DaisyExamples/libDaisy/src/hid/audio.h ****  *           If you're using a SOM like the DaisySeed or DaisyPatchSM (or any 
  12:../temp_time_machine/DaisyExamples/libDaisy/src/hid/audio.h ****  *            board that includes one of those objects) then the intialization
  13:../temp_time_machine/DaisyExamples/libDaisy/src/hid/audio.h ****  *            is already taken  care of.
  14:../temp_time_machine/DaisyExamples/libDaisy/src/hid/audio.h ****  *           If you're setting up your own custom hardware, or need to make changes
  15:../temp_time_machine/DaisyExamples/libDaisy/src/hid/audio.h ****  *           you will have to take the following steps:
  16:../temp_time_machine/DaisyExamples/libDaisy/src/hid/audio.h ****  *             1. Create and Initialize an SaiHandle or two depending on your requirements
ARM GAS  /var/folders/v1/156fk8j97zv9pzndh61fy7zm0000gn/T//ccQgUds1.s 			page 17


  17:../temp_time_machine/DaisyExamples/libDaisy/src/hid/audio.h ****  *             2. Initialize the Audio Handle with the desired settings and the Initialized SaiHand
  18:../temp_time_machine/DaisyExamples/libDaisy/src/hid/audio.h ****  *             3. If the connected codec requires special configuration or initialization, do so
  19:../temp_time_machine/DaisyExamples/libDaisy/src/hid/audio.h ****  *             4. Write a callback method using either the AudioCallback or the InterleavingAudioCa
  20:../temp_time_machine/DaisyExamples/libDaisy/src/hid/audio.h ****  *             5. Start the Audio using one of the StartAudio function
  21:../temp_time_machine/DaisyExamples/libDaisy/src/hid/audio.h ****  */
  22:../temp_time_machine/DaisyExamples/libDaisy/src/hid/audio.h **** class AudioHandle
  23:../temp_time_machine/DaisyExamples/libDaisy/src/hid/audio.h **** {
  24:../temp_time_machine/DaisyExamples/libDaisy/src/hid/audio.h ****   public:
  25:../temp_time_machine/DaisyExamples/libDaisy/src/hid/audio.h ****     /** Manually configurable details about the Audio Engine */
  26:../temp_time_machine/DaisyExamples/libDaisy/src/hid/audio.h ****     /** TODO: Figure out how to get samplerate in here. */
  27:../temp_time_machine/DaisyExamples/libDaisy/src/hid/audio.h ****     struct Config
  28:../temp_time_machine/DaisyExamples/libDaisy/src/hid/audio.h ****     {
  29:../temp_time_machine/DaisyExamples/libDaisy/src/hid/audio.h ****         /** number of samples to process per callback */
  30:../temp_time_machine/DaisyExamples/libDaisy/src/hid/audio.h ****         size_t blocksize;
  31:../temp_time_machine/DaisyExamples/libDaisy/src/hid/audio.h **** 
  32:../temp_time_machine/DaisyExamples/libDaisy/src/hid/audio.h ****         /**< Sample rate of audio */
  33:../temp_time_machine/DaisyExamples/libDaisy/src/hid/audio.h ****         SaiHandle::Config::SampleRate samplerate;
  34:../temp_time_machine/DaisyExamples/libDaisy/src/hid/audio.h **** 
  35:../temp_time_machine/DaisyExamples/libDaisy/src/hid/audio.h ****         /** factor for adjustment before and after callback for hardware that may have extra headro
  36:../temp_time_machine/DaisyExamples/libDaisy/src/hid/audio.h ****         float postgain;
  37:../temp_time_machine/DaisyExamples/libDaisy/src/hid/audio.h **** 
  38:../temp_time_machine/DaisyExamples/libDaisy/src/hid/audio.h ****         /** factor for additional one-sided compensation to audio path for hardware that may
  39:../temp_time_machine/DaisyExamples/libDaisy/src/hid/audio.h ****          *  have unequal input/output ranges
  40:../temp_time_machine/DaisyExamples/libDaisy/src/hid/audio.h ****          */
  41:../temp_time_machine/DaisyExamples/libDaisy/src/hid/audio.h ****         float output_compensation;
  42:../temp_time_machine/DaisyExamples/libDaisy/src/hid/audio.h **** 
  43:../temp_time_machine/DaisyExamples/libDaisy/src/hid/audio.h ****         /** Sets default values for config struct */
  44:../temp_time_machine/DaisyExamples/libDaisy/src/hid/audio.h ****         Config()
 304              		.loc 5 44 9 view .LVU113
 305              	.LBB322:
 306              	.LBB323:
  45:../temp_time_machine/DaisyExamples/libDaisy/src/hid/audio.h ****         : blocksize(48),
  46:../temp_time_machine/DaisyExamples/libDaisy/src/hid/audio.h ****           samplerate(SaiHandle::Config::SampleRate::SAI_48KHZ),
  47:../temp_time_machine/DaisyExamples/libDaisy/src/hid/audio.h ****           postgain(1.f),
 307              		.loc 5 47 11 is_stmt 0 view .LVU114
 308 00ca 4FF07E53 		mov	r3, #1065353216
 309              	.LBE323:
 310              	.LBE322:
 311              	.LBE321:
 312              		.loc 1 303 19 view .LVU115
 313 00ce 059A     		ldr	r2, [sp, #20]
 314 00d0 09A9     		add	r1, sp, #36
 315              	.LVL15:
 316              	.LBB332:
 317              	.LBB328:
 318              	.LBB324:
 319              		.loc 5 47 11 view .LVU116
 320 00d2 0B93     		str	r3, [sp, #44]	@ float
 321              	.LBE324:
 322              	.LBE328:
 323              	.LBE332:
 324              		.loc 1 303 19 view .LVU117
 325 00d4 3046     		mov	r0, r6
 326              	.LBB333:
 327              	.LBB329:
 328              	.LBB325:
  48:../temp_time_machine/DaisyExamples/libDaisy/src/hid/audio.h ****           output_compensation(1.f)
ARM GAS  /var/folders/v1/156fk8j97zv9pzndh61fy7zm0000gn/T//ccQgUds1.s 			page 18


 329              		.loc 5 48 11 view .LVU118
 330 00d6 0C93     		str	r3, [sp, #48]	@ float
 331              	.LVL16:
 332              		.loc 5 48 11 view .LVU119
 333              	.LBE325:
 334              	.LBE329:
 335              	.LBE333:
 300:time_machine_hardware.cpp ****         audio_config.samplerate = SaiHandle::Config::SampleRate::SAI_48KHZ;
 336              		.loc 1 300 9 is_stmt 1 view .LVU120
 301:time_machine_hardware.cpp ****         audio_config.postgain   = 1.f;
 337              		.loc 1 301 9 view .LVU121
 302:time_machine_hardware.cpp ****         audio.Init(audio_config, sai_1_handle);
 338              		.loc 1 302 9 view .LVU122
 339              		.loc 1 303 9 view .LVU123
 340              	.LBB334:
 341              	.LBB330:
 342              	.LBB326:
  45:../temp_time_machine/DaisyExamples/libDaisy/src/hid/audio.h ****           samplerate(SaiHandle::Config::SampleRate::SAI_48KHZ),
 343              		.loc 5 45 11 is_stmt 0 view .LVU124
 344 00d8 3023     		movs	r3, #48
  46:../temp_time_machine/DaisyExamples/libDaisy/src/hid/audio.h ****           postgain(1.f),
 345              		.loc 5 46 11 view .LVU125
 346 00da CDF82890 		str	r9, [sp, #40]
 347              	.LBE326:
 348              	.LBE330:
 349              	.LBE334:
 304:time_machine_hardware.cpp ****         callback_rate_ = AudioSampleRate() / AudioBlockSize();
 305:time_machine_hardware.cpp **** 
 306:time_machine_hardware.cpp ****         /** ADC Init */
 307:time_machine_hardware.cpp ****         AdcChannelConfig adc_config[ADC_LAST + 7];
 308:time_machine_hardware.cpp ****         /** Order of pins to match enum expectations */
 309:time_machine_hardware.cpp ****         dsy_gpio_pin adc_pins[] = {
 350              		.loc 1 309 22 view .LVU126
 351 00de 0DF14809 		add	r9, sp, #72
 352              	.LBB335:
 353              	.LBB331:
 354              	.LBB327:
  45:../temp_time_machine/DaisyExamples/libDaisy/src/hid/audio.h ****           samplerate(SaiHandle::Config::SampleRate::SAI_48KHZ),
 355              		.loc 5 45 11 view .LVU127
 356 00e2 0993     		str	r3, [sp, #36]
 357              	.LBE327:
 358              	.LBE331:
 359              	.LBE335:
 303:time_machine_hardware.cpp ****         callback_rate_ = AudioSampleRate() / AudioBlockSize();
 360              		.loc 1 303 19 view .LVU128
 361 00e4 FFF7FEFF 		bl	_ZN5daisy11AudioHandle4InitERKNS0_6ConfigENS_9SaiHandleE
 362              	.LVL17:
 304:time_machine_hardware.cpp ****         callback_rate_ = AudioSampleRate() / AudioBlockSize();
 363              		.loc 1 304 9 is_stmt 1 view .LVU129
 364              	.LBB336:
 365              	.LBI336:
 310:time_machine_hardware.cpp ****             PIN_ADC_CTRL_1,
 311:time_machine_hardware.cpp ****             PIN_ADC_CTRL_2,
 312:time_machine_hardware.cpp ****             PIN_ADC_CTRL_3,
 313:time_machine_hardware.cpp ****             PIN_ADC_CTRL_4,
 314:time_machine_hardware.cpp ****             PIN_ADC_CTRL_8,
 315:time_machine_hardware.cpp ****             PIN_ADC_CTRL_7,
ARM GAS  /var/folders/v1/156fk8j97zv9pzndh61fy7zm0000gn/T//ccQgUds1.s 			page 19


 316:time_machine_hardware.cpp ****             PIN_ADC_CTRL_5,
 317:time_machine_hardware.cpp ****             PIN_ADC_CTRL_6,
 318:time_machine_hardware.cpp ****             PIN_ADC_CTRL_9,
 319:time_machine_hardware.cpp ****             PIN_ADC_CTRL_10,
 320:time_machine_hardware.cpp ****             PIN_ADC_CTRL_11,
 321:time_machine_hardware.cpp ****             PIN_ADC_CTRL_12
 322:time_machine_hardware.cpp ****         };
 323:time_machine_hardware.cpp **** 
 324:time_machine_hardware.cpp ****        
 325:time_machine_hardware.cpp ****         for (int i = 0; i < ADC_LAST; i++)
 326:time_machine_hardware.cpp ****         {
 327:time_machine_hardware.cpp ****             switch (i)
 328:time_machine_hardware.cpp ****             {
 329:time_machine_hardware.cpp ****                 case CV_5:
 330:time_machine_hardware.cpp ****                     adc_config[i].InitMux(
 331:time_machine_hardware.cpp ****                         adc_pins[i], 4,
 332:time_machine_hardware.cpp ****                         TimeMachineHardware::C10,
 333:time_machine_hardware.cpp ****                         TimeMachineHardware::C1
 334:time_machine_hardware.cpp ****                     );
 335:time_machine_hardware.cpp ****                     break;
 336:time_machine_hardware.cpp **** 
 337:time_machine_hardware.cpp ****                 case CV_6:
 338:time_machine_hardware.cpp ****                     adc_config[i].InitMux(
 339:time_machine_hardware.cpp ****                         adc_pins[i], 4,
 340:time_machine_hardware.cpp ****                         TimeMachineHardware::C10,
 341:time_machine_hardware.cpp ****                         TimeMachineHardware::C1
 342:time_machine_hardware.cpp ****                     );
 343:time_machine_hardware.cpp ****                     break;
 344:time_machine_hardware.cpp **** 
 345:time_machine_hardware.cpp ****                 case ADC_12:
 346:time_machine_hardware.cpp ****                     adc_config[i].InitMux(
 347:time_machine_hardware.cpp ****                         adc_pins[i], 8,
 348:time_machine_hardware.cpp ****                         TimeMachineHardware::A8,
 349:time_machine_hardware.cpp ****                         TimeMachineHardware::B6,
 350:time_machine_hardware.cpp ****                         TimeMachineHardware::B5
 351:time_machine_hardware.cpp ****                     );
 352:time_machine_hardware.cpp ****                     break;
 353:time_machine_hardware.cpp **** 
 354:time_machine_hardware.cpp ****                 default:
 355:time_machine_hardware.cpp ****                     adc_config[i].InitSingle(adc_pins[i]);
 356:time_machine_hardware.cpp ****                     break;
 357:time_machine_hardware.cpp ****             }
 358:time_machine_hardware.cpp ****         }
 359:time_machine_hardware.cpp **** 
 360:time_machine_hardware.cpp **** 
 361:time_machine_hardware.cpp ****         adc.Init(adc_config, ADC_LAST);
 362:time_machine_hardware.cpp ****         /** Control Init */
 363:time_machine_hardware.cpp ****         for(size_t i = 0; i < ADC_LAST; i++)
 364:time_machine_hardware.cpp ****         {
 365:time_machine_hardware.cpp ****             switch (i) {
 366:time_machine_hardware.cpp ****                 case CV_5:
 367:time_machine_hardware.cpp ****                 case CV_6:
 368:time_machine_hardware.cpp ****                     for(int muxChannel = 0; muxChannel < 4; muxChannel++) {
 369:time_machine_hardware.cpp ****                         controls[i].InitBipolarCv(adc.GetMuxPtr(i, muxChannel), callback_rate_);
 370:time_machine_hardware.cpp ****                     }
 371:time_machine_hardware.cpp ****                     break;
 372:time_machine_hardware.cpp ****                 case CV_1:
ARM GAS  /var/folders/v1/156fk8j97zv9pzndh61fy7zm0000gn/T//ccQgUds1.s 			page 20


 373:time_machine_hardware.cpp ****                 case CV_2:
 374:time_machine_hardware.cpp ****                 case CV_3:
 375:time_machine_hardware.cpp ****                 case CV_4:
 376:time_machine_hardware.cpp ****                 case CV_7:
 377:time_machine_hardware.cpp ****                 case CV_8:
 378:time_machine_hardware.cpp ****                     controls[i].InitBipolarCv(adc.GetPtr(i), callback_rate_);
 379:time_machine_hardware.cpp ****                     break;
 380:time_machine_hardware.cpp ****                 case ADC_9:
 381:time_machine_hardware.cpp ****                 case ADC_10:
 382:time_machine_hardware.cpp ****                 case ADC_11:
 383:time_machine_hardware.cpp ****                     controls[i].Init(adc.GetPtr(i), callback_rate_);
 384:time_machine_hardware.cpp ****                     break;
 385:time_machine_hardware.cpp ****                 case ADC_12:
 386:time_machine_hardware.cpp ****                     for(int muxChannel = 0; muxChannel < 8; muxChannel++) {
 387:time_machine_hardware.cpp ****                         controls[i].Init(adc.GetMuxPtr(i, muxChannel), callback_rate_);
 388:time_machine_hardware.cpp ****                     }
 389:time_machine_hardware.cpp ****                     break;
 390:time_machine_hardware.cpp ****             }
 391:time_machine_hardware.cpp ****         }
 392:time_machine_hardware.cpp **** 
 393:time_machine_hardware.cpp ****         /** Fixed-function Digital I/O */
 394:time_machine_hardware.cpp ****         user_led.mode = DSY_GPIO_MODE_OUTPUT_PP;
 395:time_machine_hardware.cpp ****         user_led.pull = DSY_GPIO_NOPULL;
 396:time_machine_hardware.cpp ****         user_led.pin  = PIN_USER_LED;
 397:time_machine_hardware.cpp ****         dsy_gpio_init(&user_led);
 398:time_machine_hardware.cpp ****         //gate_in_1.Init((dsy_gpio_pin *)&TimeMachineHardware::B10);
 399:time_machine_hardware.cpp ****         gate_in_1.Init((dsy_gpio_pin *)&B10);
 400:time_machine_hardware.cpp ****         gate_in_2.Init((dsy_gpio_pin *)&B9);
 401:time_machine_hardware.cpp **** 
 402:time_machine_hardware.cpp ****         /*
 403:time_machine_hardware.cpp ****         gate_out_1.mode = DSY_GPIO_MODE_OUTPUT_PP;
 404:time_machine_hardware.cpp ****         gate_out_1.pull = DSY_GPIO_NOPULL;
 405:time_machine_hardware.cpp ****         gate_out_1.pin  = B6;
 406:time_machine_hardware.cpp ****         dsy_gpio_init(&gate_out_1);
 407:time_machine_hardware.cpp ****         */
 408:time_machine_hardware.cpp **** 
 409:time_machine_hardware.cpp ****         /*
 410:time_machine_hardware.cpp ****         gate_out_2.mode = DSY_GPIO_MODE_OUTPUT_PP;
 411:time_machine_hardware.cpp ****         gate_out_2.pull = DSY_GPIO_NOPULL;
 412:time_machine_hardware.cpp ****         gate_out_2.pin  = B5;
 413:time_machine_hardware.cpp ****         dsy_gpio_init(&gate_out_2);
 414:time_machine_hardware.cpp ****         */
 415:time_machine_hardware.cpp **** 
 416:time_machine_hardware.cpp ****         /** DAC init */
 417:time_machine_hardware.cpp ****         // pimpl_->InitDac();
 418:time_machine_hardware.cpp **** 
 419:time_machine_hardware.cpp ****         /** Start any background stuff */
 420:time_machine_hardware.cpp ****         StartAdc();
 421:time_machine_hardware.cpp ****         // StartDac();
 422:time_machine_hardware.cpp ****     }
 423:time_machine_hardware.cpp **** 
 424:time_machine_hardware.cpp ****     void TimeMachineHardware::StartAudio(AudioHandle::AudioCallback cb)
 425:time_machine_hardware.cpp ****     {
 426:time_machine_hardware.cpp ****         audio.Start(cb);
 427:time_machine_hardware.cpp ****     }
 428:time_machine_hardware.cpp **** 
 429:time_machine_hardware.cpp ****     void TimeMachineHardware::StartAudio(AudioHandle::InterleavingAudioCallback cb)
ARM GAS  /var/folders/v1/156fk8j97zv9pzndh61fy7zm0000gn/T//ccQgUds1.s 			page 21


 430:time_machine_hardware.cpp ****     {
 431:time_machine_hardware.cpp ****         audio.Start(cb);
 432:time_machine_hardware.cpp ****     }
 433:time_machine_hardware.cpp **** 
 434:time_machine_hardware.cpp ****     void TimeMachineHardware::ChangeAudioCallback(AudioHandle::AudioCallback cb)
 435:time_machine_hardware.cpp ****     {
 436:time_machine_hardware.cpp ****         audio.ChangeCallback(cb);
 437:time_machine_hardware.cpp ****     }
 438:time_machine_hardware.cpp **** 
 439:time_machine_hardware.cpp ****     void
 440:time_machine_hardware.cpp ****     TimeMachineHardware::ChangeAudioCallback(AudioHandle::InterleavingAudioCallback cb)
 441:time_machine_hardware.cpp ****     {
 442:time_machine_hardware.cpp ****         audio.ChangeCallback(cb);
 443:time_machine_hardware.cpp ****     }
 444:time_machine_hardware.cpp **** 
 445:time_machine_hardware.cpp ****     void TimeMachineHardware::StopAudio() { audio.Stop(); }
 446:time_machine_hardware.cpp **** 
 447:time_machine_hardware.cpp ****     void TimeMachineHardware::SetAudioBlockSize(size_t size)
 448:time_machine_hardware.cpp ****     {
 449:time_machine_hardware.cpp ****         audio.SetBlockSize(size);
 450:time_machine_hardware.cpp ****         callback_rate_ = AudioSampleRate() / AudioBlockSize();
 451:time_machine_hardware.cpp ****         for(size_t i = 0; i < ADC_LAST; i++)
 452:time_machine_hardware.cpp ****         {
 453:time_machine_hardware.cpp ****             controls[i].SetSampleRate(callback_rate_);
 454:time_machine_hardware.cpp ****         }
 455:time_machine_hardware.cpp ****     }
 456:time_machine_hardware.cpp **** 
 457:time_machine_hardware.cpp ****     void TimeMachineHardware::SetAudioSampleRate(float sr)
 458:time_machine_hardware.cpp ****     {
 459:time_machine_hardware.cpp ****         SaiHandle::Config::SampleRate sai_sr;
 460:time_machine_hardware.cpp ****         switch(int(sr))
 461:time_machine_hardware.cpp ****         {
 462:time_machine_hardware.cpp ****             case 8000: sai_sr = SaiHandle::Config::SampleRate::SAI_8KHZ; break;
 463:time_machine_hardware.cpp ****             case 16000:
 464:time_machine_hardware.cpp ****                 sai_sr = SaiHandle::Config::SampleRate::SAI_16KHZ;
 465:time_machine_hardware.cpp ****                 break;
 466:time_machine_hardware.cpp ****             case 32000:
 467:time_machine_hardware.cpp ****                 sai_sr = SaiHandle::Config::SampleRate::SAI_32KHZ;
 468:time_machine_hardware.cpp ****                 break;
 469:time_machine_hardware.cpp ****             case 48000:
 470:time_machine_hardware.cpp ****                 sai_sr = SaiHandle::Config::SampleRate::SAI_48KHZ;
 471:time_machine_hardware.cpp ****                 break;
 472:time_machine_hardware.cpp ****             case 96000:
 473:time_machine_hardware.cpp ****                 sai_sr = SaiHandle::Config::SampleRate::SAI_96KHZ;
 474:time_machine_hardware.cpp ****                 break;
 475:time_machine_hardware.cpp ****             default: sai_sr = SaiHandle::Config::SampleRate::SAI_48KHZ; break;
 476:time_machine_hardware.cpp ****         }
 477:time_machine_hardware.cpp ****         audio.SetSampleRate(sai_sr);
 478:time_machine_hardware.cpp ****         callback_rate_ = AudioSampleRate() / AudioBlockSize();
 479:time_machine_hardware.cpp ****         for(size_t i = 0; i < ADC_LAST; i++)
 480:time_machine_hardware.cpp ****         {
 481:time_machine_hardware.cpp ****             controls[i].SetSampleRate(callback_rate_);
 482:time_machine_hardware.cpp ****         }
 483:time_machine_hardware.cpp ****     }
 484:time_machine_hardware.cpp **** 
 485:time_machine_hardware.cpp ****     void
 486:time_machine_hardware.cpp ****     TimeMachineHardware::SetAudioSampleRate(SaiHandle::Config::SampleRate sample_rate)
ARM GAS  /var/folders/v1/156fk8j97zv9pzndh61fy7zm0000gn/T//ccQgUds1.s 			page 22


 487:time_machine_hardware.cpp ****     {
 488:time_machine_hardware.cpp ****         audio.SetSampleRate(sample_rate);
 489:time_machine_hardware.cpp ****         callback_rate_ = AudioSampleRate() / AudioBlockSize();
 490:time_machine_hardware.cpp ****         for(size_t i = 0; i < ADC_LAST; i++)
 491:time_machine_hardware.cpp ****         {
 492:time_machine_hardware.cpp ****             controls[i].SetSampleRate(callback_rate_);
 493:time_machine_hardware.cpp ****         }
 494:time_machine_hardware.cpp ****     }
 495:time_machine_hardware.cpp **** 
 496:time_machine_hardware.cpp ****     size_t TimeMachineHardware::AudioBlockSize()
 497:time_machine_hardware.cpp ****     {
 498:time_machine_hardware.cpp ****         return audio.GetConfig().blocksize;
 499:time_machine_hardware.cpp ****     }
 500:time_machine_hardware.cpp **** 
 501:time_machine_hardware.cpp ****     float TimeMachineHardware::AudioSampleRate() { return audio.GetSampleRate(); }
 366              		.loc 1 501 11 view .LVU130
 367              	.LBB337:
 368              		.loc 1 501 52 view .LVU131
 369              		.loc 1 501 78 is_stmt 0 view .LVU132
 370 00e8 3046     		mov	r0, r6
 371              	.LBE337:
 372              	.LBE336:
 309:time_machine_hardware.cpp ****             PIN_ADC_CTRL_1,
 373              		.loc 1 309 22 view .LVU133
 374 00ea 4F46     		mov	r7, r9
 375              	.LBB340:
 376              	.LBB338:
 377              		.loc 1 501 78 view .LVU134
 378 00ec FFF7FEFF 		bl	_ZN5daisy11AudioHandle13GetSampleRateEv
 379              	.LVL18:
 380              	.LBE338:
 381              	.LBE340:
 382              	.LBB341:
 383              	.LBB342:
 498:time_machine_hardware.cpp ****     }
 384              		.loc 1 498 31 view .LVU135
 385 00f0 3046     		mov	r0, r6
 386              	.LBE342:
 387              	.LBE341:
 388              	.LBB344:
 389              	.LBB339:
 390              		.loc 1 501 78 view .LVU136
 391 00f2 B0EE408A 		vmov.f32	s16, s0
 392              	.LVL19:
 393              		.loc 1 501 78 view .LVU137
 394              	.LBE339:
 395              	.LBE344:
 396              	.LBB345:
 397              	.LBI341:
 496:time_machine_hardware.cpp ****     {
 398              		.loc 1 496 12 is_stmt 1 view .LVU138
 399              	.LBB343:
 498:time_machine_hardware.cpp ****     }
 400              		.loc 1 498 9 view .LVU139
 498:time_machine_hardware.cpp ****     }
 401              		.loc 1 498 31 is_stmt 0 view .LVU140
 402 00f6 FFF7FEFF 		bl	_ZNK5daisy11AudioHandle9GetConfigEv
ARM GAS  /var/folders/v1/156fk8j97zv9pzndh61fy7zm0000gn/T//ccQgUds1.s 			page 23


 403              	.LVL20:
 498:time_machine_hardware.cpp ****     }
 404              		.loc 1 498 31 view .LVU141
 405              	.LBE343:
 406              	.LBE345:
 304:time_machine_hardware.cpp **** 
 407              		.loc 1 304 44 discriminator 2 view .LVU142
 408 00fa D0ED007A 		vldr.32	s15, [r0]	@ int
 409 00fe 4646     		mov	r6, r8
 309:time_machine_hardware.cpp ****             PIN_ADC_CTRL_1,
 410              		.loc 1 309 22 view .LVU143
 411 0100 DFF804C2 		ldr	ip, .L28+48
 304:time_machine_hardware.cpp **** 
 412              		.loc 1 304 44 discriminator 2 view .LVU144
 413 0104 F8EE677A 		vcvt.f32.u32	s15, s15
 309:time_machine_hardware.cpp ****             PIN_ADC_CTRL_1,
 414              		.loc 1 309 22 view .LVU145
 415 0108 BCE80F00 		ldmia	ip!, {r0, r1, r2, r3}
 304:time_machine_hardware.cpp **** 
 416              		.loc 1 304 44 discriminator 2 view .LVU146
 417 010c 88EE277A 		vdiv.f32	s14, s16, s15
 309:time_machine_hardware.cpp ****             PIN_ADC_CTRL_1,
 418              		.loc 1 309 22 view .LVU147
 419 0110 0FC7     		stmia	r7!, {r0, r1, r2, r3}
 420 0112 9CE80300 		ldm	ip, {r0, r1}
 421 0116 87E80300 		stm	r7, {r0, r1}
 304:time_machine_hardware.cpp **** 
 422              		.loc 1 304 24 discriminator 2 view .LVU148
 423 011a 85ED7A7A 		vstr.32	s14, [r5, #488]
 307:time_machine_hardware.cpp ****         /** Order of pins to match enum expectations */
 424              		.loc 1 307 9 is_stmt 1 view .LVU149
 309:time_machine_hardware.cpp ****             PIN_ADC_CTRL_1,
 425              		.loc 1 309 9 view .LVU150
 325:time_machine_hardware.cpp ****         {
 426              		.loc 1 325 9 view .LVU151
 427              	.LVL21:
 428              	.LBB346:
 325:time_machine_hardware.cpp ****         {
 429              		.loc 1 325 27 discriminator 1 view .LVU152
 430 011e 1BE0     		b	.L10
 431              	.LVL22:
 432              	.L26:
 329:time_machine_hardware.cpp ****                     adc_config[i].InitMux(
 433              		.loc 1 329 17 view .LVU153
 330:time_machine_hardware.cpp ****                         adc_pins[i], 4,
 434              		.loc 1 330 21 view .LVU154
 354:time_machine_hardware.cpp ****                     adc_config[i].InitSingle(adc_pins[i]);
 435              		.loc 1 354 17 view .LVU155
 355:time_machine_hardware.cpp ****                     break;
 436              		.loc 1 355 21 view .LVU156
 330:time_machine_hardware.cpp ****                         adc_pins[i], 4,
 437              		.loc 1 330 42 is_stmt 0 view .LVU157
 438 0120 2302     		lsls	r3, r4, #8
 327:time_machine_hardware.cpp ****             {
 439              		.loc 1 327 13 view .LVU158
 440 0122 042C     		cmp	r4, #4
 330:time_machine_hardware.cpp ****                         adc_pins[i], 4,
ARM GAS  /var/folders/v1/156fk8j97zv9pzndh61fy7zm0000gn/T//ccQgUds1.s 			page 24


 441              		.loc 1 330 42 view .LVU159
 442 0124 7149     		ldr	r1, .L28+20
 443 0126 4FF00B0C 		mov	ip, #11
 444 012a 4FF00207 		mov	r7, #2
 445 012e 03F47F43 		and	r3, r3, #65280
 446 0132 2246     		mov	r2, r4
 447 0134 34A8     		add	r0, sp, #208
 327:time_machine_hardware.cpp ****             {
 448              		.loc 1 327 13 view .LVU160
 449 0136 40F0B880 		bne	.L7
 450              	.LVL23:
 330:time_machine_hardware.cpp ****                         adc_pins[i], 4,
 451              		.loc 1 330 42 view .LVU161
 452 013a B1F800E0 		ldrh	lr, [r1]
 453 013e ADF810C0 		strh	ip, [sp, #16]	@ movhi
 454 0142 D9F80810 		ldr	r1, [r9, #8]
 455 0146 0297     		str	r7, [sp, #8]
 456 0148 ADF804C0 		strh	ip, [sp, #4]	@ movhi
 457 014c ADF800E0 		strh	lr, [sp]	@ movhi
 458 0150 FFF7FEFF 		bl	_ZN5daisy16AdcChannelConfig7InitMuxE12dsy_gpio_pinjS1_S1_S1_NS0_15ConversionSpeedE
 459              	.LVL24:
 335:time_machine_hardware.cpp **** 
 460              		.loc 1 335 21 is_stmt 1 view .LVU162
 461              	.L8:
 325:time_machine_hardware.cpp ****         {
 462              		.loc 1 325 9 discriminator 2 view .LVU163
 463 0154 0134     		adds	r4, r4, #1
 464              	.LVL25:
 325:time_machine_hardware.cpp ****         {
 465              		.loc 1 325 27 discriminator 1 view .LVU164
 466 0156 1236     		adds	r6, r6, #18
 467              	.LVL26:
 468              	.L10:
 327:time_machine_hardware.cpp ****             {
 469              		.loc 1 327 13 view .LVU165
 470 0158 052C     		cmp	r4, #5
 471 015a 00F09180 		beq	.L5
 472 015e 0B2C     		cmp	r4, #11
 473 0160 DED1     		bne	.L26
 345:time_machine_hardware.cpp ****                     adc_config[i].InitMux(
 474              		.loc 1 345 17 view .LVU166
 346:time_machine_hardware.cpp ****                         adc_pins[i], 8,
 475              		.loc 1 346 21 view .LVU167
 346:time_machine_hardware.cpp ****                         adc_pins[i], 8,
 476              		.loc 1 346 42 is_stmt 0 view .LVU168
 477 0162 0122     		movs	r2, #1
 478 0164 6248     		ldr	r0, .L28+24
 479 0166 6349     		ldr	r1, .L28+28
 480 0168 0023     		movs	r3, #0
 481 016a 0688     		ldrh	r6, [r0]
 482 016c 0227     		movs	r7, #2
 483 016e 0C88     		ldrh	r4, [r1]
 484              	.LVL27:
 346:time_machine_hardware.cpp ****                         adc_pins[i], 8,
 485              		.loc 1 346 42 view .LVU169
 486 0170 62F30703 		bfi	r3, r2, #0, #8
 487 0174 0E22     		movs	r2, #14
ARM GAS  /var/folders/v1/156fk8j97zv9pzndh61fy7zm0000gn/T//ccQgUds1.s 			page 25


 488 0176 B9F81610 		ldrh	r1, [r9, #22]
 489 017a 0DF5A770 		add	r0, sp, #334
 490 017e ADF80460 		strh	r6, [sp, #4]	@ movhi
 491 0182 62F30F23 		bfi	r3, r2, #8, #8
 492 0186 ADF80040 		strh	r4, [sp]	@ movhi
 493 018a 0822     		movs	r2, #8
 494              	.LBE346:
 361:time_machine_hardware.cpp ****         /** Control Init */
 495              		.loc 1 361 17 view .LVU170
 496 018c 05F11406 		add	r6, r5, #20
 497              	.LBB347:
 346:time_machine_hardware.cpp ****                         adc_pins[i], 8,
 498              		.loc 1 346 42 view .LVU171
 499 0190 0297     		str	r7, [sp, #8]
 500              	.LBE347:
 361:time_machine_hardware.cpp ****         /** Control Init */
 501              		.loc 1 361 17 view .LVU172
 502 0192 0024     		movs	r4, #0
 503              	.LBB348:
 346:time_machine_hardware.cpp ****                         adc_pins[i], 8,
 504              		.loc 1 346 42 view .LVU173
 505 0194 FFF7FEFF 		bl	_ZN5daisy16AdcChannelConfig7InitMuxE12dsy_gpio_pinjS1_S1_S1_NS0_15ConversionSpeedE
 506              	.LVL28:
 352:time_machine_hardware.cpp **** 
 507              		.loc 1 352 21 is_stmt 1 view .LVU174
 325:time_machine_hardware.cpp ****         {
 508              		.loc 1 325 9 discriminator 2 view .LVU175
 325:time_machine_hardware.cpp ****         {
 509              		.loc 1 325 27 discriminator 1 view .LVU176
 325:time_machine_hardware.cpp ****         {
 510              		.loc 1 325 27 is_stmt 0 discriminator 1 view .LVU177
 511              	.LBE348:
 361:time_machine_hardware.cpp ****         /** Control Init */
 512              		.loc 1 361 9 is_stmt 1 view .LVU178
 361:time_machine_hardware.cpp ****         /** Control Init */
 513              		.loc 1 361 17 is_stmt 0 view .LVU179
 514 0198 4146     		mov	r1, r8
 515 019a 05F13008 		add	r8, r5, #48
 516 019e 0423     		movs	r3, #4
 517 01a0 0C22     		movs	r2, #12
 518 01a2 3046     		mov	r0, r6
 519 01a4 FFF7FEFF 		bl	_ZN5daisy9AdcHandle4InitEPNS_16AdcChannelConfigEjNS0_12OverSamplingE
 520              	.LVL29:
 363:time_machine_hardware.cpp ****         {
 521              		.loc 1 363 9 is_stmt 1 view .LVU180
 522              	.LBB349:
 363:time_machine_hardware.cpp ****         {
 523              		.loc 1 363 29 discriminator 1 view .LVU181
 363:time_machine_hardware.cpp ****         {
 524              		.loc 1 363 29 is_stmt 0 discriminator 1 view .LVU182
 525              	.LBE349:
 365:time_machine_hardware.cpp ****                 case CV_5:
 526              		.loc 1 365 13 is_stmt 1 view .LVU183
 527              	.L9:
 528              	.LBB364:
 529              	.LBB350:
 365:time_machine_hardware.cpp ****                 case CV_5:
ARM GAS  /var/folders/v1/156fk8j97zv9pzndh61fy7zm0000gn/T//ccQgUds1.s 			page 26


 530              		.loc 1 365 13 is_stmt 0 view .LVU184
 531 01a8 072C     		cmp	r4, #7
 532 01aa 18D8     		bhi	.L11
 533              	.L27:
 534 01ac 231F     		subs	r3, r4, #4
 535 01ae 012B     		cmp	r3, #1
 536 01b0 58D8     		bhi	.L12
 537 01b2 5FFA84F9 		uxtb	r9, r4
 538              	.LBB351:
 539              	.LBB352:
 368:time_machine_hardware.cpp ****                         controls[i].InitBipolarCv(adc.GetMuxPtr(i, muxChannel), callback_rate_);
 540              		.loc 1 368 29 view .LVU185
 541 01b6 0027     		movs	r7, #0
 542              	.L13:
 543              	.LVL30:
 369:time_machine_hardware.cpp ****                     }
 544              		.loc 1 369 25 is_stmt 1 view .LVU186
 369:time_machine_hardware.cpp ****                     }
 545              		.loc 1 369 50 is_stmt 0 view .LVU187
 546 01b8 FAB2     		uxtb	r2, r7
 547 01ba 4946     		mov	r1, r9
 548 01bc 3046     		mov	r0, r6
 368:time_machine_hardware.cpp ****                         controls[i].InitBipolarCv(adc.GetMuxPtr(i, muxChannel), callback_rate_);
 549              		.loc 1 368 21 discriminator 3 view .LVU188
 550 01be 0137     		adds	r7, r7, #1
 551              	.LVL31:
 369:time_machine_hardware.cpp ****                     }
 552              		.loc 1 369 50 view .LVU189
 553 01c0 FFF7FEFF 		bl	_ZNK5daisy9AdcHandle9GetMuxPtrEhh
 554              	.LVL32:
 369:time_machine_hardware.cpp ****                     }
 555              		.loc 1 369 50 discriminator 1 view .LVU190
 556 01c4 95ED7A0A 		vldr.32	s0, [r5, #488]
 369:time_machine_hardware.cpp ****                     }
 557              		.loc 1 369 50 view .LVU191
 558 01c8 0146     		mov	r1, r0
 369:time_machine_hardware.cpp ****                     }
 559              		.loc 1 369 50 discriminator 1 view .LVU192
 560 01ca 4046     		mov	r0, r8
 561 01cc FFF7FEFF 		bl	_ZN5daisy13AnalogControl13InitBipolarCvEPtf
 562              	.LVL33:
 368:time_machine_hardware.cpp ****                         controls[i].InitBipolarCv(adc.GetMuxPtr(i, muxChannel), callback_rate_);
 563              		.loc 1 368 21 is_stmt 1 discriminator 3 view .LVU193
 368:time_machine_hardware.cpp ****                         controls[i].InitBipolarCv(adc.GetMuxPtr(i, muxChannel), callback_rate_);
 564              		.loc 1 368 56 discriminator 1 view .LVU194
 565 01d0 042F     		cmp	r7, #4
 566 01d2 F1D1     		bne	.L13
 567              	.LBE352:
 568              	.LBE351:
 569              	.LBE350:
 363:time_machine_hardware.cpp ****         {
 570              		.loc 1 363 9 discriminator 2 view .LVU195
 571 01d4 0134     		adds	r4, r4, #1
 572              	.LVL34:
 363:time_machine_hardware.cpp ****         {
 573              		.loc 1 363 29 discriminator 1 view .LVU196
 574 01d6 08F12008 		add	r8, r8, #32
ARM GAS  /var/folders/v1/156fk8j97zv9pzndh61fy7zm0000gn/T//ccQgUds1.s 			page 27


 363:time_machine_hardware.cpp ****         {
 575              		.loc 1 363 29 is_stmt 0 discriminator 1 view .LVU197
 576              	.LBE364:
 365:time_machine_hardware.cpp ****                 case CV_5:
 577              		.loc 1 365 13 is_stmt 1 view .LVU198
 578              	.LBB365:
 579              	.LBB359:
 580 01da 072C     		cmp	r4, #7
 581 01dc E6D9     		bls	.L27
 582              	.LVL35:
 583              	.L11:
 584              	.LBB354:
 380:time_machine_hardware.cpp ****                 case ADC_10:
 585              		.loc 1 380 17 view .LVU199
 381:time_machine_hardware.cpp ****                 case ADC_11:
 586              		.loc 1 381 17 view .LVU200
 382:time_machine_hardware.cpp ****                     controls[i].Init(adc.GetPtr(i), callback_rate_);
 587              		.loc 1 382 17 view .LVU201
 383:time_machine_hardware.cpp ****                     break;
 588              		.loc 1 383 21 view .LVU202
 383:time_machine_hardware.cpp ****                     break;
 589              		.loc 1 383 37 is_stmt 0 view .LVU203
 590 01de E1B2     		uxtb	r1, r4
 591 01e0 3046     		mov	r0, r6
 592 01e2 FFF7FEFF 		bl	_ZNK5daisy9AdcHandle6GetPtrEh
 593              	.LVL36:
 383:time_machine_hardware.cpp ****                     break;
 594              		.loc 1 383 37 discriminator 1 view .LVU204
 595 01e6 0023     		movs	r3, #0
 596              	.LBE354:
 597              	.LBE359:
 363:time_machine_hardware.cpp ****         {
 598              		.loc 1 363 9 discriminator 2 view .LVU205
 599 01e8 0134     		adds	r4, r4, #1
 600              	.LBB360:
 601              	.LBB355:
 383:time_machine_hardware.cpp ****                     break;
 602              		.loc 1 383 37 view .LVU206
 603 01ea 0146     		mov	r1, r0
 383:time_machine_hardware.cpp ****                     break;
 604              		.loc 1 383 37 discriminator 1 view .LVU207
 605 01ec DFED420A 		vldr.32	s1, .L28+32
 606 01f0 1A46     		mov	r2, r3
 607 01f2 95ED7A0A 		vldr.32	s0, [r5, #488]
 608 01f6 4046     		mov	r0, r8
 609 01f8 FFF7FEFF 		bl	_ZN5daisy13AnalogControl4InitEPtfbbf
 610              	.LVL37:
 384:time_machine_hardware.cpp ****                 case ADC_12:
 611              		.loc 1 384 21 is_stmt 1 view .LVU208
 612              	.LBE355:
 613              	.LBE360:
 363:time_machine_hardware.cpp ****         {
 614              		.loc 1 363 9 discriminator 2 view .LVU209
 363:time_machine_hardware.cpp ****         {
 615              		.loc 1 363 29 discriminator 1 view .LVU210
 363:time_machine_hardware.cpp ****         {
 616              		.loc 1 363 29 is_stmt 0 discriminator 1 view .LVU211
ARM GAS  /var/folders/v1/156fk8j97zv9pzndh61fy7zm0000gn/T//ccQgUds1.s 			page 28


 617              	.LBE365:
 365:time_machine_hardware.cpp ****                 case CV_5:
 618              		.loc 1 365 13 is_stmt 1 view .LVU212
 619              	.LBB366:
 620              	.LBB361:
 621 01fc 0B2C     		cmp	r4, #11
 622 01fe 5BD1     		bne	.L16
 623 0200 0024     		movs	r4, #0
 624              	.LVL38:
 365:time_machine_hardware.cpp ****                 case CV_5:
 625              		.loc 1 365 13 is_stmt 0 view .LVU213
 626 0202 05F5C877 		add	r7, r5, #400
 627              	.L17:
 628              	.LVL39:
 629              	.LBB356:
 630              	.LBB353:
 387:time_machine_hardware.cpp ****                     }
 631              		.loc 1 387 25 is_stmt 1 view .LVU214
 387:time_machine_hardware.cpp ****                     }
 632              		.loc 1 387 41 is_stmt 0 view .LVU215
 633 0206 E2B2     		uxtb	r2, r4
 634 0208 0B21     		movs	r1, #11
 635 020a 3046     		mov	r0, r6
 386:time_machine_hardware.cpp ****                         controls[i].Init(adc.GetMuxPtr(i, muxChannel), callback_rate_);
 636              		.loc 1 386 21 discriminator 3 view .LVU216
 637 020c 0134     		adds	r4, r4, #1
 638              	.LVL40:
 387:time_machine_hardware.cpp ****                     }
 639              		.loc 1 387 41 view .LVU217
 640 020e FFF7FEFF 		bl	_ZNK5daisy9AdcHandle9GetMuxPtrEhh
 641              	.LVL41:
 387:time_machine_hardware.cpp ****                     }
 642              		.loc 1 387 41 discriminator 1 view .LVU218
 643 0212 0023     		movs	r3, #0
 387:time_machine_hardware.cpp ****                     }
 644              		.loc 1 387 41 view .LVU219
 645 0214 0146     		mov	r1, r0
 387:time_machine_hardware.cpp ****                     }
 646              		.loc 1 387 41 discriminator 1 view .LVU220
 647 0216 DFED380A 		vldr.32	s1, .L28+32
 648 021a 95ED7A0A 		vldr.32	s0, [r5, #488]
 649 021e 1A46     		mov	r2, r3
 650 0220 3846     		mov	r0, r7
 651 0222 FFF7FEFF 		bl	_ZN5daisy13AnalogControl4InitEPtfbbf
 652              	.LVL42:
 386:time_machine_hardware.cpp ****                         controls[i].Init(adc.GetMuxPtr(i, muxChannel), callback_rate_);
 653              		.loc 1 386 21 is_stmt 1 discriminator 3 view .LVU221
 386:time_machine_hardware.cpp ****                         controls[i].Init(adc.GetMuxPtr(i, muxChannel), callback_rate_);
 654              		.loc 1 386 56 discriminator 1 view .LVU222
 655 0226 082C     		cmp	r4, #8
 656 0228 EDD1     		bne	.L17
 657              	.LVL43:
 386:time_machine_hardware.cpp ****                         controls[i].Init(adc.GetMuxPtr(i, muxChannel), callback_rate_);
 658              		.loc 1 386 56 is_stmt 0 discriminator 1 view .LVU223
 659              	.LBE353:
 660              	.LBE356:
 661              	.LBE361:
ARM GAS  /var/folders/v1/156fk8j97zv9pzndh61fy7zm0000gn/T//ccQgUds1.s 			page 29


 662              	.LBE366:
 394:time_machine_hardware.cpp ****         user_led.pull = DSY_GPIO_NOPULL;
 663              		.loc 1 394 9 is_stmt 1 view .LVU224
 395:time_machine_hardware.cpp ****         user_led.pin  = PIN_USER_LED;
 664              		.loc 1 395 9 view .LVU225
 396:time_machine_hardware.cpp ****         dsy_gpio_init(&user_led);
 665              		.loc 1 396 23 is_stmt 0 view .LVU226
 666 022a 344B     		ldr	r3, .L28+36
 667 022c 2846     		mov	r0, r5
 394:time_machine_hardware.cpp ****         user_led.pull = DSY_GPIO_NOPULL;
 668              		.loc 1 394 23 view .LVU227
 669 022e 0124     		movs	r4, #1
 670              	.LVL44:
 396:time_machine_hardware.cpp ****         dsy_gpio_init(&user_led);
 671              		.loc 1 396 23 view .LVU228
 672 0230 1B88     		ldrh	r3, [r3]
 394:time_machine_hardware.cpp ****         user_led.pull = DSY_GPIO_NOPULL;
 673              		.loc 1 394 23 view .LVU229
 674 0232 EC85     		strh	r4, [r5, #46]	@ movhi
 396:time_machine_hardware.cpp ****         dsy_gpio_init(&user_led);
 675              		.loc 1 396 9 is_stmt 1 view .LVU230
 396:time_machine_hardware.cpp ****         dsy_gpio_init(&user_led);
 676              		.loc 1 396 23 is_stmt 0 view .LVU231
 677 0234 20F82C3F 		strh	r3, [r0, #44]!	@ movhi
 397:time_machine_hardware.cpp ****         //gate_in_1.Init((dsy_gpio_pin *)&TimeMachineHardware::B10);
 678              		.loc 1 397 9 is_stmt 1 view .LVU232
 397:time_machine_hardware.cpp ****         //gate_in_1.Init((dsy_gpio_pin *)&TimeMachineHardware::B10);
 679              		.loc 1 397 22 is_stmt 0 view .LVU233
 680 0238 FFF7FEFF 		bl	dsy_gpio_init
 681              	.LVL45:
 399:time_machine_hardware.cpp ****         gate_in_2.Init((dsy_gpio_pin *)&B9);
 682              		.loc 1 399 9 is_stmt 1 view .LVU234
 399:time_machine_hardware.cpp ****         gate_in_2.Init((dsy_gpio_pin *)&B9);
 683              		.loc 1 399 23 is_stmt 0 view .LVU235
 684 023c 2246     		mov	r2, r4
 685 023e 05F5D870 		add	r0, r5, #432
 686 0242 2F49     		ldr	r1, .L28+40
 687 0244 FFF7FEFF 		bl	_ZN5daisy6GateIn4InitEP12dsy_gpio_pinb
 688              	.LVL46:
 400:time_machine_hardware.cpp **** 
 689              		.loc 1 400 9 is_stmt 1 view .LVU236
 400:time_machine_hardware.cpp **** 
 690              		.loc 1 400 23 is_stmt 0 view .LVU237
 691 0248 2246     		mov	r2, r4
 692 024a 2E49     		ldr	r1, .L28+44
 693 024c 05F5E470 		add	r0, r5, #456
 694 0250 FFF7FEFF 		bl	_ZN5daisy6GateIn4InitEP12dsy_gpio_pinb
 695              	.LVL47:
 420:time_machine_hardware.cpp ****         // StartDac();
 696              		.loc 1 420 9 is_stmt 1 view .LVU238
 697              	.LBB367:
 698              	.LBI367:
 502:time_machine_hardware.cpp **** 
 503:time_machine_hardware.cpp ****     float TimeMachineHardware::AudioCallbackRate() { return callback_rate_; }
 504:time_machine_hardware.cpp **** 
 505:time_machine_hardware.cpp ****     void TimeMachineHardware::StartAdc() { adc.Start(); }
 699              		.loc 1 505 10 view .LVU239
ARM GAS  /var/folders/v1/156fk8j97zv9pzndh61fy7zm0000gn/T//ccQgUds1.s 			page 30


 700              	.LBB368:
 701              		.loc 1 505 44 view .LVU240
 702              		.loc 1 505 53 is_stmt 0 view .LVU241
 703 0254 3046     		mov	r0, r6
 704 0256 FFF7FEFF 		bl	_ZN5daisy9AdcHandle5StartEv
 705              	.LVL48:
 706              		.loc 1 505 53 view .LVU242
 707              	.LBE368:
 708              	.LBE367:
 422:time_machine_hardware.cpp **** 
 709              		.loc 1 422 5 view .LVU243
 710 025a 79B0     		add	sp, sp, #484
 711              		.cfi_remember_state
 712              		.cfi_def_cfa_offset 36
 713              		@ sp needed
 714 025c BDEC028B 		vldm	sp!, {d8}
 715              		.cfi_restore 80
 716              		.cfi_restore 81
 717              		.cfi_def_cfa_offset 28
 718 0260 BDE8F083 		pop	{r4, r5, r6, r7, r8, r9, pc}
 719              	.LVL49:
 720              	.L12:
 721              		.cfi_restore_state
 722              	.LBB369:
 723              	.LBB362:
 724              	.LBB357:
 372:time_machine_hardware.cpp ****                 case CV_2:
 725              		.loc 1 372 17 is_stmt 1 view .LVU244
 373:time_machine_hardware.cpp ****                 case CV_3:
 726              		.loc 1 373 17 view .LVU245
 374:time_machine_hardware.cpp ****                 case CV_4:
 727              		.loc 1 374 17 view .LVU246
 375:time_machine_hardware.cpp ****                 case CV_7:
 728              		.loc 1 375 17 view .LVU247
 376:time_machine_hardware.cpp ****                 case CV_8:
 729              		.loc 1 376 17 view .LVU248
 377:time_machine_hardware.cpp ****                     controls[i].InitBipolarCv(adc.GetPtr(i), callback_rate_);
 730              		.loc 1 377 17 view .LVU249
 378:time_machine_hardware.cpp ****                     break;
 731              		.loc 1 378 21 view .LVU250
 378:time_machine_hardware.cpp ****                     break;
 732              		.loc 1 378 46 is_stmt 0 view .LVU251
 733 0264 E1B2     		uxtb	r1, r4
 734 0266 3046     		mov	r0, r6
 735 0268 FFF7FEFF 		bl	_ZNK5daisy9AdcHandle6GetPtrEh
 736              	.LVL50:
 378:time_machine_hardware.cpp ****                     break;
 737              		.loc 1 378 46 discriminator 1 view .LVU252
 738 026c 95ED7A0A 		vldr.32	s0, [r5, #488]
 378:time_machine_hardware.cpp ****                     break;
 739              		.loc 1 378 46 view .LVU253
 740 0270 0146     		mov	r1, r0
 378:time_machine_hardware.cpp ****                     break;
 741              		.loc 1 378 46 discriminator 1 view .LVU254
 742 0272 4046     		mov	r0, r8
 743              	.LBE357:
 744              	.LBE362:
ARM GAS  /var/folders/v1/156fk8j97zv9pzndh61fy7zm0000gn/T//ccQgUds1.s 			page 31


 363:time_machine_hardware.cpp ****         {
 745              		.loc 1 363 9 discriminator 2 view .LVU255
 746 0274 0134     		adds	r4, r4, #1
 747              	.LVL51:
 363:time_machine_hardware.cpp ****         {
 748              		.loc 1 363 29 discriminator 1 view .LVU256
 749 0276 08F12008 		add	r8, r8, #32
 750              	.LBB363:
 751              	.LBB358:
 378:time_machine_hardware.cpp ****                     break;
 752              		.loc 1 378 46 discriminator 1 view .LVU257
 753 027a FFF7FEFF 		bl	_ZN5daisy13AnalogControl13InitBipolarCvEPtf
 754              	.LVL52:
 379:time_machine_hardware.cpp ****                 case ADC_9:
 755              		.loc 1 379 21 is_stmt 1 view .LVU258
 756              	.LBE358:
 757              	.LBE363:
 363:time_machine_hardware.cpp ****         {
 758              		.loc 1 363 9 discriminator 2 view .LVU259
 363:time_machine_hardware.cpp ****         {
 759              		.loc 1 363 29 discriminator 1 view .LVU260
 363:time_machine_hardware.cpp ****         {
 760              		.loc 1 363 29 is_stmt 0 discriminator 1 view .LVU261
 761              	.LBE369:
 365:time_machine_hardware.cpp ****                 case CV_5:
 762              		.loc 1 365 13 is_stmt 1 view .LVU262
 763 027e 93E7     		b	.L9
 764              	.LVL53:
 765              	.L5:
 766              	.LBB370:
 337:time_machine_hardware.cpp ****                     adc_config[i].InitMux(
 767              		.loc 1 337 17 view .LVU263
 338:time_machine_hardware.cpp ****                         adc_pins[i], 4,
 768              		.loc 1 338 21 view .LVU264
 338:time_machine_hardware.cpp ****                         adc_pins[i], 4,
 769              		.loc 1 338 42 is_stmt 0 view .LVU265
 770 0280 0B23     		movs	r3, #11
 771 0282 1A4A     		ldr	r2, .L28+20
 772 0284 0DF1E200 		add	r0, sp, #226
 773 0288 ADF80430 		strh	r3, [sp, #4]	@ movhi
 774 028c ADF81030 		strh	r3, [sp, #16]	@ movhi
 775 0290 1388     		ldrh	r3, [r2]
 776 0292 0422     		movs	r2, #4
 777 0294 ADF80030 		strh	r3, [sp]	@ movhi
 778 0298 0223     		movs	r3, #2
 779 029a 0293     		str	r3, [sp, #8]
 780 029c 0423     		movs	r3, #4
 781 029e B9F80A10 		ldrh	r1, [r9, #10]
 782 02a2 1B02     		lsls	r3, r3, #8
 783 02a4 FFF7FEFF 		bl	_ZN5daisy16AdcChannelConfig7InitMuxE12dsy_gpio_pinjS1_S1_S1_NS0_15ConversionSpeedE
 784              	.LVL54:
 343:time_machine_hardware.cpp **** 
 785              		.loc 1 343 21 is_stmt 1 view .LVU266
 786 02a8 54E7     		b	.L8
 787              	.LVL55:
 788              	.L7:
 355:time_machine_hardware.cpp ****                     break;
ARM GAS  /var/folders/v1/156fk8j97zv9pzndh61fy7zm0000gn/T//ccQgUds1.s 			page 32


 789              		.loc 1 355 45 is_stmt 0 view .LVU267
 790 02aa 0222     		movs	r2, #2
 791              	.LVL56:
 355:time_machine_hardware.cpp ****                     break;
 792              		.loc 1 355 45 view .LVU268
 793 02ac 39F81410 		ldrh	r1, [r9, r4, lsl #1]
 794 02b0 3046     		mov	r0, r6
 795 02b2 FFF7FEFF 		bl	_ZN5daisy16AdcChannelConfig10InitSingleE12dsy_gpio_pinNS0_15ConversionSpeedE
 796              	.LVL57:
 356:time_machine_hardware.cpp ****             }
 797              		.loc 1 356 21 is_stmt 1 view .LVU269
 798 02b6 4DE7     		b	.L8
 799              	.LVL58:
 800              	.L16:
 356:time_machine_hardware.cpp ****             }
 801              		.loc 1 356 21 is_stmt 0 view .LVU270
 802              	.LBE370:
 803              	.LBB371:
 363:time_machine_hardware.cpp ****         {
 804              		.loc 1 363 29 discriminator 1 view .LVU271
 805 02b8 08F12008 		add	r8, r8, #32
 806 02bc 74E7     		b	.L9
 807              	.LVL59:
 808              	.L2:
 363:time_machine_hardware.cpp ****         {
 809              		.loc 1 363 29 discriminator 1 view .LVU272
 810 02be 0446     		mov	r4, r0
 811              	.LBE371:
 234:time_machine_hardware.cpp **** 
 812              		.loc 1 234 13 is_stmt 1 view .LVU273
 236:time_machine_hardware.cpp ****         /** Memories */
 813              		.loc 1 236 20 is_stmt 0 view .LVU274
 814 02c0 07A9     		add	r1, sp, #28
 815 02c2 2846     		mov	r0, r5
 816              	.LVL60:
 234:time_machine_hardware.cpp **** 
 817              		.loc 1 234 32 view .LVU275
 818 02c4 8DF82260 		strb	r6, [sp, #34]
 236:time_machine_hardware.cpp ****         /** Memories */
 819              		.loc 1 236 9 is_stmt 1 view .LVU276
 236:time_machine_hardware.cpp ****         /** Memories */
 820              		.loc 1 236 20 is_stmt 0 view .LVU277
 821 02c8 FFF7FEFF 		bl	_ZN5daisy6System4InitERKNS0_6ConfigE
 822              	.LVL61:
 238:time_machine_hardware.cpp ****         {
 823              		.loc 1 238 9 is_stmt 1 view .LVU278
 243:time_machine_hardware.cpp ****         {
 824              		.loc 1 243 9 view .LVU279
 825              	.LBB372:
 826 02cc 072C     		cmp	r4, #7
 827 02ce 7FF4B6AE 		bne	.L3
 828 02d2 0DF18808 		add	r8, sp, #136
 829 02d6 C6E6     		b	.L4
 830              	.L29:
 831              		.align	2
 832              	.L28:
 833 02d8 00000000 		.word	_ZN3oam12time_machineL11patch_sm_hwE
ARM GAS  /var/folders/v1/156fk8j97zv9pzndh61fy7zm0000gn/T//ccQgUds1.s 			page 33


 834 02dc 05080509 		.word	151324677
 835 02e0 05070506 		.word	100992773
 836 02e4 04020404 		.word	67371524
 837 02e8 010A010B 		.word	184617473
 838 02ec 00000000 		.word	_ZN3oam12time_machine19TimeMachineHardware2C1E
 839 02f0 00000000 		.word	_ZN3oam12time_machine19TimeMachineHardware2B5E
 840 02f4 00000000 		.word	_ZN3oam12time_machine19TimeMachineHardware2B6E
 841 02f8 6F12033B 		.word	990057071
 842 02fc 00000000 		.word	_ZN3oam12time_machineL12PIN_USER_LEDE
 843 0300 00000000 		.word	_ZN3oam12time_machine19TimeMachineHardware3B10E
 844 0304 00000000 		.word	_ZN3oam12time_machine19TimeMachineHardware2B9E
 845 0308 00000000 		.word	.LANCHOR0
 846              	.LBE372:
 847              		.cfi_endproc
 848              	.LFE3004:
 850              		.section	.text._ZN3oam12time_machine19TimeMachineHardware10StartAudioEPFvPKPKfPPfjE,"ax",%progbits
 851              		.align	1
 852              		.p2align 2,,3
 853              		.global	_ZN3oam12time_machine19TimeMachineHardware10StartAudioEPFvPKPKfPPfjE
 854              		.syntax unified
 855              		.thumb
 856              		.thumb_func
 858              	_ZN3oam12time_machine19TimeMachineHardware10StartAudioEPFvPKPKfPPfjE:
 859              	.LVL62:
 860              	.LFB3005:
 425:time_machine_hardware.cpp ****         audio.Start(cb);
 861              		.loc 1 425 5 view -0
 862              		.cfi_startproc
 863              		@ args = 0, pretend = 0, frame = 0
 864              		@ frame_needed = 0, uses_anonymous_args = 0
 865              		@ link register save eliminated.
 426:time_machine_hardware.cpp ****     }
 866              		.loc 1 426 9 view .LVU281
 426:time_machine_hardware.cpp ****     }
 867              		.loc 1 426 20 is_stmt 0 view .LVU282
 868 0000 1030     		adds	r0, r0, #16
 869              	.LVL63:
 426:time_machine_hardware.cpp ****     }
 870              		.loc 1 426 20 view .LVU283
 871 0002 FFF7FEBF 		b	_ZN5daisy11AudioHandle5StartEPFvPKPKfPPfjE
 872              	.LVL64:
 426:time_machine_hardware.cpp ****     }
 873              		.loc 1 426 20 view .LVU284
 874              		.cfi_endproc
 875              	.LFE3005:
 877 0006 00BF     		.section	.text._ZN3oam12time_machine19TimeMachineHardware10StartAudioEPFvPKfPfjE,"ax",%progbits
 878              		.align	1
 879              		.p2align 2,,3
 880              		.global	_ZN3oam12time_machine19TimeMachineHardware10StartAudioEPFvPKfPfjE
 881              		.syntax unified
 882              		.thumb
 883              		.thumb_func
 885              	_ZN3oam12time_machine19TimeMachineHardware10StartAudioEPFvPKfPfjE:
 886              	.LVL65:
 887              	.LFB3006:
 430:time_machine_hardware.cpp ****         audio.Start(cb);
 888              		.loc 1 430 5 is_stmt 1 view -0
ARM GAS  /var/folders/v1/156fk8j97zv9pzndh61fy7zm0000gn/T//ccQgUds1.s 			page 34


 889              		.cfi_startproc
 890              		@ args = 0, pretend = 0, frame = 0
 891              		@ frame_needed = 0, uses_anonymous_args = 0
 892              		@ link register save eliminated.
 431:time_machine_hardware.cpp ****     }
 893              		.loc 1 431 9 view .LVU286
 431:time_machine_hardware.cpp ****     }
 894              		.loc 1 431 20 is_stmt 0 view .LVU287
 895 0000 1030     		adds	r0, r0, #16
 896              	.LVL66:
 431:time_machine_hardware.cpp ****     }
 897              		.loc 1 431 20 view .LVU288
 898 0002 FFF7FEBF 		b	_ZN5daisy11AudioHandle5StartEPFvPKfPfjE
 899              	.LVL67:
 431:time_machine_hardware.cpp ****     }
 900              		.loc 1 431 20 view .LVU289
 901              		.cfi_endproc
 902              	.LFE3006:
 904 0006 00BF     		.section	.text._ZN3oam12time_machine19TimeMachineHardware19ChangeAudioCallbackEPFvPKPKfPPfjE,"ax",
 905              		.align	1
 906              		.p2align 2,,3
 907              		.global	_ZN3oam12time_machine19TimeMachineHardware19ChangeAudioCallbackEPFvPKPKfPPfjE
 908              		.syntax unified
 909              		.thumb
 910              		.thumb_func
 912              	_ZN3oam12time_machine19TimeMachineHardware19ChangeAudioCallbackEPFvPKPKfPPfjE:
 913              	.LVL68:
 914              	.LFB3007:
 435:time_machine_hardware.cpp ****         audio.ChangeCallback(cb);
 915              		.loc 1 435 5 is_stmt 1 view -0
 916              		.cfi_startproc
 917              		@ args = 0, pretend = 0, frame = 0
 918              		@ frame_needed = 0, uses_anonymous_args = 0
 919              		@ link register save eliminated.
 436:time_machine_hardware.cpp ****     }
 920              		.loc 1 436 9 view .LVU291
 436:time_machine_hardware.cpp ****     }
 921              		.loc 1 436 29 is_stmt 0 view .LVU292
 922 0000 1030     		adds	r0, r0, #16
 923              	.LVL69:
 436:time_machine_hardware.cpp ****     }
 924              		.loc 1 436 29 view .LVU293
 925 0002 FFF7FEBF 		b	_ZN5daisy11AudioHandle14ChangeCallbackEPFvPKPKfPPfjE
 926              	.LVL70:
 436:time_machine_hardware.cpp ****     }
 927              		.loc 1 436 29 view .LVU294
 928              		.cfi_endproc
 929              	.LFE3007:
 931 0006 00BF     		.section	.text._ZN3oam12time_machine19TimeMachineHardware19ChangeAudioCallbackEPFvPKfPfjE,"ax",%pr
 932              		.align	1
 933              		.p2align 2,,3
 934              		.global	_ZN3oam12time_machine19TimeMachineHardware19ChangeAudioCallbackEPFvPKfPfjE
 935              		.syntax unified
 936              		.thumb
 937              		.thumb_func
 939              	_ZN3oam12time_machine19TimeMachineHardware19ChangeAudioCallbackEPFvPKfPfjE:
 940              	.LVL71:
ARM GAS  /var/folders/v1/156fk8j97zv9pzndh61fy7zm0000gn/T//ccQgUds1.s 			page 35


 941              	.LFB3008:
 441:time_machine_hardware.cpp ****         audio.ChangeCallback(cb);
 942              		.loc 1 441 5 is_stmt 1 view -0
 943              		.cfi_startproc
 944              		@ args = 0, pretend = 0, frame = 0
 945              		@ frame_needed = 0, uses_anonymous_args = 0
 946              		@ link register save eliminated.
 442:time_machine_hardware.cpp ****     }
 947              		.loc 1 442 9 view .LVU296
 442:time_machine_hardware.cpp ****     }
 948              		.loc 1 442 29 is_stmt 0 view .LVU297
 949 0000 1030     		adds	r0, r0, #16
 950              	.LVL72:
 442:time_machine_hardware.cpp ****     }
 951              		.loc 1 442 29 view .LVU298
 952 0002 FFF7FEBF 		b	_ZN5daisy11AudioHandle14ChangeCallbackEPFvPKfPfjE
 953              	.LVL73:
 442:time_machine_hardware.cpp ****     }
 954              		.loc 1 442 29 view .LVU299
 955              		.cfi_endproc
 956              	.LFE3008:
 958 0006 00BF     		.section	.text._ZN3oam12time_machine19TimeMachineHardware9StopAudioEv,"ax",%progbits
 959              		.align	1
 960              		.p2align 2,,3
 961              		.global	_ZN3oam12time_machine19TimeMachineHardware9StopAudioEv
 962              		.syntax unified
 963              		.thumb
 964              		.thumb_func
 966              	_ZN3oam12time_machine19TimeMachineHardware9StopAudioEv:
 967              	.LVL74:
 968              	.LFB3009:
 445:time_machine_hardware.cpp **** 
 969              		.loc 1 445 43 is_stmt 1 view -0
 970              		.cfi_startproc
 971              		@ args = 0, pretend = 0, frame = 0
 972              		@ frame_needed = 0, uses_anonymous_args = 0
 973              		@ link register save eliminated.
 445:time_machine_hardware.cpp **** 
 974              		.loc 1 445 45 view .LVU301
 445:time_machine_hardware.cpp **** 
 975              		.loc 1 445 55 is_stmt 0 view .LVU302
 976 0000 1030     		adds	r0, r0, #16
 977              	.LVL75:
 445:time_machine_hardware.cpp **** 
 978              		.loc 1 445 55 view .LVU303
 979 0002 FFF7FEBF 		b	_ZN5daisy11AudioHandle4StopEv
 980              	.LVL76:
 445:time_machine_hardware.cpp **** 
 981              		.loc 1 445 55 view .LVU304
 982              		.cfi_endproc
 983              	.LFE3009:
 985 0006 00BF     		.section	.text._ZN3oam12time_machine19TimeMachineHardware17SetAudioBlockSizeEj,"ax",%progbits
 986              		.align	1
 987              		.p2align 2,,3
 988              		.global	_ZN3oam12time_machine19TimeMachineHardware17SetAudioBlockSizeEj
 989              		.syntax unified
 990              		.thumb
ARM GAS  /var/folders/v1/156fk8j97zv9pzndh61fy7zm0000gn/T//ccQgUds1.s 			page 36


 991              		.thumb_func
 993              	_ZN3oam12time_machine19TimeMachineHardware17SetAudioBlockSizeEj:
 994              	.LVL77:
 995              	.LFB3010:
 448:time_machine_hardware.cpp ****         audio.SetBlockSize(size);
 996              		.loc 1 448 5 is_stmt 1 view -0
 997              		.cfi_startproc
 998              		@ args = 0, pretend = 0, frame = 0
 999              		@ frame_needed = 0, uses_anonymous_args = 0
 449:time_machine_hardware.cpp ****         callback_rate_ = AudioSampleRate() / AudioBlockSize();
 1000              		.loc 1 449 9 view .LVU306
 448:time_machine_hardware.cpp ****         audio.SetBlockSize(size);
 1001              		.loc 1 448 5 is_stmt 0 view .LVU307
 1002 0000 70B5     		push	{r4, r5, r6, lr}
 1003              		.cfi_def_cfa_offset 16
 1004              		.cfi_offset 4, -16
 1005              		.cfi_offset 5, -12
 1006              		.cfi_offset 6, -8
 1007              		.cfi_offset 14, -4
 449:time_machine_hardware.cpp ****         callback_rate_ = AudioSampleRate() / AudioBlockSize();
 1008              		.loc 1 449 27 view .LVU308
 1009 0002 00F11004 		add	r4, r0, #16
 448:time_machine_hardware.cpp ****         audio.SetBlockSize(size);
 1010              		.loc 1 448 5 view .LVU309
 1011 0006 0546     		mov	r5, r0
 1012 0008 2DED028B 		vpush.64	{d8}
 1013              		.cfi_def_cfa_offset 24
 1014              		.cfi_offset 80, -24
 1015              		.cfi_offset 81, -20
 449:time_machine_hardware.cpp ****         callback_rate_ = AudioSampleRate() / AudioBlockSize();
 1016              		.loc 1 449 27 view .LVU310
 1017 000c 2046     		mov	r0, r4
 1018              	.LVL78:
 449:time_machine_hardware.cpp ****         callback_rate_ = AudioSampleRate() / AudioBlockSize();
 1019              		.loc 1 449 27 view .LVU311
 1020 000e 05F5D876 		add	r6, r5, #432
 1021 0012 FFF7FEFF 		bl	_ZN5daisy11AudioHandle12SetBlockSizeEj
 1022              	.LVL79:
 450:time_machine_hardware.cpp ****         for(size_t i = 0; i < ADC_LAST; i++)
 1023              		.loc 1 450 9 is_stmt 1 view .LVU312
 1024              	.LBB373:
 1025              	.LBI373:
 501:time_machine_hardware.cpp **** 
 1026              		.loc 1 501 11 view .LVU313
 1027              	.LBB374:
 501:time_machine_hardware.cpp **** 
 1028              		.loc 1 501 52 view .LVU314
 501:time_machine_hardware.cpp **** 
 1029              		.loc 1 501 78 is_stmt 0 view .LVU315
 1030 0016 2046     		mov	r0, r4
 1031 0018 FFF7FEFF 		bl	_ZN5daisy11AudioHandle13GetSampleRateEv
 1032              	.LVL80:
 1033              	.LBE374:
 1034              	.LBE373:
 1035              	.LBB376:
 1036              	.LBB377:
 498:time_machine_hardware.cpp ****     }
ARM GAS  /var/folders/v1/156fk8j97zv9pzndh61fy7zm0000gn/T//ccQgUds1.s 			page 37


 1037              		.loc 1 498 31 view .LVU316
 1038 001c 2046     		mov	r0, r4
 1039              	.LBE377:
 1040              	.LBE376:
 1041              	.LBB379:
 1042              	.LBB375:
 501:time_machine_hardware.cpp **** 
 1043              		.loc 1 501 78 view .LVU317
 1044 001e B0EE408A 		vmov.f32	s16, s0
 1045              	.LVL81:
 501:time_machine_hardware.cpp **** 
 1046              		.loc 1 501 78 view .LVU318
 1047              	.LBE375:
 1048              	.LBE379:
 1049              	.LBB380:
 1050              	.LBI376:
 496:time_machine_hardware.cpp ****     {
 1051              		.loc 1 496 12 is_stmt 1 view .LVU319
 1052              	.LBB378:
 498:time_machine_hardware.cpp ****     }
 1053              		.loc 1 498 9 view .LVU320
 498:time_machine_hardware.cpp ****     }
 1054              		.loc 1 498 31 is_stmt 0 view .LVU321
 1055 0022 FFF7FEFF 		bl	_ZNK5daisy11AudioHandle9GetConfigEv
 1056              	.LVL82:
 498:time_machine_hardware.cpp ****     }
 1057              		.loc 1 498 31 view .LVU322
 1058              	.LBE378:
 1059              	.LBE380:
 450:time_machine_hardware.cpp ****         for(size_t i = 0; i < ADC_LAST; i++)
 1060              		.loc 1 450 44 discriminator 2 view .LVU323
 1061 0026 D0ED007A 		vldr.32	s15, [r0]	@ int
 1062 002a 05F13004 		add	r4, r5, #48
 1063 002e F8EE677A 		vcvt.f32.u32	s15, s15
 1064 0032 88EE270A 		vdiv.f32	s0, s16, s15
 450:time_machine_hardware.cpp ****         for(size_t i = 0; i < ADC_LAST; i++)
 1065              		.loc 1 450 24 discriminator 2 view .LVU324
 1066 0036 85ED7A0A 		vstr.32	s0, [r5, #488]
 451:time_machine_hardware.cpp ****         {
 1067              		.loc 1 451 9 is_stmt 1 view .LVU325
 1068              	.LVL83:
 1069              	.LBB381:
 451:time_machine_hardware.cpp ****         {
 1070              		.loc 1 451 29 discriminator 1 view .LVU326
 1071 003a 01E0     		b	.L37
 1072              	.LVL84:
 1073              	.L39:
 453:time_machine_hardware.cpp ****         }
 1074              		.loc 1 453 38 is_stmt 0 view .LVU327
 1075 003c 95ED7A0A 		vldr.32	s0, [r5, #488]
 1076              	.L37:
 453:time_machine_hardware.cpp ****         }
 1077              		.loc 1 453 13 is_stmt 1 view .LVU328
 453:time_machine_hardware.cpp ****         }
 1078              		.loc 1 453 38 is_stmt 0 view .LVU329
 1079 0040 2046     		mov	r0, r4
 451:time_machine_hardware.cpp ****         {
ARM GAS  /var/folders/v1/156fk8j97zv9pzndh61fy7zm0000gn/T//ccQgUds1.s 			page 38


 1080              		.loc 1 451 29 discriminator 1 view .LVU330
 1081 0042 2034     		adds	r4, r4, #32
 453:time_machine_hardware.cpp ****         }
 1082              		.loc 1 453 38 view .LVU331
 1083 0044 FFF7FEFF 		bl	_ZN5daisy13AnalogControl13SetSampleRateEf
 1084              	.LVL85:
 451:time_machine_hardware.cpp ****         {
 1085              		.loc 1 451 9 is_stmt 1 discriminator 3 view .LVU332
 451:time_machine_hardware.cpp ****         {
 1086              		.loc 1 451 29 discriminator 1 view .LVU333
 1087 0048 B442     		cmp	r4, r6
 1088 004a F7D1     		bne	.L39
 1089              	.LBE381:
 455:time_machine_hardware.cpp **** 
 1090              		.loc 1 455 5 is_stmt 0 view .LVU334
 1091 004c BDEC028B 		vldm	sp!, {d8}
 1092              		.cfi_restore 80
 1093              		.cfi_restore 81
 1094              		.cfi_def_cfa_offset 16
 1095 0050 70BD     		pop	{r4, r5, r6, pc}
 455:time_machine_hardware.cpp **** 
 1096              		.loc 1 455 5 view .LVU335
 1097              		.cfi_endproc
 1098              	.LFE3010:
 1100 0052 00BF     		.section	.text._ZN3oam12time_machine19TimeMachineHardware18SetAudioSampleRateEf,"ax",%progbits
 1101              		.align	1
 1102              		.p2align 2,,3
 1103              		.global	_ZN3oam12time_machine19TimeMachineHardware18SetAudioSampleRateEf
 1104              		.syntax unified
 1105              		.thumb
 1106              		.thumb_func
 1108              	_ZN3oam12time_machine19TimeMachineHardware18SetAudioSampleRateEf:
 1109              	.LVL86:
 1110              	.LFB3011:
 458:time_machine_hardware.cpp ****         SaiHandle::Config::SampleRate sai_sr;
 1111              		.loc 1 458 5 is_stmt 1 view -0
 1112              		.cfi_startproc
 1113              		@ args = 0, pretend = 0, frame = 0
 1114              		@ frame_needed = 0, uses_anonymous_args = 0
 459:time_machine_hardware.cpp ****         switch(int(sr))
 1115              		.loc 1 459 9 view .LVU337
 460:time_machine_hardware.cpp ****         {
 1116              		.loc 1 460 9 view .LVU338
 460:time_machine_hardware.cpp ****         {
 1117              		.loc 1 460 16 is_stmt 0 view .LVU339
 1118 0000 FDEEC07A 		vcvt.s32.f32	s15, s0
 458:time_machine_hardware.cpp ****         SaiHandle::Config::SampleRate sai_sr;
 1119              		.loc 1 458 5 view .LVU340
 1120 0004 70B5     		push	{r4, r5, r6, lr}
 1121              		.cfi_def_cfa_offset 16
 1122              		.cfi_offset 4, -16
 1123              		.cfi_offset 5, -12
 1124              		.cfi_offset 6, -8
 1125              		.cfi_offset 14, -4
 460:time_machine_hardware.cpp ****         {
 1126              		.loc 1 460 16 view .LVU341
 1127 0006 17EE901A 		vmov	r1, s15	@ int
ARM GAS  /var/folders/v1/156fk8j97zv9pzndh61fy7zm0000gn/T//ccQgUds1.s 			page 39


 458:time_machine_hardware.cpp ****         SaiHandle::Config::SampleRate sai_sr;
 1128              		.loc 1 458 5 view .LVU342
 1129 000a 0546     		mov	r5, r0
 460:time_machine_hardware.cpp ****         {
 1130              		.loc 1 460 9 view .LVU343
 1131 000c B1F5FA4F 		cmp	r1, #32000
 458:time_machine_hardware.cpp ****         SaiHandle::Config::SampleRate sai_sr;
 1132              		.loc 1 458 5 view .LVU344
 1133 0010 2DED028B 		vpush.64	{d8}
 1134              		.cfi_def_cfa_offset 24
 1135              		.cfi_offset 80, -24
 1136              		.cfi_offset 81, -20
 460:time_machine_hardware.cpp ****         {
 1137              		.loc 1 460 9 view .LVU345
 1138 0014 33D0     		beq	.L45
 1139 0016 2CDC     		bgt	.L42
 1140 0018 B1F5FA5F 		cmp	r1, #8000
 1141 001c 31D0     		beq	.L46
 1142 001e B1F57A5F 		cmp	r1, #16000
 1143 0022 14BF     		ite	ne
 1144 0024 0321     		movne	r1, #3
 1145 0026 0121     		moveq	r1, #1
 1146              	.L41:
 1147              	.LVL87:
 477:time_machine_hardware.cpp ****         callback_rate_ = AudioSampleRate() / AudioBlockSize();
 1148              		.loc 1 477 9 is_stmt 1 view .LVU346
 477:time_machine_hardware.cpp ****         callback_rate_ = AudioSampleRate() / AudioBlockSize();
 1149              		.loc 1 477 28 is_stmt 0 view .LVU347
 1150 0028 05F11004 		add	r4, r5, #16
 1151 002c 05F5D876 		add	r6, r5, #432
 1152 0030 2046     		mov	r0, r4
 1153              	.LVL88:
 477:time_machine_hardware.cpp ****         callback_rate_ = AudioSampleRate() / AudioBlockSize();
 1154              		.loc 1 477 28 view .LVU348
 1155 0032 FFF7FEFF 		bl	_ZN5daisy11AudioHandle13SetSampleRateENS_9SaiHandle6Config10SampleRateE
 1156              	.LVL89:
 478:time_machine_hardware.cpp ****         for(size_t i = 0; i < ADC_LAST; i++)
 1157              		.loc 1 478 9 is_stmt 1 view .LVU349
 1158              	.LBB382:
 1159              	.LBI382:
 501:time_machine_hardware.cpp **** 
 1160              		.loc 1 501 11 view .LVU350
 1161              	.LBB383:
 501:time_machine_hardware.cpp **** 
 1162              		.loc 1 501 52 view .LVU351
 501:time_machine_hardware.cpp **** 
 1163              		.loc 1 501 78 is_stmt 0 view .LVU352
 1164 0036 2046     		mov	r0, r4
 1165 0038 FFF7FEFF 		bl	_ZN5daisy11AudioHandle13GetSampleRateEv
 1166              	.LVL90:
 1167              	.LBE383:
 1168              	.LBE382:
 1169              	.LBB385:
 1170              	.LBB386:
 498:time_machine_hardware.cpp ****     }
 1171              		.loc 1 498 31 view .LVU353
 1172 003c 2046     		mov	r0, r4
ARM GAS  /var/folders/v1/156fk8j97zv9pzndh61fy7zm0000gn/T//ccQgUds1.s 			page 40


 1173              	.LBE386:
 1174              	.LBE385:
 1175              	.LBB388:
 1176              	.LBB384:
 501:time_machine_hardware.cpp **** 
 1177              		.loc 1 501 78 view .LVU354
 1178 003e B0EE408A 		vmov.f32	s16, s0
 1179              	.LVL91:
 501:time_machine_hardware.cpp **** 
 1180              		.loc 1 501 78 view .LVU355
 1181              	.LBE384:
 1182              	.LBE388:
 1183              	.LBB389:
 1184              	.LBI385:
 496:time_machine_hardware.cpp ****     {
 1185              		.loc 1 496 12 is_stmt 1 view .LVU356
 1186              	.LBB387:
 498:time_machine_hardware.cpp ****     }
 1187              		.loc 1 498 9 view .LVU357
 498:time_machine_hardware.cpp ****     }
 1188              		.loc 1 498 31 is_stmt 0 view .LVU358
 1189 0042 FFF7FEFF 		bl	_ZNK5daisy11AudioHandle9GetConfigEv
 1190              	.LVL92:
 498:time_machine_hardware.cpp ****     }
 1191              		.loc 1 498 31 view .LVU359
 1192              	.LBE387:
 1193              	.LBE389:
 478:time_machine_hardware.cpp ****         for(size_t i = 0; i < ADC_LAST; i++)
 1194              		.loc 1 478 44 discriminator 2 view .LVU360
 1195 0046 D0ED007A 		vldr.32	s15, [r0]	@ int
 1196 004a 05F13004 		add	r4, r5, #48
 1197 004e F8EE677A 		vcvt.f32.u32	s15, s15
 1198 0052 88EE270A 		vdiv.f32	s0, s16, s15
 478:time_machine_hardware.cpp ****         for(size_t i = 0; i < ADC_LAST; i++)
 1199              		.loc 1 478 24 discriminator 2 view .LVU361
 1200 0056 85ED7A0A 		vstr.32	s0, [r5, #488]
 479:time_machine_hardware.cpp ****         {
 1201              		.loc 1 479 9 is_stmt 1 view .LVU362
 1202              	.LVL93:
 1203              	.LBB390:
 479:time_machine_hardware.cpp ****         {
 1204              		.loc 1 479 29 discriminator 1 view .LVU363
 1205 005a 01E0     		b	.L44
 1206              	.LVL94:
 1207              	.L50:
 481:time_machine_hardware.cpp ****         }
 1208              		.loc 1 481 38 is_stmt 0 view .LVU364
 1209 005c 95ED7A0A 		vldr.32	s0, [r5, #488]
 1210              	.L44:
 481:time_machine_hardware.cpp ****         }
 1211              		.loc 1 481 13 is_stmt 1 view .LVU365
 481:time_machine_hardware.cpp ****         }
 1212              		.loc 1 481 38 is_stmt 0 view .LVU366
 1213 0060 2046     		mov	r0, r4
 479:time_machine_hardware.cpp ****         {
 1214              		.loc 1 479 29 discriminator 1 view .LVU367
 1215 0062 2034     		adds	r4, r4, #32
ARM GAS  /var/folders/v1/156fk8j97zv9pzndh61fy7zm0000gn/T//ccQgUds1.s 			page 41


 481:time_machine_hardware.cpp ****         }
 1216              		.loc 1 481 38 view .LVU368
 1217 0064 FFF7FEFF 		bl	_ZN5daisy13AnalogControl13SetSampleRateEf
 1218              	.LVL95:
 479:time_machine_hardware.cpp ****         {
 1219              		.loc 1 479 9 is_stmt 1 discriminator 3 view .LVU369
 479:time_machine_hardware.cpp ****         {
 1220              		.loc 1 479 29 discriminator 1 view .LVU370
 1221 0068 B442     		cmp	r4, r6
 1222 006a F7D1     		bne	.L50
 1223              	.LBE390:
 483:time_machine_hardware.cpp **** 
 1224              		.loc 1 483 5 is_stmt 0 view .LVU371
 1225 006c BDEC028B 		vldm	sp!, {d8}
 1226              		.cfi_remember_state
 1227              		.cfi_restore 80
 1228              		.cfi_restore 81
 1229              		.cfi_def_cfa_offset 16
 1230 0070 70BD     		pop	{r4, r5, r6, pc}
 1231              	.LVL96:
 1232              	.L42:
 1233              		.cfi_restore_state
 460:time_machine_hardware.cpp ****         {
 1234              		.loc 1 460 9 view .LVU372
 1235 0072 054B     		ldr	r3, .L51
 473:time_machine_hardware.cpp ****                 break;
 1236              		.loc 1 473 24 view .LVU373
 1237 0074 9942     		cmp	r1, r3
 1238 0076 14BF     		ite	ne
 1239 0078 0321     		movne	r1, #3
 1240 007a 0421     		moveq	r1, #4
 1241 007c D4E7     		b	.L41
 1242              	.L45:
 467:time_machine_hardware.cpp ****                 break;
 1243              		.loc 1 467 24 view .LVU374
 1244 007e 0221     		movs	r1, #2
 1245 0080 D2E7     		b	.L41
 1246              	.L46:
 462:time_machine_hardware.cpp ****             case 16000:
 1247              		.loc 1 462 31 view .LVU375
 1248 0082 0021     		movs	r1, #0
 1249 0084 D0E7     		b	.L41
 1250              	.L52:
 1251 0086 00BF     		.align	2
 1252              	.L51:
 1253 0088 00770100 		.word	96000
 1254              		.cfi_endproc
 1255              	.LFE3011:
 1257              		.section	.text._ZN3oam12time_machine19TimeMachineHardware18SetAudioSampleRateEN5daisy9SaiHandle6Co
 1258              		.align	1
 1259              		.p2align 2,,3
 1260              		.global	_ZN3oam12time_machine19TimeMachineHardware18SetAudioSampleRateEN5daisy9SaiHandle6Config10S
 1261              		.syntax unified
 1262              		.thumb
 1263              		.thumb_func
 1265              	_ZN3oam12time_machine19TimeMachineHardware18SetAudioSampleRateEN5daisy9SaiHandle6Config10SampleRate
 1266              	.LVL97:
ARM GAS  /var/folders/v1/156fk8j97zv9pzndh61fy7zm0000gn/T//ccQgUds1.s 			page 42


 1267              	.LFB3012:
 487:time_machine_hardware.cpp ****         audio.SetSampleRate(sample_rate);
 1268              		.loc 1 487 5 is_stmt 1 view -0
 1269              		.cfi_startproc
 1270              		@ args = 0, pretend = 0, frame = 0
 1271              		@ frame_needed = 0, uses_anonymous_args = 0
 488:time_machine_hardware.cpp ****         callback_rate_ = AudioSampleRate() / AudioBlockSize();
 1272              		.loc 1 488 9 view .LVU377
 487:time_machine_hardware.cpp ****         audio.SetSampleRate(sample_rate);
 1273              		.loc 1 487 5 is_stmt 0 view .LVU378
 1274 0000 70B5     		push	{r4, r5, r6, lr}
 1275              		.cfi_def_cfa_offset 16
 1276              		.cfi_offset 4, -16
 1277              		.cfi_offset 5, -12
 1278              		.cfi_offset 6, -8
 1279              		.cfi_offset 14, -4
 488:time_machine_hardware.cpp ****         callback_rate_ = AudioSampleRate() / AudioBlockSize();
 1280              		.loc 1 488 28 view .LVU379
 1281 0002 00F11004 		add	r4, r0, #16
 487:time_machine_hardware.cpp ****         audio.SetSampleRate(sample_rate);
 1282              		.loc 1 487 5 view .LVU380
 1283 0006 0546     		mov	r5, r0
 1284 0008 2DED028B 		vpush.64	{d8}
 1285              		.cfi_def_cfa_offset 24
 1286              		.cfi_offset 80, -24
 1287              		.cfi_offset 81, -20
 488:time_machine_hardware.cpp ****         callback_rate_ = AudioSampleRate() / AudioBlockSize();
 1288              		.loc 1 488 28 view .LVU381
 1289 000c 2046     		mov	r0, r4
 1290              	.LVL98:
 488:time_machine_hardware.cpp ****         callback_rate_ = AudioSampleRate() / AudioBlockSize();
 1291              		.loc 1 488 28 view .LVU382
 1292 000e 05F5D876 		add	r6, r5, #432
 1293 0012 FFF7FEFF 		bl	_ZN5daisy11AudioHandle13SetSampleRateENS_9SaiHandle6Config10SampleRateE
 1294              	.LVL99:
 489:time_machine_hardware.cpp ****         for(size_t i = 0; i < ADC_LAST; i++)
 1295              		.loc 1 489 9 is_stmt 1 view .LVU383
 1296              	.LBB391:
 1297              	.LBI391:
 501:time_machine_hardware.cpp **** 
 1298              		.loc 1 501 11 view .LVU384
 1299              	.LBB392:
 501:time_machine_hardware.cpp **** 
 1300              		.loc 1 501 52 view .LVU385
 501:time_machine_hardware.cpp **** 
 1301              		.loc 1 501 78 is_stmt 0 view .LVU386
 1302 0016 2046     		mov	r0, r4
 1303 0018 FFF7FEFF 		bl	_ZN5daisy11AudioHandle13GetSampleRateEv
 1304              	.LVL100:
 1305              	.LBE392:
 1306              	.LBE391:
 1307              	.LBB394:
 1308              	.LBB395:
 498:time_machine_hardware.cpp ****     }
 1309              		.loc 1 498 31 view .LVU387
 1310 001c 2046     		mov	r0, r4
 1311              	.LBE395:
ARM GAS  /var/folders/v1/156fk8j97zv9pzndh61fy7zm0000gn/T//ccQgUds1.s 			page 43


 1312              	.LBE394:
 1313              	.LBB397:
 1314              	.LBB393:
 501:time_machine_hardware.cpp **** 
 1315              		.loc 1 501 78 view .LVU388
 1316 001e B0EE408A 		vmov.f32	s16, s0
 1317              	.LVL101:
 501:time_machine_hardware.cpp **** 
 1318              		.loc 1 501 78 view .LVU389
 1319              	.LBE393:
 1320              	.LBE397:
 1321              	.LBB398:
 1322              	.LBI394:
 496:time_machine_hardware.cpp ****     {
 1323              		.loc 1 496 12 is_stmt 1 view .LVU390
 1324              	.LBB396:
 498:time_machine_hardware.cpp ****     }
 1325              		.loc 1 498 9 view .LVU391
 498:time_machine_hardware.cpp ****     }
 1326              		.loc 1 498 31 is_stmt 0 view .LVU392
 1327 0022 FFF7FEFF 		bl	_ZNK5daisy11AudioHandle9GetConfigEv
 1328              	.LVL102:
 498:time_machine_hardware.cpp ****     }
 1329              		.loc 1 498 31 view .LVU393
 1330              	.LBE396:
 1331              	.LBE398:
 489:time_machine_hardware.cpp ****         for(size_t i = 0; i < ADC_LAST; i++)
 1332              		.loc 1 489 44 discriminator 2 view .LVU394
 1333 0026 D0ED007A 		vldr.32	s15, [r0]	@ int
 1334 002a 05F13004 		add	r4, r5, #48
 1335 002e F8EE677A 		vcvt.f32.u32	s15, s15
 1336 0032 88EE270A 		vdiv.f32	s0, s16, s15
 489:time_machine_hardware.cpp ****         for(size_t i = 0; i < ADC_LAST; i++)
 1337              		.loc 1 489 24 discriminator 2 view .LVU395
 1338 0036 85ED7A0A 		vstr.32	s0, [r5, #488]
 490:time_machine_hardware.cpp ****         {
 1339              		.loc 1 490 9 is_stmt 1 view .LVU396
 1340              	.LVL103:
 1341              	.LBB399:
 490:time_machine_hardware.cpp ****         {
 1342              		.loc 1 490 29 discriminator 1 view .LVU397
 1343 003a 01E0     		b	.L55
 1344              	.LVL104:
 1345              	.L57:
 492:time_machine_hardware.cpp ****         }
 1346              		.loc 1 492 38 is_stmt 0 view .LVU398
 1347 003c 95ED7A0A 		vldr.32	s0, [r5, #488]
 1348              	.L55:
 492:time_machine_hardware.cpp ****         }
 1349              		.loc 1 492 13 is_stmt 1 view .LVU399
 492:time_machine_hardware.cpp ****         }
 1350              		.loc 1 492 38 is_stmt 0 view .LVU400
 1351 0040 2046     		mov	r0, r4
 490:time_machine_hardware.cpp ****         {
 1352              		.loc 1 490 29 discriminator 1 view .LVU401
 1353 0042 2034     		adds	r4, r4, #32
 492:time_machine_hardware.cpp ****         }
ARM GAS  /var/folders/v1/156fk8j97zv9pzndh61fy7zm0000gn/T//ccQgUds1.s 			page 44


 1354              		.loc 1 492 38 view .LVU402
 1355 0044 FFF7FEFF 		bl	_ZN5daisy13AnalogControl13SetSampleRateEf
 1356              	.LVL105:
 490:time_machine_hardware.cpp ****         {
 1357              		.loc 1 490 9 is_stmt 1 discriminator 3 view .LVU403
 490:time_machine_hardware.cpp ****         {
 1358              		.loc 1 490 29 discriminator 1 view .LVU404
 1359 0048 B442     		cmp	r4, r6
 1360 004a F7D1     		bne	.L57
 1361              	.LBE399:
 494:time_machine_hardware.cpp **** 
 1362              		.loc 1 494 5 is_stmt 0 view .LVU405
 1363 004c BDEC028B 		vldm	sp!, {d8}
 1364              		.cfi_restore 80
 1365              		.cfi_restore 81
 1366              		.cfi_def_cfa_offset 16
 1367 0050 70BD     		pop	{r4, r5, r6, pc}
 494:time_machine_hardware.cpp **** 
 1368              		.loc 1 494 5 view .LVU406
 1369              		.cfi_endproc
 1370              	.LFE3012:
 1372 0052 00BF     		.section	.text._ZN3oam12time_machine19TimeMachineHardware14AudioBlockSizeEv,"ax",%progbits
 1373              		.align	1
 1374              		.p2align 2,,3
 1375              		.global	_ZN3oam12time_machine19TimeMachineHardware14AudioBlockSizeEv
 1376              		.syntax unified
 1377              		.thumb
 1378              		.thumb_func
 1380              	_ZN3oam12time_machine19TimeMachineHardware14AudioBlockSizeEv:
 1381              	.LVL106:
 1382              	.LFB3013:
 497:time_machine_hardware.cpp ****         return audio.GetConfig().blocksize;
 1383              		.loc 1 497 5 is_stmt 1 view -0
 1384              		.cfi_startproc
 1385              		@ args = 0, pretend = 0, frame = 0
 1386              		@ frame_needed = 0, uses_anonymous_args = 0
 498:time_machine_hardware.cpp ****     }
 1387              		.loc 1 498 9 view .LVU408
 497:time_machine_hardware.cpp ****         return audio.GetConfig().blocksize;
 1388              		.loc 1 497 5 is_stmt 0 view .LVU409
 1389 0000 08B5     		push	{r3, lr}
 1390              		.cfi_def_cfa_offset 8
 1391              		.cfi_offset 3, -8
 1392              		.cfi_offset 14, -4
 498:time_machine_hardware.cpp ****     }
 1393              		.loc 1 498 31 view .LVU410
 1394 0002 1030     		adds	r0, r0, #16
 1395              	.LVL107:
 498:time_machine_hardware.cpp ****     }
 1396              		.loc 1 498 31 view .LVU411
 1397 0004 FFF7FEFF 		bl	_ZNK5daisy11AudioHandle9GetConfigEv
 1398              	.LVL108:
 499:time_machine_hardware.cpp **** 
 1399              		.loc 1 499 5 view .LVU412
 1400 0008 0068     		ldr	r0, [r0]
 1401 000a 08BD     		pop	{r3, pc}
 1402              		.cfi_endproc
ARM GAS  /var/folders/v1/156fk8j97zv9pzndh61fy7zm0000gn/T//ccQgUds1.s 			page 45


 1403              	.LFE3013:
 1405              		.section	.text._ZN3oam12time_machine19TimeMachineHardware15AudioSampleRateEv,"ax",%progbits
 1406              		.align	1
 1407              		.p2align 2,,3
 1408              		.global	_ZN3oam12time_machine19TimeMachineHardware15AudioSampleRateEv
 1409              		.syntax unified
 1410              		.thumb
 1411              		.thumb_func
 1413              	_ZN3oam12time_machine19TimeMachineHardware15AudioSampleRateEv:
 1414              	.LVL109:
 1415              	.LFB3014:
 501:time_machine_hardware.cpp **** 
 1416              		.loc 1 501 50 is_stmt 1 view -0
 1417              		.cfi_startproc
 1418              		@ args = 0, pretend = 0, frame = 0
 1419              		@ frame_needed = 0, uses_anonymous_args = 0
 1420              		@ link register save eliminated.
 501:time_machine_hardware.cpp **** 
 1421              		.loc 1 501 52 view .LVU414
 501:time_machine_hardware.cpp **** 
 1422              		.loc 1 501 78 is_stmt 0 view .LVU415
 1423 0000 1030     		adds	r0, r0, #16
 1424              	.LVL110:
 501:time_machine_hardware.cpp **** 
 1425              		.loc 1 501 78 view .LVU416
 1426 0002 FFF7FEBF 		b	_ZN5daisy11AudioHandle13GetSampleRateEv
 1427              	.LVL111:
 501:time_machine_hardware.cpp **** 
 1428              		.loc 1 501 78 view .LVU417
 1429              		.cfi_endproc
 1430              	.LFE3014:
 1432 0006 00BF     		.section	.text._ZN3oam12time_machine19TimeMachineHardware17AudioCallbackRateEv,"ax",%progbits
 1433              		.align	1
 1434              		.p2align 2,,3
 1435              		.global	_ZN3oam12time_machine19TimeMachineHardware17AudioCallbackRateEv
 1436              		.syntax unified
 1437              		.thumb
 1438              		.thumb_func
 1440              	_ZN3oam12time_machine19TimeMachineHardware17AudioCallbackRateEv:
 1441              	.LVL112:
 1442              	.LFB3015:
 503:time_machine_hardware.cpp **** 
 1443              		.loc 1 503 52 is_stmt 1 view -0
 1444              		.cfi_startproc
 1445              		@ args = 0, pretend = 0, frame = 0
 1446              		@ frame_needed = 0, uses_anonymous_args = 0
 1447              		@ link register save eliminated.
 503:time_machine_hardware.cpp **** 
 1448              		.loc 1 503 54 view .LVU419
 503:time_machine_hardware.cpp **** 
 1449              		.loc 1 503 77 is_stmt 0 view .LVU420
 1450 0000 90ED7A0A 		vldr.32	s0, [r0, #488]
 1451 0004 7047     		bx	lr
 1452              		.cfi_endproc
 1453              	.LFE3015:
 1455 0006 00BF     		.section	.text._ZN3oam12time_machine19TimeMachineHardware8StartAdcEv,"ax",%progbits
 1456              		.align	1
ARM GAS  /var/folders/v1/156fk8j97zv9pzndh61fy7zm0000gn/T//ccQgUds1.s 			page 46


 1457              		.p2align 2,,3
 1458              		.global	_ZN3oam12time_machine19TimeMachineHardware8StartAdcEv
 1459              		.syntax unified
 1460              		.thumb
 1461              		.thumb_func
 1463              	_ZN3oam12time_machine19TimeMachineHardware8StartAdcEv:
 1464              	.LVL113:
 1465              	.LFB3016:
 1466              		.loc 1 505 42 is_stmt 1 view -0
 1467              		.cfi_startproc
 1468              		@ args = 0, pretend = 0, frame = 0
 1469              		@ frame_needed = 0, uses_anonymous_args = 0
 1470              		@ link register save eliminated.
 1471              		.loc 1 505 44 view .LVU422
 1472              		.loc 1 505 53 is_stmt 0 view .LVU423
 1473 0000 1430     		adds	r0, r0, #20
 1474              	.LVL114:
 1475              		.loc 1 505 53 view .LVU424
 1476 0002 FFF7FEBF 		b	_ZN5daisy9AdcHandle5StartEv
 1477              	.LVL115:
 1478              		.loc 1 505 53 view .LVU425
 1479              		.cfi_endproc
 1480              	.LFE3016:
 1482 0006 00BF     		.section	.text._ZN3oam12time_machine19TimeMachineHardware7StopAdcEv,"ax",%progbits
 1483              		.align	1
 1484              		.p2align 2,,3
 1485              		.global	_ZN3oam12time_machine19TimeMachineHardware7StopAdcEv
 1486              		.syntax unified
 1487              		.thumb
 1488              		.thumb_func
 1490              	_ZN3oam12time_machine19TimeMachineHardware7StopAdcEv:
 1491              	.LVL116:
 1492              	.LFB3017:
 506:time_machine_hardware.cpp **** 
 507:time_machine_hardware.cpp ****     void TimeMachineHardware::StopAdc() { adc.Stop(); }
 1493              		.loc 1 507 41 is_stmt 1 view -0
 1494              		.cfi_startproc
 1495              		@ args = 0, pretend = 0, frame = 0
 1496              		@ frame_needed = 0, uses_anonymous_args = 0
 1497              		@ link register save eliminated.
 1498              		.loc 1 507 43 view .LVU427
 1499              		.loc 1 507 51 is_stmt 0 view .LVU428
 1500 0000 1430     		adds	r0, r0, #20
 1501              	.LVL117:
 1502              		.loc 1 507 51 view .LVU429
 1503 0002 FFF7FEBF 		b	_ZN5daisy9AdcHandle4StopEv
 1504              	.LVL118:
 1505              		.loc 1 507 51 view .LVU430
 1506              		.cfi_endproc
 1507              	.LFE3017:
 1509 0006 00BF     		.section	.text._ZN3oam12time_machine19TimeMachineHardware21ProcessAnalogControlsEv,"ax",%progbits
 1510              		.align	1
 1511              		.p2align 2,,3
 1512              		.global	_ZN3oam12time_machine19TimeMachineHardware21ProcessAnalogControlsEv
 1513              		.syntax unified
 1514              		.thumb
 1515              		.thumb_func
ARM GAS  /var/folders/v1/156fk8j97zv9pzndh61fy7zm0000gn/T//ccQgUds1.s 			page 47


 1517              	_ZN3oam12time_machine19TimeMachineHardware21ProcessAnalogControlsEv:
 1518              	.LVL119:
 1519              	.LFB3018:
 508:time_machine_hardware.cpp **** 
 509:time_machine_hardware.cpp ****     void TimeMachineHardware::ProcessAnalogControls()
 510:time_machine_hardware.cpp ****     {
 1520              		.loc 1 510 5 is_stmt 1 view -0
 1521              		.cfi_startproc
 1522              		@ args = 0, pretend = 0, frame = 0
 1523              		@ frame_needed = 0, uses_anonymous_args = 0
 511:time_machine_hardware.cpp ****         for(int i = 0; i < ADC_LAST; i++)
 1524              		.loc 1 511 9 view .LVU432
 1525              	.LBB400:
 1526              		.loc 1 511 26 discriminator 1 view .LVU433
 1527              	.LBE400:
 510:time_machine_hardware.cpp ****         for(int i = 0; i < ADC_LAST; i++)
 1528              		.loc 1 510 5 is_stmt 0 view .LVU434
 1529 0000 38B5     		push	{r3, r4, r5, lr}
 1530              		.cfi_def_cfa_offset 16
 1531              		.cfi_offset 3, -16
 1532              		.cfi_offset 4, -12
 1533              		.cfi_offset 5, -8
 1534              		.cfi_offset 14, -4
 1535 0002 00F13004 		add	r4, r0, #48
 1536 0006 00F5D875 		add	r5, r0, #432
 1537              	.LVL120:
 1538              	.L65:
 1539              	.LBB401:
 512:time_machine_hardware.cpp ****         {
 513:time_machine_hardware.cpp ****             controls[i].Process();
 1540              		.loc 1 513 13 is_stmt 1 view .LVU435
 1541              		.loc 1 513 32 is_stmt 0 view .LVU436
 1542 000a 2046     		mov	r0, r4
 511:time_machine_hardware.cpp ****         {
 1543              		.loc 1 511 26 discriminator 1 view .LVU437
 1544 000c 2034     		adds	r4, r4, #32
 1545              		.loc 1 513 32 view .LVU438
 1546 000e FFF7FEFF 		bl	_ZN5daisy13AnalogControl7ProcessEv
 1547              	.LVL121:
 511:time_machine_hardware.cpp ****         {
 1548              		.loc 1 511 9 is_stmt 1 discriminator 3 view .LVU439
 511:time_machine_hardware.cpp ****         {
 1549              		.loc 1 511 26 discriminator 1 view .LVU440
 1550 0012 AC42     		cmp	r4, r5
 1551 0014 F9D1     		bne	.L65
 1552              	.LBE401:
 514:time_machine_hardware.cpp ****         }
 515:time_machine_hardware.cpp ****     }
 1553              		.loc 1 515 5 is_stmt 0 view .LVU441
 1554 0016 38BD     		pop	{r3, r4, r5, pc}
 1555              		.loc 1 515 5 view .LVU442
 1556              		.cfi_endproc
 1557              	.LFE3018:
 1559              		.section	.text._ZN3oam12time_machine19TimeMachineHardware22ProcessDigitalControlsEv,"ax",%progbits
 1560              		.align	1
 1561              		.p2align 2,,3
 1562              		.global	_ZN3oam12time_machine19TimeMachineHardware22ProcessDigitalControlsEv
ARM GAS  /var/folders/v1/156fk8j97zv9pzndh61fy7zm0000gn/T//ccQgUds1.s 			page 48


 1563              		.syntax unified
 1564              		.thumb
 1565              		.thumb_func
 1567              	_ZN3oam12time_machine19TimeMachineHardware22ProcessDigitalControlsEv:
 1568              	.LVL122:
 1569              	.LFB3019:
 516:time_machine_hardware.cpp **** 
 517:time_machine_hardware.cpp ****     void TimeMachineHardware::ProcessDigitalControls() {}
 1570              		.loc 1 517 56 is_stmt 1 view -0
 1571              		.cfi_startproc
 1572              		@ args = 0, pretend = 0, frame = 0
 1573              		@ frame_needed = 0, uses_anonymous_args = 0
 1574              		@ link register save eliminated.
 1575              		.loc 1 517 57 is_stmt 0 view .LVU444
 1576 0000 7047     		bx	lr
 1577              		.cfi_endproc
 1578              	.LFE3019:
 1580 0002 00BF     		.section	.text._ZN3oam12time_machine19TimeMachineHardware11GetAdcValueEi,"ax",%progbits
 1581              		.align	1
 1582              		.p2align 2,,3
 1583              		.global	_ZN3oam12time_machine19TimeMachineHardware11GetAdcValueEi
 1584              		.syntax unified
 1585              		.thumb
 1586              		.thumb_func
 1588              	_ZN3oam12time_machine19TimeMachineHardware11GetAdcValueEi:
 1589              	.LVL123:
 1590              	.LFB3020:
 518:time_machine_hardware.cpp **** 
 519:time_machine_hardware.cpp ****     float TimeMachineHardware::GetAdcValue(int idx) { return controls[idx].Value(); }
 1591              		.loc 1 519 53 is_stmt 1 view -0
 1592              		.cfi_startproc
 1593              		@ args = 0, pretend = 0, frame = 0
 1594              		@ frame_needed = 0, uses_anonymous_args = 0
 1595              		@ link register save eliminated.
 1596              		.loc 1 519 55 view .LVU446
 1597              	.LBB402:
 1598              	.LBI402:
 1599              		.file 6 "../temp_time_machine/DaisyExamples/libDaisy/src/hid/ctrl.h"
   1:../temp_time_machine/DaisyExamples/libDaisy/src/hid/ctrl.h **** #pragma once
   2:../temp_time_machine/DaisyExamples/libDaisy/src/hid/ctrl.h **** #ifndef DSY_KNOB_H
   3:../temp_time_machine/DaisyExamples/libDaisy/src/hid/ctrl.h **** #define DSY_KNOB_H /**< & */
   4:../temp_time_machine/DaisyExamples/libDaisy/src/hid/ctrl.h **** #include <stdint.h>
   5:../temp_time_machine/DaisyExamples/libDaisy/src/hid/ctrl.h **** 
   6:../temp_time_machine/DaisyExamples/libDaisy/src/hid/ctrl.h **** #ifdef __cplusplus
   7:../temp_time_machine/DaisyExamples/libDaisy/src/hid/ctrl.h **** namespace daisy
   8:../temp_time_machine/DaisyExamples/libDaisy/src/hid/ctrl.h **** {
   9:../temp_time_machine/DaisyExamples/libDaisy/src/hid/ctrl.h **** /**
  10:../temp_time_machine/DaisyExamples/libDaisy/src/hid/ctrl.h ****     @brief Hardware Interface for control inputs \n 
  11:../temp_time_machine/DaisyExamples/libDaisy/src/hid/ctrl.h ****     Primarily designed for ADC input controls such as \n 
  12:../temp_time_machine/DaisyExamples/libDaisy/src/hid/ctrl.h ****     potentiometers, and control voltage. \n 
  13:../temp_time_machine/DaisyExamples/libDaisy/src/hid/ctrl.h ****     @author Stephen Hensley
  14:../temp_time_machine/DaisyExamples/libDaisy/src/hid/ctrl.h ****     @date November 2019
  15:../temp_time_machine/DaisyExamples/libDaisy/src/hid/ctrl.h ****     @ingroup controls
  16:../temp_time_machine/DaisyExamples/libDaisy/src/hid/ctrl.h **** */
  17:../temp_time_machine/DaisyExamples/libDaisy/src/hid/ctrl.h **** class AnalogControl
  18:../temp_time_machine/DaisyExamples/libDaisy/src/hid/ctrl.h **** {
  19:../temp_time_machine/DaisyExamples/libDaisy/src/hid/ctrl.h ****   public:
ARM GAS  /var/folders/v1/156fk8j97zv9pzndh61fy7zm0000gn/T//ccQgUds1.s 			page 49


  20:../temp_time_machine/DaisyExamples/libDaisy/src/hid/ctrl.h ****     /** Constructor */
  21:../temp_time_machine/DaisyExamples/libDaisy/src/hid/ctrl.h ****     AnalogControl() {}
  22:../temp_time_machine/DaisyExamples/libDaisy/src/hid/ctrl.h ****     /** destructor */
  23:../temp_time_machine/DaisyExamples/libDaisy/src/hid/ctrl.h ****     ~AnalogControl() {}
  24:../temp_time_machine/DaisyExamples/libDaisy/src/hid/ctrl.h **** 
  25:../temp_time_machine/DaisyExamples/libDaisy/src/hid/ctrl.h ****     /** 
  26:../temp_time_machine/DaisyExamples/libDaisy/src/hid/ctrl.h ****     Initializes the control
  27:../temp_time_machine/DaisyExamples/libDaisy/src/hid/ctrl.h ****     \param *adcptr is a pointer to the raw adc read value -- This can be acquired with dsy_adc_get_
  28:../temp_time_machine/DaisyExamples/libDaisy/src/hid/ctrl.h ****     \param sr is the samplerate in Hz that the Process function will be called at.
  29:../temp_time_machine/DaisyExamples/libDaisy/src/hid/ctrl.h ****     \param flip determines whether the input is flipped (i.e. 1.f - input) or not before being proc
  30:../temp_time_machine/DaisyExamples/libDaisy/src/hid/ctrl.h ****     \param invert determines whether the input is inverted (i.e. -1.f * input) or note before being
  31:../temp_time_machine/DaisyExamples/libDaisy/src/hid/ctrl.h ****     \param slew_seconds is the slew time in seconds that it takes for the control to change to a ne
  32:../temp_time_machine/DaisyExamples/libDaisy/src/hid/ctrl.h ****     */
  33:../temp_time_machine/DaisyExamples/libDaisy/src/hid/ctrl.h ****     void Init(uint16_t *adcptr,
  34:../temp_time_machine/DaisyExamples/libDaisy/src/hid/ctrl.h ****               float     sr,
  35:../temp_time_machine/DaisyExamples/libDaisy/src/hid/ctrl.h ****               bool      flip         = false,
  36:../temp_time_machine/DaisyExamples/libDaisy/src/hid/ctrl.h ****               bool      invert       = false,
  37:../temp_time_machine/DaisyExamples/libDaisy/src/hid/ctrl.h ****               float     slew_seconds = 0.002f);
  38:../temp_time_machine/DaisyExamples/libDaisy/src/hid/ctrl.h **** 
  39:../temp_time_machine/DaisyExamples/libDaisy/src/hid/ctrl.h ****     /** 
  40:../temp_time_machine/DaisyExamples/libDaisy/src/hid/ctrl.h ****     This Initializes the AnalogControl for a -5V to 5V inverted input
  41:../temp_time_machine/DaisyExamples/libDaisy/src/hid/ctrl.h ****     All of the Init details are the same otherwise
  42:../temp_time_machine/DaisyExamples/libDaisy/src/hid/ctrl.h ****     \param *adcptr Pointer to analog digital converter
  43:../temp_time_machine/DaisyExamples/libDaisy/src/hid/ctrl.h ****     \param sr Audio engine sample rate
  44:../temp_time_machine/DaisyExamples/libDaisy/src/hid/ctrl.h ****     */
  45:../temp_time_machine/DaisyExamples/libDaisy/src/hid/ctrl.h ****     void InitBipolarCv(uint16_t *adcptr, float sr);
  46:../temp_time_machine/DaisyExamples/libDaisy/src/hid/ctrl.h **** 
  47:../temp_time_machine/DaisyExamples/libDaisy/src/hid/ctrl.h ****     /** 
  48:../temp_time_machine/DaisyExamples/libDaisy/src/hid/ctrl.h ****     Filters, and transforms a raw ADC read into a normalized range.
  49:../temp_time_machine/DaisyExamples/libDaisy/src/hid/ctrl.h ****     this should be called at the rate of specified by samplerate at Init time.   
  50:../temp_time_machine/DaisyExamples/libDaisy/src/hid/ctrl.h ****     Default Initializations will return 0.0 -> 1.0
  51:../temp_time_machine/DaisyExamples/libDaisy/src/hid/ctrl.h ****     Bi-polar CV inputs will return -1.0 -> 1.0
  52:../temp_time_machine/DaisyExamples/libDaisy/src/hid/ctrl.h ****     */
  53:../temp_time_machine/DaisyExamples/libDaisy/src/hid/ctrl.h ****     float Process();
  54:../temp_time_machine/DaisyExamples/libDaisy/src/hid/ctrl.h **** 
  55:../temp_time_machine/DaisyExamples/libDaisy/src/hid/ctrl.h ****     /** Returns the current stored value, without reprocessing */
  56:../temp_time_machine/DaisyExamples/libDaisy/src/hid/ctrl.h ****     inline float Value() const { return val_; }
 1600              		.loc 6 56 18 view .LVU447
 1601              	.LBB403:
 1602              		.loc 6 56 34 view .LVU448
 1603              		.loc 6 56 41 is_stmt 0 view .LVU449
 1604 0000 00EB4110 		add	r0, r0, r1, lsl #5
 1605              	.LVL124:
 1606              		.loc 6 56 41 view .LVU450
 1607              	.LBE403:
 1608              	.LBE402:
 1609              		.loc 1 519 85 view .LVU451
 1610 0004 90ED0F0A 		vldr.32	s0, [r0, #60]
 1611 0008 7047     		bx	lr
 1612              		.cfi_endproc
 1613              	.LFE3020:
 1615 000a 00BF     		.section	.text._ZN3oam12time_machine19TimeMachineHardware14GetSliderValueEi,"ax",%progbits
 1616              		.align	1
 1617              		.p2align 2,,3
 1618              		.global	_ZN3oam12time_machine19TimeMachineHardware14GetSliderValueEi
 1619              		.syntax unified
 1620              		.thumb
ARM GAS  /var/folders/v1/156fk8j97zv9pzndh61fy7zm0000gn/T//ccQgUds1.s 			page 50


 1621              		.thumb_func
 1623              	_ZN3oam12time_machine19TimeMachineHardware14GetSliderValueEi:
 1624              	.LVL125:
 1625              	.LFB3021:
 520:time_machine_hardware.cpp **** 
 521:time_machine_hardware.cpp ****     float TimeMachineHardware::GetSliderValue(int idx) {
 1626              		.loc 1 521 56 is_stmt 1 view -0
 1627              		.cfi_startproc
 1628              		@ args = 0, pretend = 0, frame = 32
 1629              		@ frame_needed = 0, uses_anonymous_args = 0
 522:time_machine_hardware.cpp ****         const int muxMapping[] = {0,1,4,3,2,6,7,5};
 1630              		.loc 1 522 9 view .LVU453
 521:time_machine_hardware.cpp ****         const int muxMapping[] = {0,1,4,3,2,6,7,5};
 1631              		.loc 1 521 56 is_stmt 0 view .LVU454
 1632 0000 30B5     		push	{r4, r5, lr}
 1633              		.cfi_def_cfa_offset 12
 1634              		.cfi_offset 4, -12
 1635              		.cfi_offset 5, -8
 1636              		.cfi_offset 14, -4
 1637              		.loc 1 522 19 view .LVU455
 1638 0002 114C     		ldr	r4, .L73
 521:time_machine_hardware.cpp ****         const int muxMapping[] = {0,1,4,3,2,6,7,5};
 1639              		.loc 1 521 56 view .LVU456
 1640 0004 89B0     		sub	sp, sp, #36
 1641              		.cfi_def_cfa_offset 48
 521:time_machine_hardware.cpp ****         const int muxMapping[] = {0,1,4,3,2,6,7,5};
 1642              		.loc 1 521 56 view .LVU457
 1643 0006 0546     		mov	r5, r0
 523:time_machine_hardware.cpp ****         if(idx==0) {
 1644              		.loc 1 523 9 view .LVU458
 1645 0008 8E46     		mov	lr, r1
 522:time_machine_hardware.cpp ****         const int muxMapping[] = {0,1,4,3,2,6,7,5};
 1646              		.loc 1 522 19 view .LVU459
 1647 000a EC46     		mov	ip, sp
 1648 000c 0FCC     		ldmia	r4!, {r0, r1, r2, r3}
 1649              	.LVL126:
 522:time_machine_hardware.cpp ****         const int muxMapping[] = {0,1,4,3,2,6,7,5};
 1650              		.loc 1 522 19 view .LVU460
 1651 000e ACE80F00 		stmia	ip!, {r0, r1, r2, r3}
 1652 0012 94E80F00 		ldm	r4, {r0, r1, r2, r3}
 1653 0016 8CE80F00 		stm	ip, {r0, r1, r2, r3}
 1654              		.loc 1 523 9 is_stmt 1 view .LVU461
 1655 001a BEF1000F 		cmp	lr, #0
 1656 001e 07D1     		bne	.L71
 524:time_machine_hardware.cpp ****             return adc.GetFloat(DRY_SLIDER);
 1657              		.loc 1 524 13 view .LVU462
 1658              		.loc 1 524 32 is_stmt 0 view .LVU463
 1659 0020 0A21     		movs	r1, #10
 1660 0022 05F11400 		add	r0, r5, #20
 525:time_machine_hardware.cpp ****         } else {
 526:time_machine_hardware.cpp ****             return adc.GetMuxFloat(DELAY_SLIDERS, muxMapping[idx - 1]);
 527:time_machine_hardware.cpp ****         }
 528:time_machine_hardware.cpp ****     }
 1661              		.loc 1 528 5 view .LVU464
 1662 0026 09B0     		add	sp, sp, #36
 1663              		.cfi_remember_state
 1664              		.cfi_def_cfa_offset 12
ARM GAS  /var/folders/v1/156fk8j97zv9pzndh61fy7zm0000gn/T//ccQgUds1.s 			page 51


 1665              		@ sp needed
 1666 0028 BDE83040 		pop	{r4, r5, lr}
 1667              		.cfi_restore 14
 1668              		.cfi_restore 5
 1669              		.cfi_restore 4
 1670              		.cfi_def_cfa_offset 0
 1671              	.LVL127:
 524:time_machine_hardware.cpp ****             return adc.GetFloat(DRY_SLIDER);
 1672              		.loc 1 524 32 view .LVU465
 1673 002c FFF7FEBF 		b	_ZNK5daisy9AdcHandle8GetFloatEh
 1674              	.LVL128:
 1675              	.L71:
 1676              		.cfi_restore_state
 526:time_machine_hardware.cpp ****         }
 1677              		.loc 1 526 13 is_stmt 1 view .LVU466
 526:time_machine_hardware.cpp ****         }
 1678              		.loc 1 526 69 is_stmt 0 view .LVU467
 1679 0030 0DEB8E0E 		add	lr, sp, lr, lsl #2
 1680              	.LVL129:
 526:time_machine_hardware.cpp ****         }
 1681              		.loc 1 526 35 view .LVU468
 1682 0034 0B21     		movs	r1, #11
 1683 0036 05F11400 		add	r0, r5, #20
 1684 003a 1EF8042C 		ldrb	r2, [lr, #-4]	@ zero_extendqisi2
 1685              		.loc 1 528 5 view .LVU469
 1686 003e 09B0     		add	sp, sp, #36
 1687              		.cfi_def_cfa_offset 12
 1688              		@ sp needed
 1689 0040 BDE83040 		pop	{r4, r5, lr}
 1690              		.cfi_restore 14
 1691              		.cfi_restore 5
 1692              		.cfi_restore 4
 1693              		.cfi_def_cfa_offset 0
 1694              	.LVL130:
 526:time_machine_hardware.cpp ****         }
 1695              		.loc 1 526 35 view .LVU470
 1696 0044 FFF7FEBF 		b	_ZNK5daisy9AdcHandle11GetMuxFloatEhh
 1697              	.LVL131:
 1698              	.L74:
 526:time_machine_hardware.cpp ****         }
 1699              		.loc 1 526 35 view .LVU471
 1700              		.align	2
 1701              	.L73:
 1702 0048 18000000 		.word	.LANCHOR0+24
 1703              		.cfi_endproc
 1704              	.LFE3021:
 1706              		.section	.text._ZN3oam12time_machine19TimeMachineHardware11GetVcaValueEi,"ax",%progbits
 1707              		.align	1
 1708              		.p2align 2,,3
 1709              		.global	_ZN3oam12time_machine19TimeMachineHardware11GetVcaValueEi
 1710              		.syntax unified
 1711              		.thumb
 1712              		.thumb_func
 1714              	_ZN3oam12time_machine19TimeMachineHardware11GetVcaValueEi:
 1715              	.LVL132:
 1716              	.LFB3022:
 529:time_machine_hardware.cpp **** 
ARM GAS  /var/folders/v1/156fk8j97zv9pzndh61fy7zm0000gn/T//ccQgUds1.s 			page 52


 530:time_machine_hardware.cpp ****     float TimeMachineHardware::GetVcaValue(int idx) {
 1717              		.loc 1 530 53 is_stmt 1 view -0
 1718              		.cfi_startproc
 1719              		@ args = 0, pretend = 0, frame = 0
 1720              		@ frame_needed = 0, uses_anonymous_args = 0
 531:time_machine_hardware.cpp **** 
 532:time_machine_hardware.cpp ****         if(!gate_in_1.State())
 1721              		.loc 1 532 9 view .LVU473
 530:time_machine_hardware.cpp **** 
 1722              		.loc 1 530 53 is_stmt 0 view .LVU474
 1723 0000 38B5     		push	{r3, r4, r5, lr}
 1724              		.cfi_def_cfa_offset 16
 1725              		.cfi_offset 3, -16
 1726              		.cfi_offset 4, -12
 1727              		.cfi_offset 5, -8
 1728              		.cfi_offset 14, -4
 1729              	.LBB408:
 1730              	.LBB409:
 1731              		.file 7 "../temp_time_machine/DaisyExamples/libDaisy/src/hid/gatein.h"
   1:../temp_time_machine/DaisyExamples/libDaisy/src/hid/gatein.h **** #pragma once
   2:../temp_time_machine/DaisyExamples/libDaisy/src/hid/gatein.h **** #ifndef DSY_GATEIN_H
   3:../temp_time_machine/DaisyExamples/libDaisy/src/hid/gatein.h **** #define DSY_GATEIN_H
   4:../temp_time_machine/DaisyExamples/libDaisy/src/hid/gatein.h **** #include "per/gpio.h"
   5:../temp_time_machine/DaisyExamples/libDaisy/src/hid/gatein.h **** 
   6:../temp_time_machine/DaisyExamples/libDaisy/src/hid/gatein.h **** namespace daisy
   7:../temp_time_machine/DaisyExamples/libDaisy/src/hid/gatein.h **** {
   8:../temp_time_machine/DaisyExamples/libDaisy/src/hid/gatein.h **** /**
   9:../temp_time_machine/DaisyExamples/libDaisy/src/hid/gatein.h ****    @brief Generic Class for handling gate inputs through GPIO.
  10:../temp_time_machine/DaisyExamples/libDaisy/src/hid/gatein.h ****    @author Stephen Hensley
  11:../temp_time_machine/DaisyExamples/libDaisy/src/hid/gatein.h ****    @date    March 2020
  12:../temp_time_machine/DaisyExamples/libDaisy/src/hid/gatein.h ****    @ingroup controls
  13:../temp_time_machine/DaisyExamples/libDaisy/src/hid/gatein.h **** */
  14:../temp_time_machine/DaisyExamples/libDaisy/src/hid/gatein.h **** class GateIn
  15:../temp_time_machine/DaisyExamples/libDaisy/src/hid/gatein.h **** {
  16:../temp_time_machine/DaisyExamples/libDaisy/src/hid/gatein.h ****   public:
  17:../temp_time_machine/DaisyExamples/libDaisy/src/hid/gatein.h ****     /** GateIn Constructor */
  18:../temp_time_machine/DaisyExamples/libDaisy/src/hid/gatein.h ****     GateIn() {}
  19:../temp_time_machine/DaisyExamples/libDaisy/src/hid/gatein.h **** 
  20:../temp_time_machine/DaisyExamples/libDaisy/src/hid/gatein.h ****     /** GateIn Destructor */
  21:../temp_time_machine/DaisyExamples/libDaisy/src/hid/gatein.h ****     ~GateIn() {}
  22:../temp_time_machine/DaisyExamples/libDaisy/src/hid/gatein.h **** 
  23:../temp_time_machine/DaisyExamples/libDaisy/src/hid/gatein.h ****     /** @brief Initializes the gate input with specified hardware pin
  24:../temp_time_machine/DaisyExamples/libDaisy/src/hid/gatein.h ****      *
  25:../temp_time_machine/DaisyExamples/libDaisy/src/hid/gatein.h ****      *  @param pin_cfg pointer to pin to initialize
  26:../temp_time_machine/DaisyExamples/libDaisy/src/hid/gatein.h ****      *  @param invert True if the pin state is HIGH when 0V is present
  27:../temp_time_machine/DaisyExamples/libDaisy/src/hid/gatein.h ****      *         at the input. False if input signal matches the pin state.
  28:../temp_time_machine/DaisyExamples/libDaisy/src/hid/gatein.h ****      *
  29:../temp_time_machine/DaisyExamples/libDaisy/src/hid/gatein.h ****      *  @note the default for invert is true because it is typical to use
  30:../temp_time_machine/DaisyExamples/libDaisy/src/hid/gatein.h ****      *  an inverting input circuit (e.g. a BJT circuit) for eurorack gate inputs.
  31:../temp_time_machine/DaisyExamples/libDaisy/src/hid/gatein.h ****      */
  32:../temp_time_machine/DaisyExamples/libDaisy/src/hid/gatein.h ****     void Init(Pin pin, bool invert = true);
  33:../temp_time_machine/DaisyExamples/libDaisy/src/hid/gatein.h **** 
  34:../temp_time_machine/DaisyExamples/libDaisy/src/hid/gatein.h ****     /** @brief Initializes the gate input with specified hardware pin
  35:../temp_time_machine/DaisyExamples/libDaisy/src/hid/gatein.h ****      *
  36:../temp_time_machine/DaisyExamples/libDaisy/src/hid/gatein.h ****      *  @param pin_cfg pointer to pin to initialize
  37:../temp_time_machine/DaisyExamples/libDaisy/src/hid/gatein.h ****      *  @param invert True if the pin state is HIGH when 0V is present
  38:../temp_time_machine/DaisyExamples/libDaisy/src/hid/gatein.h ****      *         at the input. False if input signal matches the pin state.
ARM GAS  /var/folders/v1/156fk8j97zv9pzndh61fy7zm0000gn/T//ccQgUds1.s 			page 53


  39:../temp_time_machine/DaisyExamples/libDaisy/src/hid/gatein.h ****      *
  40:../temp_time_machine/DaisyExamples/libDaisy/src/hid/gatein.h ****      *  @note the default for invert is true because it is typical to use
  41:../temp_time_machine/DaisyExamples/libDaisy/src/hid/gatein.h ****      *  an inverting input circuit (e.g. a BJT circuit) for eurorack gate inputs.
  42:../temp_time_machine/DaisyExamples/libDaisy/src/hid/gatein.h ****      * 
  43:../temp_time_machine/DaisyExamples/libDaisy/src/hid/gatein.h ****      *  @note deprectated - this function still works, but will eventually be removed.
  44:../temp_time_machine/DaisyExamples/libDaisy/src/hid/gatein.h ****      *  It uses the old style dsy_gpio_pin in a way that it is not compatible with the
  45:../temp_time_machine/DaisyExamples/libDaisy/src/hid/gatein.h ****      *  the new Pin class. 
  46:../temp_time_machine/DaisyExamples/libDaisy/src/hid/gatein.h ****      */
  47:../temp_time_machine/DaisyExamples/libDaisy/src/hid/gatein.h ****     void Init(dsy_gpio_pin *pin_cfg, bool invert = true);
  48:../temp_time_machine/DaisyExamples/libDaisy/src/hid/gatein.h **** 
  49:../temp_time_machine/DaisyExamples/libDaisy/src/hid/gatein.h ****     /** Checks current state of gate input.
  50:../temp_time_machine/DaisyExamples/libDaisy/src/hid/gatein.h ****      *  @return True if the GPIO just transitioned.
  51:../temp_time_machine/DaisyExamples/libDaisy/src/hid/gatein.h ****      */
  52:../temp_time_machine/DaisyExamples/libDaisy/src/hid/gatein.h ****     bool Trig();
  53:../temp_time_machine/DaisyExamples/libDaisy/src/hid/gatein.h **** 
  54:../temp_time_machine/DaisyExamples/libDaisy/src/hid/gatein.h ****     /** Checks current state of gate input (no state required)
  55:../temp_time_machine/DaisyExamples/libDaisy/src/hid/gatein.h ****      *  read function is inverted because of suggested BJT input circuit
  56:../temp_time_machine/DaisyExamples/libDaisy/src/hid/gatein.h ****      */
  57:../temp_time_machine/DaisyExamples/libDaisy/src/hid/gatein.h ****     inline bool State() { return invert_ ? !pin_.Read() : pin_.Read(); }
 1732              		.loc 7 57 42 view .LVU475
 1733 0002 90F8C631 		ldrb	r3, [r0, #454]	@ zero_extendqisi2
 1734              	.LBE409:
 1735              	.LBE408:
 530:time_machine_hardware.cpp **** 
 1736              		.loc 1 530 53 view .LVU476
 1737 0006 0446     		mov	r4, r0
 1738              	.LVL133:
 1739              	.LBB417:
 1740              	.LBI408:
 1741              		.loc 7 57 17 is_stmt 1 view .LVU477
 1742              	.LBB414:
 1743              		.loc 7 57 27 view .LVU478
 1744              	.LBE414:
 1745              	.LBE417:
 530:time_machine_hardware.cpp **** 
 1746              		.loc 1 530 53 is_stmt 0 view .LVU479
 1747 0008 0D46     		mov	r5, r1
 1748              	.LBB418:
 1749              	.LBB415:
 1750              	.LBB410:
 1751              	.LBB411:
 1752              		.loc 7 57 54 discriminator 1 view .LVU480
 1753 000a 00F5D870 		add	r0, r0, #432
 1754              	.LVL134:
 1755              		.loc 7 57 54 discriminator 1 view .LVU481
 1756              	.LBE411:
 1757              	.LBE410:
 1758              		.loc 7 57 42 view .LVU482
 1759 000e B3B3     		cbz	r3, .L76
 1760              	.LVL135:
 1761              	.LBB413:
 1762              	.LBI410:
 1763              		.loc 7 57 17 is_stmt 1 view .LVU483
 1764              	.LBB412:
 1765              		.loc 7 57 54 is_stmt 0 discriminator 1 view .LVU484
 1766 0010 FFF7FEFF 		bl	_ZN5daisy4GPIO4ReadEv
 1767              	.LVL136:
ARM GAS  /var/folders/v1/156fk8j97zv9pzndh61fy7zm0000gn/T//ccQgUds1.s 			page 54


 1768              		.loc 7 57 42 discriminator 1 view .LVU485
 1769 0014 80F00100 		eor	r0, r0, #1
 1770 0018 C0B2     		uxtb	r0, r0
 1771              	.LVL137:
 1772              		.loc 7 57 42 discriminator 1 view .LVU486
 1773              	.LBE412:
 1774              	.LBE413:
 1775              	.LBE415:
 1776              	.LBE418:
 1777              		.loc 1 532 9 discriminator 1 view .LVU487
 1778 001a A0B3     		cbz	r0, .L82
 1779              	.L85:
 533:time_machine_hardware.cpp ****             return 1.0f;
 534:time_machine_hardware.cpp **** 
 535:time_machine_hardware.cpp ****         float v;
 1780              		.loc 1 535 9 is_stmt 1 view .LVU488
 536:time_machine_hardware.cpp **** 
 537:time_machine_hardware.cpp ****         if(idx==0) {
 1781              		.loc 1 537 9 view .LVU489
 1782 001c B5B3     		cbz	r5, .L84
 538:time_machine_hardware.cpp ****             v = adc.GetFloat(DRY_VCA);
 539:time_machine_hardware.cpp ****         } else if (idx <= 4) {
 1783              		.loc 1 539 16 view .LVU490
 1784 001e 042D     		cmp	r5, #4
 540:time_machine_hardware.cpp ****             v = adc.GetMuxFloat(DELAY_VCA_GROUP1, idx - 1);
 1785              		.loc 1 540 32 is_stmt 0 view .LVU491
 1786 0020 EAB2     		uxtb	r2, r5
 539:time_machine_hardware.cpp ****             v = adc.GetMuxFloat(DELAY_VCA_GROUP1, idx - 1);
 1787              		.loc 1 539 16 view .LVU492
 1788 0022 39DC     		bgt	.L81
 1789              		.loc 1 540 13 is_stmt 1 view .LVU493
 1790              		.loc 1 540 32 is_stmt 0 view .LVU494
 1791 0024 013A     		subs	r2, r2, #1
 1792 0026 0421     		movs	r1, #4
 1793 0028 04F11400 		add	r0, r4, #20
 1794 002c D2B2     		uxtb	r2, r2
 1795 002e FFF7FEFF 		bl	_ZNK5daisy9AdcHandle11GetMuxFloatEhh
 1796              	.LVL138:
 1797              	.L80:
 541:time_machine_hardware.cpp ****         } else {
 542:time_machine_hardware.cpp ****             v = adc.GetMuxFloat(DELAY_VCA_GROUP2, idx - 5);
 543:time_machine_hardware.cpp ****         }
 544:time_machine_hardware.cpp **** 
 545:time_machine_hardware.cpp ****         // invert
 546:time_machine_hardware.cpp ****         v = 1.0 - v;
 1798              		.loc 1 546 9 is_stmt 1 view .LVU495
 1799              		.loc 1 546 17 is_stmt 0 view .LVU496
 1800 0032 F7EE007A 		vmov.f32	s15, #1.0e+0
 1801 0036 DFED206A 		vldr.32	s13, .L86+16
 547:time_machine_hardware.cpp **** 
 548:time_machine_hardware.cpp ****         // clamp
 549:time_machine_hardware.cpp ****         v = std::max(0.503f, std::min(0.997f, v));
 550:time_machine_hardware.cpp **** 
 551:time_machine_hardware.cpp ****         // scale
 552:time_machine_hardware.cpp ****         v = v - 0.503;
 1802              		.loc 1 552 13 view .LVU497
 1803 003a 9FED207A 		vldr.32	s14, .L86+20
ARM GAS  /var/folders/v1/156fk8j97zv9pzndh61fy7zm0000gn/T//ccQgUds1.s 			page 55


 546:time_machine_hardware.cpp **** 
 1804              		.loc 1 546 17 view .LVU498
 1805 003e 37EEC00A 		vsub.f32	s0, s15, s0
 1806              	.LVL139:
 549:time_machine_hardware.cpp **** 
 1807              		.loc 1 549 9 is_stmt 1 view .LVU499
 1808              		.loc 1 552 15 is_stmt 0 view .LVU500
 1809 0042 9FED194B 		vldr.64	d4, .L86
 1810 0046 B4EEE60A 		vcmpe.f32	s0, s13
 553:time_machine_hardware.cpp ****         v = v * 2.0242914979757;
 1811              		.loc 1 553 15 view .LVU501
 1812 004a 9FED195B 		vldr.64	d5, .L86+8
 1813 004e F1EE10FA 		vmrs	APSR_nzcv, FPSCR
 1814 0052 58BF     		it	pl
 1815 0054 B0EE660A 		vmovpl.f32	s0, s13
 1816              	.LVL140:
 552:time_machine_hardware.cpp ****         v = v * 2.0242914979757;
 1817              		.loc 1 552 9 is_stmt 1 view .LVU502
 1818              		.loc 1 553 9 view .LVU503
 552:time_machine_hardware.cpp ****         v = v * 2.0242914979757;
 1819              		.loc 1 552 13 is_stmt 0 view .LVU504
 1820 0058 B4EEC70A 		vcmpe.f32	s0, s14
 1821 005c F1EE10FA 		vmrs	APSR_nzcv, FPSCR
 1822 0060 30FE070A 		vselgt.f32	s0, s0, s14
 1823 0064 B7EEC00A 		vcvt.f64.f32	d0, s0
 552:time_machine_hardware.cpp ****         v = v * 2.0242914979757;
 1824              		.loc 1 552 15 view .LVU505
 1825 0068 30EE440B 		vsub.f64	d0, d0, d4
 1826 006c B7EEC00B 		vcvt.f32.f64	s0, d0
 1827              		.loc 1 553 13 view .LVU506
 1828 0070 B7EEC00A 		vcvt.f64.f32	d0, s0
 1829              		.loc 1 553 15 view .LVU507
 1830 0074 20EE050B 		vmul.f64	d0, d0, d5
 1831 0078 B7EEC00B 		vcvt.f32.f64	s0, d0
 554:time_machine_hardware.cpp **** 
 555:time_machine_hardware.cpp ****         return v;
 1832              		.loc 1 555 9 is_stmt 1 view .LVU508
 556:time_machine_hardware.cpp ****     }
 1833              		.loc 1 556 5 is_stmt 0 view .LVU509
 1834 007c 38BD     		pop	{r3, r4, r5, pc}
 1835              	.LVL141:
 1836              	.L76:
 1837              	.LBB419:
 1838              	.LBB416:
 1839              		.loc 7 57 68 discriminator 2 view .LVU510
 1840 007e FFF7FEFF 		bl	_ZN5daisy4GPIO4ReadEv
 1841              	.LVL142:
 1842              		.loc 7 57 68 discriminator 2 view .LVU511
 1843              	.LBE416:
 1844              	.LBE419:
 532:time_machine_hardware.cpp ****             return 1.0f;
 1845              		.loc 1 532 9 discriminator 1 view .LVU512
 1846 0082 0028     		cmp	r0, #0
 1847 0084 CAD1     		bne	.L85
 1848              	.L82:
 533:time_machine_hardware.cpp **** 
 1849              		.loc 1 533 20 view .LVU513
ARM GAS  /var/folders/v1/156fk8j97zv9pzndh61fy7zm0000gn/T//ccQgUds1.s 			page 56


 1850 0086 B7EE000A 		vmov.f32	s0, #1.0e+0
 1851              		.loc 1 556 5 view .LVU514
 1852 008a 38BD     		pop	{r3, r4, r5, pc}
 1853              	.LVL143:
 1854              	.L84:
 538:time_machine_hardware.cpp ****         } else if (idx <= 4) {
 1855              		.loc 1 538 13 is_stmt 1 view .LVU515
 538:time_machine_hardware.cpp ****         } else if (idx <= 4) {
 1856              		.loc 1 538 29 is_stmt 0 view .LVU516
 1857 008c 0321     		movs	r1, #3
 1858 008e 04F11400 		add	r0, r4, #20
 1859 0092 FFF7FEFF 		bl	_ZNK5daisy9AdcHandle8GetFloatEh
 1860              	.LVL144:
 538:time_machine_hardware.cpp ****         } else if (idx <= 4) {
 1861              		.loc 1 538 29 view .LVU517
 1862 0096 CCE7     		b	.L80
 1863              	.LVL145:
 1864              	.L81:
 542:time_machine_hardware.cpp ****         }
 1865              		.loc 1 542 13 is_stmt 1 view .LVU518
 542:time_machine_hardware.cpp ****         }
 1866              		.loc 1 542 32 is_stmt 0 view .LVU519
 1867 0098 053A     		subs	r2, r2, #5
 1868 009a 0521     		movs	r1, #5
 1869 009c 04F11400 		add	r0, r4, #20
 1870 00a0 D2B2     		uxtb	r2, r2
 1871 00a2 FFF7FEFF 		bl	_ZNK5daisy9AdcHandle11GetMuxFloatEhh
 1872              	.LVL146:
 1873 00a6 C4E7     		b	.L80
 1874              	.L87:
 1875              		.align	3
 1876              	.L86:
 1877 00a8 7F6ABC74 		.word	1958505087
 1878 00ac 9318E03F 		.word	1071650963
 1879 00b0 0903ABBD 		.word	-1112866039
 1880 00b4 BF310040 		.word	1073754559
 1881 00b8 643B7F3F 		.word	1065302884
 1882 00bc 9CC4003F 		.word	1057014940
 1883              		.cfi_endproc
 1884              	.LFE3022:
 1886              		.section	.text._ZN3oam12time_machine19TimeMachineHardware6GetPinENS1_7PinBankEi,"ax",%progbits
 1887              		.align	1
 1888              		.p2align 2,,3
 1889              		.global	_ZN3oam12time_machine19TimeMachineHardware6GetPinENS1_7PinBankEi
 1890              		.syntax unified
 1891              		.thumb
 1892              		.thumb_func
 1894              	_ZN3oam12time_machine19TimeMachineHardware6GetPinENS1_7PinBankEi:
 1895              	.LVL147:
 1896              	.LFB3024:
 557:time_machine_hardware.cpp **** 
 558:time_machine_hardware.cpp ****     dsy_gpio_pin TimeMachineHardware::GetPin(const PinBank bank, const int idx)
 559:time_machine_hardware.cpp ****     {
 1897              		.loc 1 559 5 is_stmt 1 view -0
 1898              		.cfi_startproc
 1899              		@ args = 0, pretend = 0, frame = 8
 1900              		@ frame_needed = 0, uses_anonymous_args = 0
ARM GAS  /var/folders/v1/156fk8j97zv9pzndh61fy7zm0000gn/T//ccQgUds1.s 			page 57


 1901              		@ link register save eliminated.
 560:time_machine_hardware.cpp ****         if(idx <= 0 || idx > 10)
 1902              		.loc 1 560 9 view .LVU521
 1903              		.loc 1 560 21 is_stmt 0 view .LVU522
 1904 0000 013A     		subs	r2, r2, #1
 1905              	.LVL148:
 559:time_machine_hardware.cpp ****         if(idx <= 0 || idx > 10)
 1906              		.loc 1 559 5 view .LVU523
 1907 0002 82B0     		sub	sp, sp, #8
 1908              		.cfi_def_cfa_offset 8
 1909              		.loc 1 560 9 view .LVU524
 1910 0004 092A     		cmp	r2, #9
 1911 0006 0DD9     		bls	.L89
 561:time_machine_hardware.cpp ****             return DUMMYPIN;
 1912              		.loc 1 561 13 is_stmt 1 view .LVU525
 1913              		.loc 1 561 20 is_stmt 0 view .LVU526
 1914 0008 0B23     		movs	r3, #11
 1915 000a ADF80430 		strh	r3, [sp, #4]	@ movhi
 1916              	.LVL149:
 1917              	.L90:
 562:time_machine_hardware.cpp ****         else
 563:time_machine_hardware.cpp ****             return kPinMap[static_cast<int>(bank)][idx - 1];
 564:time_machine_hardware.cpp ****     }
 1918              		.loc 1 564 5 view .LVU527
 1919 000e 9DF80420 		ldrb	r2, [sp, #4]	@ zero_extendqisi2
 1920 0012 0020     		movs	r0, #0
 1921              	.LVL150:
 1922              		.loc 1 564 5 view .LVU528
 1923 0014 9DF80530 		ldrb	r3, [sp, #5]	@ zero_extendqisi2
 1924 0018 62F30700 		bfi	r0, r2, #0, #8
 1925 001c 63F30F20 		bfi	r0, r3, #8, #8
 1926 0020 02B0     		add	sp, sp, #8
 1927              		.cfi_remember_state
 1928              		.cfi_def_cfa_offset 0
 1929              		@ sp needed
 1930 0022 7047     		bx	lr
 1931              	.LVL151:
 1932              	.L89:
 1933              		.cfi_restore_state
 563:time_machine_hardware.cpp ****     }
 1934              		.loc 1 563 13 is_stmt 1 view .LVU529
 563:time_machine_hardware.cpp ****     }
 1935              		.loc 1 563 59 is_stmt 0 view .LVU530
 1936 0024 01EB8101 		add	r1, r1, r1, lsl #2
 1937              	.LVL152:
 563:time_machine_hardware.cpp ****     }
 1938              		.loc 1 563 59 view .LVU531
 1939 0028 034B     		ldr	r3, .L92
 1940 002a 02EB4102 		add	r2, r2, r1, lsl #1
 1941 002e 33F81230 		ldrh	r3, [r3, r2, lsl #1]
 1942 0032 ADF80430 		strh	r3, [sp, #4]	@ movhi
 1943 0036 EAE7     		b	.L90
 1944              	.L93:
 1945              		.align	2
 1946              	.L92:
 1947 0038 00000000 		.word	_ZN3oam12time_machineL7kPinMapE
 1948              		.cfi_endproc
ARM GAS  /var/folders/v1/156fk8j97zv9pzndh61fy7zm0000gn/T//ccQgUds1.s 			page 58


 1949              	.LFE3024:
 1951              		.section	.text._ZN3oam12time_machine19TimeMachineHardware6SetLedEb,"ax",%progbits
 1952              		.align	1
 1953              		.p2align 2,,3
 1954              		.global	_ZN3oam12time_machine19TimeMachineHardware6SetLedEb
 1955              		.syntax unified
 1956              		.thumb
 1957              		.thumb_func
 1959              	_ZN3oam12time_machine19TimeMachineHardware6SetLedEb:
 1960              	.LVL153:
 1961              	.LFB3025:
 565:time_machine_hardware.cpp **** 
 566:time_machine_hardware.cpp ****     // void TimeMachineHardware::StartDac(DacHandle::DacCallback callback)
 567:time_machine_hardware.cpp ****     // {
 568:time_machine_hardware.cpp ****     //     pimpl_->StartDac(callback);
 569:time_machine_hardware.cpp ****     // }
 570:time_machine_hardware.cpp **** 
 571:time_machine_hardware.cpp ****     // void TimeMachineHardware::StopDac() { pimpl_->StopDac(); }
 572:time_machine_hardware.cpp **** 
 573:time_machine_hardware.cpp ****     // void TimeMachineHardware::WriteCvOut(const int channel, float voltage)
 574:time_machine_hardware.cpp ****     // {
 575:time_machine_hardware.cpp ****     //     pimpl_->WriteCvOut(channel, voltage);
 576:time_machine_hardware.cpp ****     // }
 577:time_machine_hardware.cpp **** 
 578:time_machine_hardware.cpp ****     void TimeMachineHardware::SetLed(bool state) { dsy_gpio_write(&user_led, state); }
 1962              		.loc 1 578 50 is_stmt 1 view -0
 1963              		.cfi_startproc
 1964              		@ args = 0, pretend = 0, frame = 0
 1965              		@ frame_needed = 0, uses_anonymous_args = 0
 1966              		@ link register save eliminated.
 1967              		.loc 1 578 52 view .LVU533
 1968              		.loc 1 578 66 is_stmt 0 view .LVU534
 1969 0000 2C30     		adds	r0, r0, #44
 1970              	.LVL154:
 1971              		.loc 1 578 66 view .LVU535
 1972 0002 FFF7FEBF 		b	dsy_gpio_write
 1973              	.LVL155:
 1974              		.loc 1 578 66 view .LVU536
 1975              		.cfi_endproc
 1976              	.LFE3025:
 1978 0006 00BF     		.section	.text._ZN3oam12time_machine19TimeMachineHardware13ValidateSDRAMEv,"ax",%progbits
 1979              		.align	1
 1980              		.p2align 2,,3
 1981              		.global	_ZN3oam12time_machine19TimeMachineHardware13ValidateSDRAMEv
 1982              		.syntax unified
 1983              		.thumb
 1984              		.thumb_func
 1986              	_ZN3oam12time_machine19TimeMachineHardware13ValidateSDRAMEv:
 1987              	.LVL156:
 1988              	.LFB3026:
 579:time_machine_hardware.cpp **** 
 580:time_machine_hardware.cpp ****     bool TimeMachineHardware::ValidateSDRAM()
 581:time_machine_hardware.cpp ****     {
 1989              		.loc 1 581 5 is_stmt 1 view -0
 1990              		.cfi_startproc
 1991              		@ args = 0, pretend = 0, frame = 0
 1992              		@ frame_needed = 0, uses_anonymous_args = 0
ARM GAS  /var/folders/v1/156fk8j97zv9pzndh61fy7zm0000gn/T//ccQgUds1.s 			page 59


 582:time_machine_hardware.cpp ****         uint32_t *sdramptr      = (uint32_t *)0xc0000000;
 1993              		.loc 1 582 9 view .LVU538
 583:time_machine_hardware.cpp ****         uint32_t  size_in_words = 16777216;
 1994              		.loc 1 583 9 view .LVU539
 584:time_machine_hardware.cpp ****         uint32_t  testval       = 0xdeadbeef;
 1995              		.loc 1 584 9 view .LVU540
 585:time_machine_hardware.cpp ****         uint32_t  num_failed    = 0;
 1996              		.loc 1 585 9 view .LVU541
 586:time_machine_hardware.cpp ****         /** Write test val */
 587:time_machine_hardware.cpp ****         for(uint32_t i = 0; i < size_in_words; i++)
 1997              		.loc 1 587 9 view .LVU542
 1998              	.LBB420:
 1999              		.loc 1 587 31 discriminator 1 view .LVU543
 2000              	.LBE420:
 581:time_machine_hardware.cpp ****         uint32_t *sdramptr      = (uint32_t *)0xc0000000;
 2001              		.loc 1 581 5 is_stmt 0 view .LVU544
 2002 0000 4FF04043 		mov	r3, #-1073741824
 2003 0004 10B5     		push	{r4, lr}
 2004              		.cfi_def_cfa_offset 8
 2005              		.cfi_offset 4, -8
 2006              		.cfi_offset 14, -4
 2007              	.LVL157:
 2008              	.L96:
 2009              	.LBB422:
 2010              	.LBB421:
 588:time_machine_hardware.cpp ****         {
 589:time_machine_hardware.cpp ****             uint32_t *word = sdramptr + i;
 2011              		.loc 1 589 13 is_stmt 1 view .LVU545
 590:time_machine_hardware.cpp ****             *word          = testval;
 2012              		.loc 1 590 13 view .LVU546
 2013              		.loc 1 590 28 is_stmt 0 view .LVU547
 2014 0006 134A     		ldr	r2, .L108
 2015 0008 43F8042B 		str	r2, [r3], #4
 2016              	.LVL158:
 2017              		.loc 1 590 28 view .LVU548
 2018              	.LBE421:
 587:time_machine_hardware.cpp ****         {
 2019              		.loc 1 587 9 is_stmt 1 discriminator 3 view .LVU549
 587:time_machine_hardware.cpp ****         {
 2020              		.loc 1 587 31 discriminator 1 view .LVU550
 2021 000c B3F1444F 		cmp	r3, #-1006632960
 2022 0010 F9D1     		bne	.L96
 2023 0012 4FF04043 		mov	r3, #-1073741824
 2024              	.LVL159:
 587:time_machine_hardware.cpp ****         {
 2025              		.loc 1 587 31 is_stmt 0 discriminator 1 view .LVU551
 2026              	.LBE422:
 585:time_machine_hardware.cpp ****         /** Write test val */
 2027              		.loc 1 585 19 view .LVU552
 2028 0016 0024     		movs	r4, #0
 2029              	.LVL160:
 2030              	.L98:
 2031              	.LBB423:
 2032              	.LBB424:
 591:time_machine_hardware.cpp ****         }
 592:time_machine_hardware.cpp ****         /** Compare written */
 593:time_machine_hardware.cpp ****         for(uint32_t i = 0; i < size_in_words; i++)
ARM GAS  /var/folders/v1/156fk8j97zv9pzndh61fy7zm0000gn/T//ccQgUds1.s 			page 60


 594:time_machine_hardware.cpp ****         {
 595:time_machine_hardware.cpp ****             uint32_t *word = sdramptr + i;
 2033              		.loc 1 595 13 is_stmt 1 view .LVU553
 596:time_machine_hardware.cpp ****             if(*word != testval)
 2034              		.loc 1 596 13 view .LVU554
 597:time_machine_hardware.cpp ****                 num_failed++;
 2035              		.loc 1 597 17 view .LVU555
 596:time_machine_hardware.cpp ****             if(*word != testval)
 2036              		.loc 1 596 13 is_stmt 0 view .LVU556
 2037 0018 1968     		ldr	r1, [r3]
 2038              	.LBE424:
 593:time_machine_hardware.cpp ****         {
 2039              		.loc 1 593 31 discriminator 1 view .LVU557
 2040 001a 0433     		adds	r3, r3, #4
 2041              	.LVL161:
 2042              	.LBB425:
 596:time_machine_hardware.cpp ****             if(*word != testval)
 2043              		.loc 1 596 13 view .LVU558
 2044 001c 0D4A     		ldr	r2, .L108
 2045 001e 9142     		cmp	r1, r2
 2046              		.loc 1 597 27 view .LVU559
 2047 0020 18BF     		it	ne
 2048 0022 0134     		addne	r4, r4, #1
 2049              	.LVL162:
 2050              		.loc 1 597 27 view .LVU560
 2051              	.LBE425:
 593:time_machine_hardware.cpp ****         {
 2052              		.loc 1 593 9 is_stmt 1 discriminator 2 view .LVU561
 593:time_machine_hardware.cpp ****         {
 2053              		.loc 1 593 31 discriminator 1 view .LVU562
 2054 0024 B3F1444F 		cmp	r3, #-1006632960
 2055 0028 F6D1     		bne	.L98
 2056              	.LVL163:
 593:time_machine_hardware.cpp ****         {
 2057              		.loc 1 593 31 is_stmt 0 discriminator 1 view .LVU563
 2058              	.LBE423:
 2059              	.LBB426:
 598:time_machine_hardware.cpp ****         }
 599:time_machine_hardware.cpp ****         /** Write Zeroes */
 600:time_machine_hardware.cpp ****         for(uint32_t i = 0; i < size_in_words; i++)
 2060              		.loc 1 600 31 is_stmt 1 discriminator 1 view .LVU564
 2061              	.LBB427:
 601:time_machine_hardware.cpp ****         {
 602:time_machine_hardware.cpp ****             uint32_t *word = sdramptr + i;
 603:time_machine_hardware.cpp ****             *word          = 0x00000000;
 2062              		.loc 1 603 28 is_stmt 0 view .LVU565
 2063 002a 4FF08062 		mov	r2, #67108864
 2064 002e 0021     		movs	r1, #0
 2065 0030 4FF04040 		mov	r0, #-1073741824
 2066              	.LVL164:
 2067              		.loc 1 603 28 view .LVU566
 2068 0034 FFF7FEFF 		bl	memset
 2069              	.LVL165:
 2070              		.loc 1 603 28 view .LVU567
 2071 0038 4FF04043 		mov	r3, #-1073741824
 2072              	.L100:
 2073              		.loc 1 603 28 view .LVU568
ARM GAS  /var/folders/v1/156fk8j97zv9pzndh61fy7zm0000gn/T//ccQgUds1.s 			page 61


 2074              	.LBE427:
 2075              	.LBE426:
 2076              	.LBB428:
 2077              	.LBB429:
 604:time_machine_hardware.cpp ****         }
 605:time_machine_hardware.cpp ****         /** Compare Cleared */
 606:time_machine_hardware.cpp ****         for(uint32_t i = 0; i < size_in_words; i++)
 607:time_machine_hardware.cpp ****         {
 608:time_machine_hardware.cpp ****             uint32_t *word = sdramptr + i;
 2078              		.loc 1 608 13 is_stmt 1 view .LVU569
 2079              	.LVL166:
 609:time_machine_hardware.cpp ****             if(*word != 0)
 2080              		.loc 1 609 13 view .LVU570
 610:time_machine_hardware.cpp ****                 num_failed++;
 2081              		.loc 1 610 17 view .LVU571
 609:time_machine_hardware.cpp ****             if(*word != 0)
 2082              		.loc 1 609 13 is_stmt 0 view .LVU572
 2083 003c 1A68     		ldr	r2, [r3]
 2084              	.LBE429:
 606:time_machine_hardware.cpp ****         {
 2085              		.loc 1 606 31 discriminator 1 view .LVU573
 2086 003e 0433     		adds	r3, r3, #4
 2087              	.LVL167:
 2088              	.LBB430:
 609:time_machine_hardware.cpp ****             if(*word != 0)
 2089              		.loc 1 609 13 view .LVU574
 2090 0040 02B1     		cbz	r2, .L99
 2091              		.loc 1 610 27 view .LVU575
 2092 0042 0134     		adds	r4, r4, #1
 2093              	.LVL168:
 2094              	.L99:
 2095              		.loc 1 610 27 view .LVU576
 2096              	.LBE430:
 606:time_machine_hardware.cpp ****         {
 2097              		.loc 1 606 9 is_stmt 1 discriminator 2 view .LVU577
 606:time_machine_hardware.cpp ****         {
 2098              		.loc 1 606 31 discriminator 1 view .LVU578
 2099 0044 B3F1444F 		cmp	r3, #-1006632960
 2100 0048 F8D1     		bne	.L100
 2101              	.LBE428:
 611:time_machine_hardware.cpp ****         }
 612:time_machine_hardware.cpp ****         return num_failed == 0;
 2102              		.loc 1 612 9 view .LVU579
 613:time_machine_hardware.cpp ****     }
 2103              		.loc 1 613 5 is_stmt 0 view .LVU580
 2104 004a B4FA84F0 		clz	r0, r4
 2105 004e 4009     		lsrs	r0, r0, #5
 2106 0050 10BD     		pop	{r4, pc}
 2107              	.LVL169:
 2108              	.L109:
 2109              		.loc 1 613 5 view .LVU581
 2110 0052 00BF     		.align	2
 2111              	.L108:
 2112 0054 EFBEADDE 		.word	-559038737
 2113              		.cfi_endproc
 2114              	.LFE3026:
 2116              		.section	.text._ZN3oam12time_machine19TimeMachineHardware12ValidateQSPIEb,"ax",%progbits
ARM GAS  /var/folders/v1/156fk8j97zv9pzndh61fy7zm0000gn/T//ccQgUds1.s 			page 62


 2117              		.align	1
 2118              		.p2align 2,,3
 2119              		.global	_ZN3oam12time_machine19TimeMachineHardware12ValidateQSPIEb
 2120              		.syntax unified
 2121              		.thumb
 2122              		.thumb_func
 2124              	_ZN3oam12time_machine19TimeMachineHardware12ValidateQSPIEb:
 2125              	.LVL170:
 2126              	.LFB3027:
 614:time_machine_hardware.cpp **** 
 615:time_machine_hardware.cpp ****     bool TimeMachineHardware::ValidateQSPI(bool quick)
 616:time_machine_hardware.cpp ****     {
 2127              		.loc 1 616 5 is_stmt 1 view -0
 2128              		.cfi_startproc
 2129              		@ args = 0, pretend = 0, frame = 0
 2130              		@ frame_needed = 0, uses_anonymous_args = 0
 617:time_machine_hardware.cpp ****         uint32_t start;
 2131              		.loc 1 617 9 view .LVU583
 618:time_machine_hardware.cpp ****         uint32_t size;
 2132              		.loc 1 618 9 view .LVU584
 619:time_machine_hardware.cpp ****         if(quick)
 2133              		.loc 1 619 9 view .LVU585
 616:time_machine_hardware.cpp ****         uint32_t start;
 2134              		.loc 1 616 5 is_stmt 0 view .LVU586
 2135 0000 2DE9F047 		push	{r4, r5, r6, r7, r8, r9, r10, lr}
 2136              		.cfi_def_cfa_offset 32
 2137              		.cfi_offset 4, -32
 2138              		.cfi_offset 5, -28
 2139              		.cfi_offset 6, -24
 2140              		.cfi_offset 7, -20
 2141              		.cfi_offset 8, -16
 2142              		.cfi_offset 9, -12
 2143              		.cfi_offset 10, -8
 2144              		.cfi_offset 14, -4
 2145              		.loc 1 619 9 view .LVU587
 2146 0004 0029     		cmp	r1, #0
 2147 0006 40D0     		beq	.L115
 2148 0008 43F6FF74 		movw	r4, #16383
 2149 000c 224A     		ldr	r2, .L119
 620:time_machine_hardware.cpp ****         {
 621:time_machine_hardware.cpp ****             start = 0x400000;
 622:time_machine_hardware.cpp ****             size  = 0x4000;
 2150              		.loc 1 622 19 view .LVU588
 2151 000e 4FF48048 		mov	r8, #16384
 621:time_machine_hardware.cpp ****             size  = 0x4000;
 2152              		.loc 1 621 19 view .LVU589
 2153 0012 4FF48009 		mov	r9, #4194304
 2154              	.L111:
 2155              	.LVL171:
 623:time_machine_hardware.cpp ****         }
 624:time_machine_hardware.cpp ****         else
 625:time_machine_hardware.cpp ****         {
 626:time_machine_hardware.cpp ****             start = 0;
 627:time_machine_hardware.cpp ****             size  = 0x800000;
 628:time_machine_hardware.cpp ****         }
 629:time_machine_hardware.cpp ****         // Erase the section to be tested
 630:time_machine_hardware.cpp ****         qspi.Erase(start, start + size);
ARM GAS  /var/folders/v1/156fk8j97zv9pzndh61fy7zm0000gn/T//ccQgUds1.s 			page 63


 2156              		.loc 1 630 9 is_stmt 1 view .LVU590
 2157              		.loc 1 630 19 is_stmt 0 view .LVU591
 2158 0016 00F10C0A 		add	r10, r0, #12
 2159 001a 4946     		mov	r1, r9
 2160              	.LVL172:
 2161              		.loc 1 630 19 view .LVU592
 2162 001c 5046     		mov	r0, r10
 2163              	.LVL173:
 2164              		.loc 1 630 19 view .LVU593
 2165 001e FFF7FEFF 		bl	_ZN5daisy10QSPIHandle5EraseEmm
 2166              	.LVL174:
 631:time_machine_hardware.cpp ****         // Create some test data
 632:time_machine_hardware.cpp ****         std::vector<uint8_t> test;
 2167              		.loc 1 632 9 is_stmt 1 view .LVU594
 2168              	.LBB548:
 2169              	.LBI548:
 2170              		.file 8 "/Applications/ArmGNUToolchain/14.3.rel1/arm-none-eabi/arm-none-eabi/include/c++/14.3.1/bi
   1:/Applications/ArmGNUToolchain/14.3.rel1/arm-none-eabi/arm-none-eabi/include/c++/14.3.1/bits/stl_vector.h **** // Vector implementation -*- C++ -*-
   2:/Applications/ArmGNUToolchain/14.3.rel1/arm-none-eabi/arm-none-eabi/include/c++/14.3.1/bits/stl_vector.h **** 
   3:/Applications/ArmGNUToolchain/14.3.rel1/arm-none-eabi/arm-none-eabi/include/c++/14.3.1/bits/stl_vector.h **** // Copyright (C) 2001-2024 Free Software Foundation, Inc.
   4:/Applications/ArmGNUToolchain/14.3.rel1/arm-none-eabi/arm-none-eabi/include/c++/14.3.1/bits/stl_vector.h **** //
   5:/Applications/ArmGNUToolchain/14.3.rel1/arm-none-eabi/arm-none-eabi/include/c++/14.3.1/bits/stl_vector.h **** // This file is part of the GNU ISO C++ Library.  This library is free
   6:/Applications/ArmGNUToolchain/14.3.rel1/arm-none-eabi/arm-none-eabi/include/c++/14.3.1/bits/stl_vector.h **** // software; you can redistribute it and/or modify it under the
   7:/Applications/ArmGNUToolchain/14.3.rel1/arm-none-eabi/arm-none-eabi/include/c++/14.3.1/bits/stl_vector.h **** // terms of the GNU General Public License as published by the
   8:/Applications/ArmGNUToolchain/14.3.rel1/arm-none-eabi/arm-none-eabi/include/c++/14.3.1/bits/stl_vector.h **** // Free Software Foundation; either version 3, or (at your option)
   9:/Applications/ArmGNUToolchain/14.3.rel1/arm-none-eabi/arm-none-eabi/include/c++/14.3.1/bits/stl_vector.h **** // any later version.
  10:/Applications/ArmGNUToolchain/14.3.rel1/arm-none-eabi/arm-none-eabi/include/c++/14.3.1/bits/stl_vector.h **** 
  11:/Applications/ArmGNUToolchain/14.3.rel1/arm-none-eabi/arm-none-eabi/include/c++/14.3.1/bits/stl_vector.h **** // This library is distributed in the hope that it will be useful,
  12:/Applications/ArmGNUToolchain/14.3.rel1/arm-none-eabi/arm-none-eabi/include/c++/14.3.1/bits/stl_vector.h **** // but WITHOUT ANY WARRANTY; without even the implied warranty of
  13:/Applications/ArmGNUToolchain/14.3.rel1/arm-none-eabi/arm-none-eabi/include/c++/14.3.1/bits/stl_vector.h **** // MERCHANTABILITY or FITNESS FOR A PARTICULAR PURPOSE.  See the
  14:/Applications/ArmGNUToolchain/14.3.rel1/arm-none-eabi/arm-none-eabi/include/c++/14.3.1/bits/stl_vector.h **** // GNU General Public License for more details.
  15:/Applications/ArmGNUToolchain/14.3.rel1/arm-none-eabi/arm-none-eabi/include/c++/14.3.1/bits/stl_vector.h **** 
  16:/Applications/ArmGNUToolchain/14.3.rel1/arm-none-eabi/arm-none-eabi/include/c++/14.3.1/bits/stl_vector.h **** // Under Section 7 of GPL version 3, you are granted additional
  17:/Applications/ArmGNUToolchain/14.3.rel1/arm-none-eabi/arm-none-eabi/include/c++/14.3.1/bits/stl_vector.h **** // permissions described in the GCC Runtime Library Exception, version
  18:/Applications/ArmGNUToolchain/14.3.rel1/arm-none-eabi/arm-none-eabi/include/c++/14.3.1/bits/stl_vector.h **** // 3.1, as published by the Free Software Foundation.
  19:/Applications/ArmGNUToolchain/14.3.rel1/arm-none-eabi/arm-none-eabi/include/c++/14.3.1/bits/stl_vector.h **** 
  20:/Applications/ArmGNUToolchain/14.3.rel1/arm-none-eabi/arm-none-eabi/include/c++/14.3.1/bits/stl_vector.h **** // You should have received a copy of the GNU General Public License and
  21:/Applications/ArmGNUToolchain/14.3.rel1/arm-none-eabi/arm-none-eabi/include/c++/14.3.1/bits/stl_vector.h **** // a copy of the GCC Runtime Library Exception along with this program;
  22:/Applications/ArmGNUToolchain/14.3.rel1/arm-none-eabi/arm-none-eabi/include/c++/14.3.1/bits/stl_vector.h **** // see the files COPYING3 and COPYING.RUNTIME respectively.  If not, see
  23:/Applications/ArmGNUToolchain/14.3.rel1/arm-none-eabi/arm-none-eabi/include/c++/14.3.1/bits/stl_vector.h **** // <http://www.gnu.org/licenses/>.
  24:/Applications/ArmGNUToolchain/14.3.rel1/arm-none-eabi/arm-none-eabi/include/c++/14.3.1/bits/stl_vector.h **** 
  25:/Applications/ArmGNUToolchain/14.3.rel1/arm-none-eabi/arm-none-eabi/include/c++/14.3.1/bits/stl_vector.h **** /*
  26:/Applications/ArmGNUToolchain/14.3.rel1/arm-none-eabi/arm-none-eabi/include/c++/14.3.1/bits/stl_vector.h ****  *
  27:/Applications/ArmGNUToolchain/14.3.rel1/arm-none-eabi/arm-none-eabi/include/c++/14.3.1/bits/stl_vector.h ****  * Copyright (c) 1994
  28:/Applications/ArmGNUToolchain/14.3.rel1/arm-none-eabi/arm-none-eabi/include/c++/14.3.1/bits/stl_vector.h ****  * Hewlett-Packard Company
  29:/Applications/ArmGNUToolchain/14.3.rel1/arm-none-eabi/arm-none-eabi/include/c++/14.3.1/bits/stl_vector.h ****  *
  30:/Applications/ArmGNUToolchain/14.3.rel1/arm-none-eabi/arm-none-eabi/include/c++/14.3.1/bits/stl_vector.h ****  * Permission to use, copy, modify, distribute and sell this software
  31:/Applications/ArmGNUToolchain/14.3.rel1/arm-none-eabi/arm-none-eabi/include/c++/14.3.1/bits/stl_vector.h ****  * and its documentation for any purpose is hereby granted without fee,
  32:/Applications/ArmGNUToolchain/14.3.rel1/arm-none-eabi/arm-none-eabi/include/c++/14.3.1/bits/stl_vector.h ****  * provided that the above copyright notice appear in all copies and
  33:/Applications/ArmGNUToolchain/14.3.rel1/arm-none-eabi/arm-none-eabi/include/c++/14.3.1/bits/stl_vector.h ****  * that both that copyright notice and this permission notice appear
  34:/Applications/ArmGNUToolchain/14.3.rel1/arm-none-eabi/arm-none-eabi/include/c++/14.3.1/bits/stl_vector.h ****  * in supporting documentation.  Hewlett-Packard Company makes no
  35:/Applications/ArmGNUToolchain/14.3.rel1/arm-none-eabi/arm-none-eabi/include/c++/14.3.1/bits/stl_vector.h ****  * representations about the suitability of this software for any
  36:/Applications/ArmGNUToolchain/14.3.rel1/arm-none-eabi/arm-none-eabi/include/c++/14.3.1/bits/stl_vector.h ****  * purpose.  It is provided "as is" without express or implied warranty.
  37:/Applications/ArmGNUToolchain/14.3.rel1/arm-none-eabi/arm-none-eabi/include/c++/14.3.1/bits/stl_vector.h ****  *
  38:/Applications/ArmGNUToolchain/14.3.rel1/arm-none-eabi/arm-none-eabi/include/c++/14.3.1/bits/stl_vector.h ****  *
  39:/Applications/ArmGNUToolchain/14.3.rel1/arm-none-eabi/arm-none-eabi/include/c++/14.3.1/bits/stl_vector.h ****  * Copyright (c) 1996
  40:/Applications/ArmGNUToolchain/14.3.rel1/arm-none-eabi/arm-none-eabi/include/c++/14.3.1/bits/stl_vector.h ****  * Silicon Graphics Computer Systems, Inc.
ARM GAS  /var/folders/v1/156fk8j97zv9pzndh61fy7zm0000gn/T//ccQgUds1.s 			page 64


  41:/Applications/ArmGNUToolchain/14.3.rel1/arm-none-eabi/arm-none-eabi/include/c++/14.3.1/bits/stl_vector.h ****  *
  42:/Applications/ArmGNUToolchain/14.3.rel1/arm-none-eabi/arm-none-eabi/include/c++/14.3.1/bits/stl_vector.h ****  * Permission to use, copy, modify, distribute and sell this software
  43:/Applications/ArmGNUToolchain/14.3.rel1/arm-none-eabi/arm-none-eabi/include/c++/14.3.1/bits/stl_vector.h ****  * and its documentation for any purpose is hereby granted without fee,
  44:/Applications/ArmGNUToolchain/14.3.rel1/arm-none-eabi/arm-none-eabi/include/c++/14.3.1/bits/stl_vector.h ****  * provided that the above copyright notice appear in all copies and
  45:/Applications/ArmGNUToolchain/14.3.rel1/arm-none-eabi/arm-none-eabi/include/c++/14.3.1/bits/stl_vector.h ****  * that both that copyright notice and this permission notice appear
  46:/Applications/ArmGNUToolchain/14.3.rel1/arm-none-eabi/arm-none-eabi/include/c++/14.3.1/bits/stl_vector.h ****  * in supporting documentation.  Silicon Graphics makes no
  47:/Applications/ArmGNUToolchain/14.3.rel1/arm-none-eabi/arm-none-eabi/include/c++/14.3.1/bits/stl_vector.h ****  * representations about the suitability of this  software for any
  48:/Applications/ArmGNUToolchain/14.3.rel1/arm-none-eabi/arm-none-eabi/include/c++/14.3.1/bits/stl_vector.h ****  * purpose.  It is provided "as is" without express or implied warranty.
  49:/Applications/ArmGNUToolchain/14.3.rel1/arm-none-eabi/arm-none-eabi/include/c++/14.3.1/bits/stl_vector.h ****  */
  50:/Applications/ArmGNUToolchain/14.3.rel1/arm-none-eabi/arm-none-eabi/include/c++/14.3.1/bits/stl_vector.h **** 
  51:/Applications/ArmGNUToolchain/14.3.rel1/arm-none-eabi/arm-none-eabi/include/c++/14.3.1/bits/stl_vector.h **** /** @file bits/stl_vector.h
  52:/Applications/ArmGNUToolchain/14.3.rel1/arm-none-eabi/arm-none-eabi/include/c++/14.3.1/bits/stl_vector.h ****  *  This is an internal header file, included by other library headers.
  53:/Applications/ArmGNUToolchain/14.3.rel1/arm-none-eabi/arm-none-eabi/include/c++/14.3.1/bits/stl_vector.h ****  *  Do not attempt to use it directly. @headername{vector}
  54:/Applications/ArmGNUToolchain/14.3.rel1/arm-none-eabi/arm-none-eabi/include/c++/14.3.1/bits/stl_vector.h ****  */
  55:/Applications/ArmGNUToolchain/14.3.rel1/arm-none-eabi/arm-none-eabi/include/c++/14.3.1/bits/stl_vector.h **** 
  56:/Applications/ArmGNUToolchain/14.3.rel1/arm-none-eabi/arm-none-eabi/include/c++/14.3.1/bits/stl_vector.h **** #ifndef _STL_VECTOR_H
  57:/Applications/ArmGNUToolchain/14.3.rel1/arm-none-eabi/arm-none-eabi/include/c++/14.3.1/bits/stl_vector.h **** #define _STL_VECTOR_H 1
  58:/Applications/ArmGNUToolchain/14.3.rel1/arm-none-eabi/arm-none-eabi/include/c++/14.3.1/bits/stl_vector.h **** 
  59:/Applications/ArmGNUToolchain/14.3.rel1/arm-none-eabi/arm-none-eabi/include/c++/14.3.1/bits/stl_vector.h **** #include <bits/stl_iterator_base_funcs.h>
  60:/Applications/ArmGNUToolchain/14.3.rel1/arm-none-eabi/arm-none-eabi/include/c++/14.3.1/bits/stl_vector.h **** #include <bits/functexcept.h>
  61:/Applications/ArmGNUToolchain/14.3.rel1/arm-none-eabi/arm-none-eabi/include/c++/14.3.1/bits/stl_vector.h **** #include <bits/concept_check.h>
  62:/Applications/ArmGNUToolchain/14.3.rel1/arm-none-eabi/arm-none-eabi/include/c++/14.3.1/bits/stl_vector.h **** #if __cplusplus >= 201103L
  63:/Applications/ArmGNUToolchain/14.3.rel1/arm-none-eabi/arm-none-eabi/include/c++/14.3.1/bits/stl_vector.h **** #include <initializer_list>
  64:/Applications/ArmGNUToolchain/14.3.rel1/arm-none-eabi/arm-none-eabi/include/c++/14.3.1/bits/stl_vector.h **** #endif
  65:/Applications/ArmGNUToolchain/14.3.rel1/arm-none-eabi/arm-none-eabi/include/c++/14.3.1/bits/stl_vector.h **** #if __cplusplus >= 202002L
  66:/Applications/ArmGNUToolchain/14.3.rel1/arm-none-eabi/arm-none-eabi/include/c++/14.3.1/bits/stl_vector.h **** # include <compare>
  67:/Applications/ArmGNUToolchain/14.3.rel1/arm-none-eabi/arm-none-eabi/include/c++/14.3.1/bits/stl_vector.h **** #endif
  68:/Applications/ArmGNUToolchain/14.3.rel1/arm-none-eabi/arm-none-eabi/include/c++/14.3.1/bits/stl_vector.h **** #if __glibcxx_concepts // C++ >= C++20
  69:/Applications/ArmGNUToolchain/14.3.rel1/arm-none-eabi/arm-none-eabi/include/c++/14.3.1/bits/stl_vector.h **** # include <bits/ranges_base.h>          // ranges::distance
  70:/Applications/ArmGNUToolchain/14.3.rel1/arm-none-eabi/arm-none-eabi/include/c++/14.3.1/bits/stl_vector.h **** #endif
  71:/Applications/ArmGNUToolchain/14.3.rel1/arm-none-eabi/arm-none-eabi/include/c++/14.3.1/bits/stl_vector.h **** 
  72:/Applications/ArmGNUToolchain/14.3.rel1/arm-none-eabi/arm-none-eabi/include/c++/14.3.1/bits/stl_vector.h **** #include <debug/assertions.h>
  73:/Applications/ArmGNUToolchain/14.3.rel1/arm-none-eabi/arm-none-eabi/include/c++/14.3.1/bits/stl_vector.h **** 
  74:/Applications/ArmGNUToolchain/14.3.rel1/arm-none-eabi/arm-none-eabi/include/c++/14.3.1/bits/stl_vector.h **** #if _GLIBCXX_SANITIZE_STD_ALLOCATOR && _GLIBCXX_SANITIZE_VECTOR
  75:/Applications/ArmGNUToolchain/14.3.rel1/arm-none-eabi/arm-none-eabi/include/c++/14.3.1/bits/stl_vector.h **** extern "C" void
  76:/Applications/ArmGNUToolchain/14.3.rel1/arm-none-eabi/arm-none-eabi/include/c++/14.3.1/bits/stl_vector.h **** __sanitizer_annotate_contiguous_container(const void*, const void*,
  77:/Applications/ArmGNUToolchain/14.3.rel1/arm-none-eabi/arm-none-eabi/include/c++/14.3.1/bits/stl_vector.h **** 					  const void*, const void*);
  78:/Applications/ArmGNUToolchain/14.3.rel1/arm-none-eabi/arm-none-eabi/include/c++/14.3.1/bits/stl_vector.h **** #endif
  79:/Applications/ArmGNUToolchain/14.3.rel1/arm-none-eabi/arm-none-eabi/include/c++/14.3.1/bits/stl_vector.h **** 
  80:/Applications/ArmGNUToolchain/14.3.rel1/arm-none-eabi/arm-none-eabi/include/c++/14.3.1/bits/stl_vector.h **** namespace std _GLIBCXX_VISIBILITY(default)
  81:/Applications/ArmGNUToolchain/14.3.rel1/arm-none-eabi/arm-none-eabi/include/c++/14.3.1/bits/stl_vector.h **** {
  82:/Applications/ArmGNUToolchain/14.3.rel1/arm-none-eabi/arm-none-eabi/include/c++/14.3.1/bits/stl_vector.h **** _GLIBCXX_BEGIN_NAMESPACE_VERSION
  83:/Applications/ArmGNUToolchain/14.3.rel1/arm-none-eabi/arm-none-eabi/include/c++/14.3.1/bits/stl_vector.h **** _GLIBCXX_BEGIN_NAMESPACE_CONTAINER
  84:/Applications/ArmGNUToolchain/14.3.rel1/arm-none-eabi/arm-none-eabi/include/c++/14.3.1/bits/stl_vector.h **** 
  85:/Applications/ArmGNUToolchain/14.3.rel1/arm-none-eabi/arm-none-eabi/include/c++/14.3.1/bits/stl_vector.h ****   /// See bits/stl_deque.h's _Deque_base for an explanation.
  86:/Applications/ArmGNUToolchain/14.3.rel1/arm-none-eabi/arm-none-eabi/include/c++/14.3.1/bits/stl_vector.h ****   template<typename _Tp, typename _Alloc>
  87:/Applications/ArmGNUToolchain/14.3.rel1/arm-none-eabi/arm-none-eabi/include/c++/14.3.1/bits/stl_vector.h ****     struct _Vector_base
  88:/Applications/ArmGNUToolchain/14.3.rel1/arm-none-eabi/arm-none-eabi/include/c++/14.3.1/bits/stl_vector.h ****     {
  89:/Applications/ArmGNUToolchain/14.3.rel1/arm-none-eabi/arm-none-eabi/include/c++/14.3.1/bits/stl_vector.h ****       typedef typename __gnu_cxx::__alloc_traits<_Alloc>::template
  90:/Applications/ArmGNUToolchain/14.3.rel1/arm-none-eabi/arm-none-eabi/include/c++/14.3.1/bits/stl_vector.h **** 	rebind<_Tp>::other _Tp_alloc_type;
  91:/Applications/ArmGNUToolchain/14.3.rel1/arm-none-eabi/arm-none-eabi/include/c++/14.3.1/bits/stl_vector.h ****       typedef typename __gnu_cxx::__alloc_traits<_Tp_alloc_type>::pointer
  92:/Applications/ArmGNUToolchain/14.3.rel1/arm-none-eabi/arm-none-eabi/include/c++/14.3.1/bits/stl_vector.h ****        	pointer;
  93:/Applications/ArmGNUToolchain/14.3.rel1/arm-none-eabi/arm-none-eabi/include/c++/14.3.1/bits/stl_vector.h **** 
  94:/Applications/ArmGNUToolchain/14.3.rel1/arm-none-eabi/arm-none-eabi/include/c++/14.3.1/bits/stl_vector.h ****       struct _Vector_impl_data
  95:/Applications/ArmGNUToolchain/14.3.rel1/arm-none-eabi/arm-none-eabi/include/c++/14.3.1/bits/stl_vector.h ****       {
  96:/Applications/ArmGNUToolchain/14.3.rel1/arm-none-eabi/arm-none-eabi/include/c++/14.3.1/bits/stl_vector.h **** 	pointer _M_start;
  97:/Applications/ArmGNUToolchain/14.3.rel1/arm-none-eabi/arm-none-eabi/include/c++/14.3.1/bits/stl_vector.h **** 	pointer _M_finish;
ARM GAS  /var/folders/v1/156fk8j97zv9pzndh61fy7zm0000gn/T//ccQgUds1.s 			page 65


  98:/Applications/ArmGNUToolchain/14.3.rel1/arm-none-eabi/arm-none-eabi/include/c++/14.3.1/bits/stl_vector.h **** 	pointer _M_end_of_storage;
  99:/Applications/ArmGNUToolchain/14.3.rel1/arm-none-eabi/arm-none-eabi/include/c++/14.3.1/bits/stl_vector.h **** 
 100:/Applications/ArmGNUToolchain/14.3.rel1/arm-none-eabi/arm-none-eabi/include/c++/14.3.1/bits/stl_vector.h **** 	_GLIBCXX20_CONSTEXPR
 101:/Applications/ArmGNUToolchain/14.3.rel1/arm-none-eabi/arm-none-eabi/include/c++/14.3.1/bits/stl_vector.h **** 	_Vector_impl_data() _GLIBCXX_NOEXCEPT
 102:/Applications/ArmGNUToolchain/14.3.rel1/arm-none-eabi/arm-none-eabi/include/c++/14.3.1/bits/stl_vector.h **** 	: _M_start(), _M_finish(), _M_end_of_storage()
 103:/Applications/ArmGNUToolchain/14.3.rel1/arm-none-eabi/arm-none-eabi/include/c++/14.3.1/bits/stl_vector.h **** 	{ }
 104:/Applications/ArmGNUToolchain/14.3.rel1/arm-none-eabi/arm-none-eabi/include/c++/14.3.1/bits/stl_vector.h **** 
 105:/Applications/ArmGNUToolchain/14.3.rel1/arm-none-eabi/arm-none-eabi/include/c++/14.3.1/bits/stl_vector.h **** #if __cplusplus >= 201103L
 106:/Applications/ArmGNUToolchain/14.3.rel1/arm-none-eabi/arm-none-eabi/include/c++/14.3.1/bits/stl_vector.h **** 	_GLIBCXX20_CONSTEXPR
 107:/Applications/ArmGNUToolchain/14.3.rel1/arm-none-eabi/arm-none-eabi/include/c++/14.3.1/bits/stl_vector.h **** 	_Vector_impl_data(_Vector_impl_data&& __x) noexcept
 108:/Applications/ArmGNUToolchain/14.3.rel1/arm-none-eabi/arm-none-eabi/include/c++/14.3.1/bits/stl_vector.h **** 	: _M_start(__x._M_start), _M_finish(__x._M_finish),
 109:/Applications/ArmGNUToolchain/14.3.rel1/arm-none-eabi/arm-none-eabi/include/c++/14.3.1/bits/stl_vector.h **** 	  _M_end_of_storage(__x._M_end_of_storage)
 110:/Applications/ArmGNUToolchain/14.3.rel1/arm-none-eabi/arm-none-eabi/include/c++/14.3.1/bits/stl_vector.h **** 	{ __x._M_start = __x._M_finish = __x._M_end_of_storage = pointer(); }
 111:/Applications/ArmGNUToolchain/14.3.rel1/arm-none-eabi/arm-none-eabi/include/c++/14.3.1/bits/stl_vector.h **** #endif
 112:/Applications/ArmGNUToolchain/14.3.rel1/arm-none-eabi/arm-none-eabi/include/c++/14.3.1/bits/stl_vector.h **** 
 113:/Applications/ArmGNUToolchain/14.3.rel1/arm-none-eabi/arm-none-eabi/include/c++/14.3.1/bits/stl_vector.h **** 	_GLIBCXX20_CONSTEXPR
 114:/Applications/ArmGNUToolchain/14.3.rel1/arm-none-eabi/arm-none-eabi/include/c++/14.3.1/bits/stl_vector.h **** 	void
 115:/Applications/ArmGNUToolchain/14.3.rel1/arm-none-eabi/arm-none-eabi/include/c++/14.3.1/bits/stl_vector.h **** 	_M_copy_data(_Vector_impl_data const& __x) _GLIBCXX_NOEXCEPT
 116:/Applications/ArmGNUToolchain/14.3.rel1/arm-none-eabi/arm-none-eabi/include/c++/14.3.1/bits/stl_vector.h **** 	{
 117:/Applications/ArmGNUToolchain/14.3.rel1/arm-none-eabi/arm-none-eabi/include/c++/14.3.1/bits/stl_vector.h **** 	  _M_start = __x._M_start;
 118:/Applications/ArmGNUToolchain/14.3.rel1/arm-none-eabi/arm-none-eabi/include/c++/14.3.1/bits/stl_vector.h **** 	  _M_finish = __x._M_finish;
 119:/Applications/ArmGNUToolchain/14.3.rel1/arm-none-eabi/arm-none-eabi/include/c++/14.3.1/bits/stl_vector.h **** 	  _M_end_of_storage = __x._M_end_of_storage;
 120:/Applications/ArmGNUToolchain/14.3.rel1/arm-none-eabi/arm-none-eabi/include/c++/14.3.1/bits/stl_vector.h **** 	}
 121:/Applications/ArmGNUToolchain/14.3.rel1/arm-none-eabi/arm-none-eabi/include/c++/14.3.1/bits/stl_vector.h **** 
 122:/Applications/ArmGNUToolchain/14.3.rel1/arm-none-eabi/arm-none-eabi/include/c++/14.3.1/bits/stl_vector.h **** 	_GLIBCXX20_CONSTEXPR
 123:/Applications/ArmGNUToolchain/14.3.rel1/arm-none-eabi/arm-none-eabi/include/c++/14.3.1/bits/stl_vector.h **** 	void
 124:/Applications/ArmGNUToolchain/14.3.rel1/arm-none-eabi/arm-none-eabi/include/c++/14.3.1/bits/stl_vector.h **** 	_M_swap_data(_Vector_impl_data& __x) _GLIBCXX_NOEXCEPT
 125:/Applications/ArmGNUToolchain/14.3.rel1/arm-none-eabi/arm-none-eabi/include/c++/14.3.1/bits/stl_vector.h **** 	{
 126:/Applications/ArmGNUToolchain/14.3.rel1/arm-none-eabi/arm-none-eabi/include/c++/14.3.1/bits/stl_vector.h **** 	  // Do not use std::swap(_M_start, __x._M_start), etc as it loses
 127:/Applications/ArmGNUToolchain/14.3.rel1/arm-none-eabi/arm-none-eabi/include/c++/14.3.1/bits/stl_vector.h **** 	  // information used by TBAA.
 128:/Applications/ArmGNUToolchain/14.3.rel1/arm-none-eabi/arm-none-eabi/include/c++/14.3.1/bits/stl_vector.h **** 	  _Vector_impl_data __tmp;
 129:/Applications/ArmGNUToolchain/14.3.rel1/arm-none-eabi/arm-none-eabi/include/c++/14.3.1/bits/stl_vector.h **** 	  __tmp._M_copy_data(*this);
 130:/Applications/ArmGNUToolchain/14.3.rel1/arm-none-eabi/arm-none-eabi/include/c++/14.3.1/bits/stl_vector.h **** 	  _M_copy_data(__x);
 131:/Applications/ArmGNUToolchain/14.3.rel1/arm-none-eabi/arm-none-eabi/include/c++/14.3.1/bits/stl_vector.h **** 	  __x._M_copy_data(__tmp);
 132:/Applications/ArmGNUToolchain/14.3.rel1/arm-none-eabi/arm-none-eabi/include/c++/14.3.1/bits/stl_vector.h **** 	}
 133:/Applications/ArmGNUToolchain/14.3.rel1/arm-none-eabi/arm-none-eabi/include/c++/14.3.1/bits/stl_vector.h ****       };
 134:/Applications/ArmGNUToolchain/14.3.rel1/arm-none-eabi/arm-none-eabi/include/c++/14.3.1/bits/stl_vector.h **** 
 135:/Applications/ArmGNUToolchain/14.3.rel1/arm-none-eabi/arm-none-eabi/include/c++/14.3.1/bits/stl_vector.h ****       struct _Vector_impl
 136:/Applications/ArmGNUToolchain/14.3.rel1/arm-none-eabi/arm-none-eabi/include/c++/14.3.1/bits/stl_vector.h **** 	: public _Tp_alloc_type, public _Vector_impl_data
 137:/Applications/ArmGNUToolchain/14.3.rel1/arm-none-eabi/arm-none-eabi/include/c++/14.3.1/bits/stl_vector.h ****       {
 138:/Applications/ArmGNUToolchain/14.3.rel1/arm-none-eabi/arm-none-eabi/include/c++/14.3.1/bits/stl_vector.h **** 	_GLIBCXX20_CONSTEXPR
 139:/Applications/ArmGNUToolchain/14.3.rel1/arm-none-eabi/arm-none-eabi/include/c++/14.3.1/bits/stl_vector.h **** 	_Vector_impl() _GLIBCXX_NOEXCEPT_IF(
 140:/Applications/ArmGNUToolchain/14.3.rel1/arm-none-eabi/arm-none-eabi/include/c++/14.3.1/bits/stl_vector.h **** 	    is_nothrow_default_constructible<_Tp_alloc_type>::value)
 141:/Applications/ArmGNUToolchain/14.3.rel1/arm-none-eabi/arm-none-eabi/include/c++/14.3.1/bits/stl_vector.h **** #if __cpp_lib_concepts
 142:/Applications/ArmGNUToolchain/14.3.rel1/arm-none-eabi/arm-none-eabi/include/c++/14.3.1/bits/stl_vector.h **** 	requires is_default_constructible_v<_Tp_alloc_type>
 143:/Applications/ArmGNUToolchain/14.3.rel1/arm-none-eabi/arm-none-eabi/include/c++/14.3.1/bits/stl_vector.h **** #endif
 144:/Applications/ArmGNUToolchain/14.3.rel1/arm-none-eabi/arm-none-eabi/include/c++/14.3.1/bits/stl_vector.h **** 	: _Tp_alloc_type()
 145:/Applications/ArmGNUToolchain/14.3.rel1/arm-none-eabi/arm-none-eabi/include/c++/14.3.1/bits/stl_vector.h **** 	{ }
 146:/Applications/ArmGNUToolchain/14.3.rel1/arm-none-eabi/arm-none-eabi/include/c++/14.3.1/bits/stl_vector.h **** 
 147:/Applications/ArmGNUToolchain/14.3.rel1/arm-none-eabi/arm-none-eabi/include/c++/14.3.1/bits/stl_vector.h **** 	_GLIBCXX20_CONSTEXPR
 148:/Applications/ArmGNUToolchain/14.3.rel1/arm-none-eabi/arm-none-eabi/include/c++/14.3.1/bits/stl_vector.h **** 	_Vector_impl(_Tp_alloc_type const& __a) _GLIBCXX_NOEXCEPT
 149:/Applications/ArmGNUToolchain/14.3.rel1/arm-none-eabi/arm-none-eabi/include/c++/14.3.1/bits/stl_vector.h **** 	: _Tp_alloc_type(__a)
 150:/Applications/ArmGNUToolchain/14.3.rel1/arm-none-eabi/arm-none-eabi/include/c++/14.3.1/bits/stl_vector.h **** 	{ }
 151:/Applications/ArmGNUToolchain/14.3.rel1/arm-none-eabi/arm-none-eabi/include/c++/14.3.1/bits/stl_vector.h **** 
 152:/Applications/ArmGNUToolchain/14.3.rel1/arm-none-eabi/arm-none-eabi/include/c++/14.3.1/bits/stl_vector.h **** #if __cplusplus >= 201103L
 153:/Applications/ArmGNUToolchain/14.3.rel1/arm-none-eabi/arm-none-eabi/include/c++/14.3.1/bits/stl_vector.h **** 	// Not defaulted, to enforce noexcept(true) even when
 154:/Applications/ArmGNUToolchain/14.3.rel1/arm-none-eabi/arm-none-eabi/include/c++/14.3.1/bits/stl_vector.h **** 	// !is_nothrow_move_constructible<_Tp_alloc_type>.
ARM GAS  /var/folders/v1/156fk8j97zv9pzndh61fy7zm0000gn/T//ccQgUds1.s 			page 66


 155:/Applications/ArmGNUToolchain/14.3.rel1/arm-none-eabi/arm-none-eabi/include/c++/14.3.1/bits/stl_vector.h **** 	_GLIBCXX20_CONSTEXPR
 156:/Applications/ArmGNUToolchain/14.3.rel1/arm-none-eabi/arm-none-eabi/include/c++/14.3.1/bits/stl_vector.h **** 	_Vector_impl(_Vector_impl&& __x) noexcept
 157:/Applications/ArmGNUToolchain/14.3.rel1/arm-none-eabi/arm-none-eabi/include/c++/14.3.1/bits/stl_vector.h **** 	: _Tp_alloc_type(std::move(__x)), _Vector_impl_data(std::move(__x))
 158:/Applications/ArmGNUToolchain/14.3.rel1/arm-none-eabi/arm-none-eabi/include/c++/14.3.1/bits/stl_vector.h **** 	{ }
 159:/Applications/ArmGNUToolchain/14.3.rel1/arm-none-eabi/arm-none-eabi/include/c++/14.3.1/bits/stl_vector.h **** 
 160:/Applications/ArmGNUToolchain/14.3.rel1/arm-none-eabi/arm-none-eabi/include/c++/14.3.1/bits/stl_vector.h **** 	_GLIBCXX20_CONSTEXPR
 161:/Applications/ArmGNUToolchain/14.3.rel1/arm-none-eabi/arm-none-eabi/include/c++/14.3.1/bits/stl_vector.h **** 	_Vector_impl(_Tp_alloc_type&& __a) noexcept
 162:/Applications/ArmGNUToolchain/14.3.rel1/arm-none-eabi/arm-none-eabi/include/c++/14.3.1/bits/stl_vector.h **** 	: _Tp_alloc_type(std::move(__a))
 163:/Applications/ArmGNUToolchain/14.3.rel1/arm-none-eabi/arm-none-eabi/include/c++/14.3.1/bits/stl_vector.h **** 	{ }
 164:/Applications/ArmGNUToolchain/14.3.rel1/arm-none-eabi/arm-none-eabi/include/c++/14.3.1/bits/stl_vector.h **** 
 165:/Applications/ArmGNUToolchain/14.3.rel1/arm-none-eabi/arm-none-eabi/include/c++/14.3.1/bits/stl_vector.h **** 	_GLIBCXX20_CONSTEXPR
 166:/Applications/ArmGNUToolchain/14.3.rel1/arm-none-eabi/arm-none-eabi/include/c++/14.3.1/bits/stl_vector.h **** 	_Vector_impl(_Tp_alloc_type&& __a, _Vector_impl&& __rv) noexcept
 167:/Applications/ArmGNUToolchain/14.3.rel1/arm-none-eabi/arm-none-eabi/include/c++/14.3.1/bits/stl_vector.h **** 	: _Tp_alloc_type(std::move(__a)), _Vector_impl_data(std::move(__rv))
 168:/Applications/ArmGNUToolchain/14.3.rel1/arm-none-eabi/arm-none-eabi/include/c++/14.3.1/bits/stl_vector.h **** 	{ }
 169:/Applications/ArmGNUToolchain/14.3.rel1/arm-none-eabi/arm-none-eabi/include/c++/14.3.1/bits/stl_vector.h **** #endif
 170:/Applications/ArmGNUToolchain/14.3.rel1/arm-none-eabi/arm-none-eabi/include/c++/14.3.1/bits/stl_vector.h **** 
 171:/Applications/ArmGNUToolchain/14.3.rel1/arm-none-eabi/arm-none-eabi/include/c++/14.3.1/bits/stl_vector.h **** #if _GLIBCXX_SANITIZE_STD_ALLOCATOR && _GLIBCXX_SANITIZE_VECTOR
 172:/Applications/ArmGNUToolchain/14.3.rel1/arm-none-eabi/arm-none-eabi/include/c++/14.3.1/bits/stl_vector.h **** 	template<typename = _Tp_alloc_type>
 173:/Applications/ArmGNUToolchain/14.3.rel1/arm-none-eabi/arm-none-eabi/include/c++/14.3.1/bits/stl_vector.h **** 	  struct _Asan
 174:/Applications/ArmGNUToolchain/14.3.rel1/arm-none-eabi/arm-none-eabi/include/c++/14.3.1/bits/stl_vector.h **** 	  {
 175:/Applications/ArmGNUToolchain/14.3.rel1/arm-none-eabi/arm-none-eabi/include/c++/14.3.1/bits/stl_vector.h **** 	    typedef typename __gnu_cxx::__alloc_traits<_Tp_alloc_type>
 176:/Applications/ArmGNUToolchain/14.3.rel1/arm-none-eabi/arm-none-eabi/include/c++/14.3.1/bits/stl_vector.h **** 	      ::size_type size_type;
 177:/Applications/ArmGNUToolchain/14.3.rel1/arm-none-eabi/arm-none-eabi/include/c++/14.3.1/bits/stl_vector.h **** 
 178:/Applications/ArmGNUToolchain/14.3.rel1/arm-none-eabi/arm-none-eabi/include/c++/14.3.1/bits/stl_vector.h **** 	    static _GLIBCXX20_CONSTEXPR void
 179:/Applications/ArmGNUToolchain/14.3.rel1/arm-none-eabi/arm-none-eabi/include/c++/14.3.1/bits/stl_vector.h **** 	    _S_shrink(_Vector_impl&, size_type) { }
 180:/Applications/ArmGNUToolchain/14.3.rel1/arm-none-eabi/arm-none-eabi/include/c++/14.3.1/bits/stl_vector.h **** 	    static _GLIBCXX20_CONSTEXPR void
 181:/Applications/ArmGNUToolchain/14.3.rel1/arm-none-eabi/arm-none-eabi/include/c++/14.3.1/bits/stl_vector.h **** 	    _S_on_dealloc(_Vector_impl&) { }
 182:/Applications/ArmGNUToolchain/14.3.rel1/arm-none-eabi/arm-none-eabi/include/c++/14.3.1/bits/stl_vector.h **** 
 183:/Applications/ArmGNUToolchain/14.3.rel1/arm-none-eabi/arm-none-eabi/include/c++/14.3.1/bits/stl_vector.h **** 	    typedef _Vector_impl& _Reinit;
 184:/Applications/ArmGNUToolchain/14.3.rel1/arm-none-eabi/arm-none-eabi/include/c++/14.3.1/bits/stl_vector.h **** 
 185:/Applications/ArmGNUToolchain/14.3.rel1/arm-none-eabi/arm-none-eabi/include/c++/14.3.1/bits/stl_vector.h **** 	    struct _Grow
 186:/Applications/ArmGNUToolchain/14.3.rel1/arm-none-eabi/arm-none-eabi/include/c++/14.3.1/bits/stl_vector.h **** 	    {
 187:/Applications/ArmGNUToolchain/14.3.rel1/arm-none-eabi/arm-none-eabi/include/c++/14.3.1/bits/stl_vector.h **** 	      _GLIBCXX20_CONSTEXPR _Grow(_Vector_impl&, size_type) { }
 188:/Applications/ArmGNUToolchain/14.3.rel1/arm-none-eabi/arm-none-eabi/include/c++/14.3.1/bits/stl_vector.h **** 	      _GLIBCXX20_CONSTEXPR void _M_grew(size_type) { }
 189:/Applications/ArmGNUToolchain/14.3.rel1/arm-none-eabi/arm-none-eabi/include/c++/14.3.1/bits/stl_vector.h **** 	    };
 190:/Applications/ArmGNUToolchain/14.3.rel1/arm-none-eabi/arm-none-eabi/include/c++/14.3.1/bits/stl_vector.h **** 	  };
 191:/Applications/ArmGNUToolchain/14.3.rel1/arm-none-eabi/arm-none-eabi/include/c++/14.3.1/bits/stl_vector.h **** 
 192:/Applications/ArmGNUToolchain/14.3.rel1/arm-none-eabi/arm-none-eabi/include/c++/14.3.1/bits/stl_vector.h **** 	// Enable ASan annotations for memory obtained from std::allocator.
 193:/Applications/ArmGNUToolchain/14.3.rel1/arm-none-eabi/arm-none-eabi/include/c++/14.3.1/bits/stl_vector.h **** 	template<typename _Up>
 194:/Applications/ArmGNUToolchain/14.3.rel1/arm-none-eabi/arm-none-eabi/include/c++/14.3.1/bits/stl_vector.h **** 	  struct _Asan<allocator<_Up> >
 195:/Applications/ArmGNUToolchain/14.3.rel1/arm-none-eabi/arm-none-eabi/include/c++/14.3.1/bits/stl_vector.h **** 	  {
 196:/Applications/ArmGNUToolchain/14.3.rel1/arm-none-eabi/arm-none-eabi/include/c++/14.3.1/bits/stl_vector.h **** 	    typedef typename __gnu_cxx::__alloc_traits<_Tp_alloc_type>
 197:/Applications/ArmGNUToolchain/14.3.rel1/arm-none-eabi/arm-none-eabi/include/c++/14.3.1/bits/stl_vector.h **** 	      ::size_type size_type;
 198:/Applications/ArmGNUToolchain/14.3.rel1/arm-none-eabi/arm-none-eabi/include/c++/14.3.1/bits/stl_vector.h **** 
 199:/Applications/ArmGNUToolchain/14.3.rel1/arm-none-eabi/arm-none-eabi/include/c++/14.3.1/bits/stl_vector.h **** 	    // Adjust ASan annotation for [_M_start, _M_end_of_storage) to
 200:/Applications/ArmGNUToolchain/14.3.rel1/arm-none-eabi/arm-none-eabi/include/c++/14.3.1/bits/stl_vector.h **** 	    // mark end of valid region as __curr instead of __prev.
 201:/Applications/ArmGNUToolchain/14.3.rel1/arm-none-eabi/arm-none-eabi/include/c++/14.3.1/bits/stl_vector.h **** 	    static _GLIBCXX20_CONSTEXPR void
 202:/Applications/ArmGNUToolchain/14.3.rel1/arm-none-eabi/arm-none-eabi/include/c++/14.3.1/bits/stl_vector.h **** 	    _S_adjust(_Vector_impl& __impl, pointer __prev, pointer __curr)
 203:/Applications/ArmGNUToolchain/14.3.rel1/arm-none-eabi/arm-none-eabi/include/c++/14.3.1/bits/stl_vector.h **** 	    {
 204:/Applications/ArmGNUToolchain/14.3.rel1/arm-none-eabi/arm-none-eabi/include/c++/14.3.1/bits/stl_vector.h **** #if __cpp_lib_is_constant_evaluated
 205:/Applications/ArmGNUToolchain/14.3.rel1/arm-none-eabi/arm-none-eabi/include/c++/14.3.1/bits/stl_vector.h **** 	      if (std::is_constant_evaluated())
 206:/Applications/ArmGNUToolchain/14.3.rel1/arm-none-eabi/arm-none-eabi/include/c++/14.3.1/bits/stl_vector.h **** 		return;
 207:/Applications/ArmGNUToolchain/14.3.rel1/arm-none-eabi/arm-none-eabi/include/c++/14.3.1/bits/stl_vector.h **** #endif
 208:/Applications/ArmGNUToolchain/14.3.rel1/arm-none-eabi/arm-none-eabi/include/c++/14.3.1/bits/stl_vector.h **** 	      __sanitizer_annotate_contiguous_container(__impl._M_start,
 209:/Applications/ArmGNUToolchain/14.3.rel1/arm-none-eabi/arm-none-eabi/include/c++/14.3.1/bits/stl_vector.h **** 		  __impl._M_end_of_storage, __prev, __curr);
 210:/Applications/ArmGNUToolchain/14.3.rel1/arm-none-eabi/arm-none-eabi/include/c++/14.3.1/bits/stl_vector.h **** 	    }
 211:/Applications/ArmGNUToolchain/14.3.rel1/arm-none-eabi/arm-none-eabi/include/c++/14.3.1/bits/stl_vector.h **** 
ARM GAS  /var/folders/v1/156fk8j97zv9pzndh61fy7zm0000gn/T//ccQgUds1.s 			page 67


 212:/Applications/ArmGNUToolchain/14.3.rel1/arm-none-eabi/arm-none-eabi/include/c++/14.3.1/bits/stl_vector.h **** 	    static _GLIBCXX20_CONSTEXPR void
 213:/Applications/ArmGNUToolchain/14.3.rel1/arm-none-eabi/arm-none-eabi/include/c++/14.3.1/bits/stl_vector.h **** 	    _S_grow(_Vector_impl& __impl, size_type __n)
 214:/Applications/ArmGNUToolchain/14.3.rel1/arm-none-eabi/arm-none-eabi/include/c++/14.3.1/bits/stl_vector.h **** 	    { _S_adjust(__impl, __impl._M_finish, __impl._M_finish + __n); }
 215:/Applications/ArmGNUToolchain/14.3.rel1/arm-none-eabi/arm-none-eabi/include/c++/14.3.1/bits/stl_vector.h **** 
 216:/Applications/ArmGNUToolchain/14.3.rel1/arm-none-eabi/arm-none-eabi/include/c++/14.3.1/bits/stl_vector.h **** 	    static _GLIBCXX20_CONSTEXPR void
 217:/Applications/ArmGNUToolchain/14.3.rel1/arm-none-eabi/arm-none-eabi/include/c++/14.3.1/bits/stl_vector.h **** 	    _S_shrink(_Vector_impl& __impl, size_type __n)
 218:/Applications/ArmGNUToolchain/14.3.rel1/arm-none-eabi/arm-none-eabi/include/c++/14.3.1/bits/stl_vector.h **** 	    { _S_adjust(__impl, __impl._M_finish + __n, __impl._M_finish); }
 219:/Applications/ArmGNUToolchain/14.3.rel1/arm-none-eabi/arm-none-eabi/include/c++/14.3.1/bits/stl_vector.h **** 
 220:/Applications/ArmGNUToolchain/14.3.rel1/arm-none-eabi/arm-none-eabi/include/c++/14.3.1/bits/stl_vector.h **** 	    static _GLIBCXX20_CONSTEXPR void
 221:/Applications/ArmGNUToolchain/14.3.rel1/arm-none-eabi/arm-none-eabi/include/c++/14.3.1/bits/stl_vector.h **** 	    _S_on_dealloc(_Vector_impl& __impl)
 222:/Applications/ArmGNUToolchain/14.3.rel1/arm-none-eabi/arm-none-eabi/include/c++/14.3.1/bits/stl_vector.h **** 	    {
 223:/Applications/ArmGNUToolchain/14.3.rel1/arm-none-eabi/arm-none-eabi/include/c++/14.3.1/bits/stl_vector.h **** 	      if (__impl._M_start)
 224:/Applications/ArmGNUToolchain/14.3.rel1/arm-none-eabi/arm-none-eabi/include/c++/14.3.1/bits/stl_vector.h **** 		_S_adjust(__impl, __impl._M_finish, __impl._M_end_of_storage);
 225:/Applications/ArmGNUToolchain/14.3.rel1/arm-none-eabi/arm-none-eabi/include/c++/14.3.1/bits/stl_vector.h **** 	    }
 226:/Applications/ArmGNUToolchain/14.3.rel1/arm-none-eabi/arm-none-eabi/include/c++/14.3.1/bits/stl_vector.h **** 
 227:/Applications/ArmGNUToolchain/14.3.rel1/arm-none-eabi/arm-none-eabi/include/c++/14.3.1/bits/stl_vector.h **** 	    // Used on reallocation to tell ASan unused capacity is invalid.
 228:/Applications/ArmGNUToolchain/14.3.rel1/arm-none-eabi/arm-none-eabi/include/c++/14.3.1/bits/stl_vector.h **** 	    struct _Reinit
 229:/Applications/ArmGNUToolchain/14.3.rel1/arm-none-eabi/arm-none-eabi/include/c++/14.3.1/bits/stl_vector.h **** 	    {
 230:/Applications/ArmGNUToolchain/14.3.rel1/arm-none-eabi/arm-none-eabi/include/c++/14.3.1/bits/stl_vector.h **** 	      explicit _GLIBCXX20_CONSTEXPR
 231:/Applications/ArmGNUToolchain/14.3.rel1/arm-none-eabi/arm-none-eabi/include/c++/14.3.1/bits/stl_vector.h **** 	      _Reinit(_Vector_impl& __impl) : _M_impl(__impl)
 232:/Applications/ArmGNUToolchain/14.3.rel1/arm-none-eabi/arm-none-eabi/include/c++/14.3.1/bits/stl_vector.h **** 	      {
 233:/Applications/ArmGNUToolchain/14.3.rel1/arm-none-eabi/arm-none-eabi/include/c++/14.3.1/bits/stl_vector.h **** 		// Mark unused capacity as valid again before deallocating it.
 234:/Applications/ArmGNUToolchain/14.3.rel1/arm-none-eabi/arm-none-eabi/include/c++/14.3.1/bits/stl_vector.h **** 		_S_on_dealloc(_M_impl);
 235:/Applications/ArmGNUToolchain/14.3.rel1/arm-none-eabi/arm-none-eabi/include/c++/14.3.1/bits/stl_vector.h **** 	      }
 236:/Applications/ArmGNUToolchain/14.3.rel1/arm-none-eabi/arm-none-eabi/include/c++/14.3.1/bits/stl_vector.h **** 
 237:/Applications/ArmGNUToolchain/14.3.rel1/arm-none-eabi/arm-none-eabi/include/c++/14.3.1/bits/stl_vector.h **** 	      _GLIBCXX20_CONSTEXPR
 238:/Applications/ArmGNUToolchain/14.3.rel1/arm-none-eabi/arm-none-eabi/include/c++/14.3.1/bits/stl_vector.h **** 	      ~_Reinit()
 239:/Applications/ArmGNUToolchain/14.3.rel1/arm-none-eabi/arm-none-eabi/include/c++/14.3.1/bits/stl_vector.h **** 	      {
 240:/Applications/ArmGNUToolchain/14.3.rel1/arm-none-eabi/arm-none-eabi/include/c++/14.3.1/bits/stl_vector.h **** 		// Mark unused capacity as invalid after reallocation.
 241:/Applications/ArmGNUToolchain/14.3.rel1/arm-none-eabi/arm-none-eabi/include/c++/14.3.1/bits/stl_vector.h **** 		if (_M_impl._M_start)
 242:/Applications/ArmGNUToolchain/14.3.rel1/arm-none-eabi/arm-none-eabi/include/c++/14.3.1/bits/stl_vector.h **** 		  _S_adjust(_M_impl, _M_impl._M_end_of_storage,
 243:/Applications/ArmGNUToolchain/14.3.rel1/arm-none-eabi/arm-none-eabi/include/c++/14.3.1/bits/stl_vector.h **** 			    _M_impl._M_finish);
 244:/Applications/ArmGNUToolchain/14.3.rel1/arm-none-eabi/arm-none-eabi/include/c++/14.3.1/bits/stl_vector.h **** 	      }
 245:/Applications/ArmGNUToolchain/14.3.rel1/arm-none-eabi/arm-none-eabi/include/c++/14.3.1/bits/stl_vector.h **** 
 246:/Applications/ArmGNUToolchain/14.3.rel1/arm-none-eabi/arm-none-eabi/include/c++/14.3.1/bits/stl_vector.h **** 	      _Vector_impl& _M_impl;
 247:/Applications/ArmGNUToolchain/14.3.rel1/arm-none-eabi/arm-none-eabi/include/c++/14.3.1/bits/stl_vector.h **** 
 248:/Applications/ArmGNUToolchain/14.3.rel1/arm-none-eabi/arm-none-eabi/include/c++/14.3.1/bits/stl_vector.h **** #if __cplusplus >= 201103L
 249:/Applications/ArmGNUToolchain/14.3.rel1/arm-none-eabi/arm-none-eabi/include/c++/14.3.1/bits/stl_vector.h **** 	      _Reinit(const _Reinit&) = delete;
 250:/Applications/ArmGNUToolchain/14.3.rel1/arm-none-eabi/arm-none-eabi/include/c++/14.3.1/bits/stl_vector.h **** 	      _Reinit& operator=(const _Reinit&) = delete;
 251:/Applications/ArmGNUToolchain/14.3.rel1/arm-none-eabi/arm-none-eabi/include/c++/14.3.1/bits/stl_vector.h **** #endif
 252:/Applications/ArmGNUToolchain/14.3.rel1/arm-none-eabi/arm-none-eabi/include/c++/14.3.1/bits/stl_vector.h **** 	    };
 253:/Applications/ArmGNUToolchain/14.3.rel1/arm-none-eabi/arm-none-eabi/include/c++/14.3.1/bits/stl_vector.h **** 
 254:/Applications/ArmGNUToolchain/14.3.rel1/arm-none-eabi/arm-none-eabi/include/c++/14.3.1/bits/stl_vector.h **** 	    // Tell ASan when unused capacity is initialized to be valid.
 255:/Applications/ArmGNUToolchain/14.3.rel1/arm-none-eabi/arm-none-eabi/include/c++/14.3.1/bits/stl_vector.h **** 	    struct _Grow
 256:/Applications/ArmGNUToolchain/14.3.rel1/arm-none-eabi/arm-none-eabi/include/c++/14.3.1/bits/stl_vector.h **** 	    {
 257:/Applications/ArmGNUToolchain/14.3.rel1/arm-none-eabi/arm-none-eabi/include/c++/14.3.1/bits/stl_vector.h **** 	      _GLIBCXX20_CONSTEXPR
 258:/Applications/ArmGNUToolchain/14.3.rel1/arm-none-eabi/arm-none-eabi/include/c++/14.3.1/bits/stl_vector.h **** 	      _Grow(_Vector_impl& __impl, size_type __n)
 259:/Applications/ArmGNUToolchain/14.3.rel1/arm-none-eabi/arm-none-eabi/include/c++/14.3.1/bits/stl_vector.h **** 	      : _M_impl(__impl), _M_n(__n)
 260:/Applications/ArmGNUToolchain/14.3.rel1/arm-none-eabi/arm-none-eabi/include/c++/14.3.1/bits/stl_vector.h **** 	      { _S_grow(_M_impl, __n); }
 261:/Applications/ArmGNUToolchain/14.3.rel1/arm-none-eabi/arm-none-eabi/include/c++/14.3.1/bits/stl_vector.h **** 
 262:/Applications/ArmGNUToolchain/14.3.rel1/arm-none-eabi/arm-none-eabi/include/c++/14.3.1/bits/stl_vector.h **** 	      _GLIBCXX20_CONSTEXPR
 263:/Applications/ArmGNUToolchain/14.3.rel1/arm-none-eabi/arm-none-eabi/include/c++/14.3.1/bits/stl_vector.h **** 	      ~_Grow() { if (_M_n) _S_shrink(_M_impl, _M_n); }
 264:/Applications/ArmGNUToolchain/14.3.rel1/arm-none-eabi/arm-none-eabi/include/c++/14.3.1/bits/stl_vector.h **** 
 265:/Applications/ArmGNUToolchain/14.3.rel1/arm-none-eabi/arm-none-eabi/include/c++/14.3.1/bits/stl_vector.h **** 	      _GLIBCXX20_CONSTEXPR
 266:/Applications/ArmGNUToolchain/14.3.rel1/arm-none-eabi/arm-none-eabi/include/c++/14.3.1/bits/stl_vector.h **** 	      void _M_grew(size_type __n) { _M_n -= __n; }
 267:/Applications/ArmGNUToolchain/14.3.rel1/arm-none-eabi/arm-none-eabi/include/c++/14.3.1/bits/stl_vector.h **** 
 268:/Applications/ArmGNUToolchain/14.3.rel1/arm-none-eabi/arm-none-eabi/include/c++/14.3.1/bits/stl_vector.h **** #if __cplusplus >= 201103L
ARM GAS  /var/folders/v1/156fk8j97zv9pzndh61fy7zm0000gn/T//ccQgUds1.s 			page 68


 269:/Applications/ArmGNUToolchain/14.3.rel1/arm-none-eabi/arm-none-eabi/include/c++/14.3.1/bits/stl_vector.h **** 	      _Grow(const _Grow&) = delete;
 270:/Applications/ArmGNUToolchain/14.3.rel1/arm-none-eabi/arm-none-eabi/include/c++/14.3.1/bits/stl_vector.h **** 	      _Grow& operator=(const _Grow&) = delete;
 271:/Applications/ArmGNUToolchain/14.3.rel1/arm-none-eabi/arm-none-eabi/include/c++/14.3.1/bits/stl_vector.h **** #endif
 272:/Applications/ArmGNUToolchain/14.3.rel1/arm-none-eabi/arm-none-eabi/include/c++/14.3.1/bits/stl_vector.h **** 	    private:
 273:/Applications/ArmGNUToolchain/14.3.rel1/arm-none-eabi/arm-none-eabi/include/c++/14.3.1/bits/stl_vector.h **** 	      _Vector_impl& _M_impl;
 274:/Applications/ArmGNUToolchain/14.3.rel1/arm-none-eabi/arm-none-eabi/include/c++/14.3.1/bits/stl_vector.h **** 	      size_type _M_n;
 275:/Applications/ArmGNUToolchain/14.3.rel1/arm-none-eabi/arm-none-eabi/include/c++/14.3.1/bits/stl_vector.h **** 	    };
 276:/Applications/ArmGNUToolchain/14.3.rel1/arm-none-eabi/arm-none-eabi/include/c++/14.3.1/bits/stl_vector.h **** 	  };
 277:/Applications/ArmGNUToolchain/14.3.rel1/arm-none-eabi/arm-none-eabi/include/c++/14.3.1/bits/stl_vector.h **** 
 278:/Applications/ArmGNUToolchain/14.3.rel1/arm-none-eabi/arm-none-eabi/include/c++/14.3.1/bits/stl_vector.h **** #define _GLIBCXX_ASAN_ANNOTATE_REINIT \
 279:/Applications/ArmGNUToolchain/14.3.rel1/arm-none-eabi/arm-none-eabi/include/c++/14.3.1/bits/stl_vector.h ****   typename _Base::_Vector_impl::template _Asan<>::_Reinit const \
 280:/Applications/ArmGNUToolchain/14.3.rel1/arm-none-eabi/arm-none-eabi/include/c++/14.3.1/bits/stl_vector.h **** 	__attribute__((__unused__)) __reinit_guard(this->_M_impl)
 281:/Applications/ArmGNUToolchain/14.3.rel1/arm-none-eabi/arm-none-eabi/include/c++/14.3.1/bits/stl_vector.h **** #define _GLIBCXX_ASAN_ANNOTATE_GROW(n) \
 282:/Applications/ArmGNUToolchain/14.3.rel1/arm-none-eabi/arm-none-eabi/include/c++/14.3.1/bits/stl_vector.h ****   typename _Base::_Vector_impl::template _Asan<>::_Grow \
 283:/Applications/ArmGNUToolchain/14.3.rel1/arm-none-eabi/arm-none-eabi/include/c++/14.3.1/bits/stl_vector.h **** 	__attribute__((__unused__)) __grow_guard(this->_M_impl, (n))
 284:/Applications/ArmGNUToolchain/14.3.rel1/arm-none-eabi/arm-none-eabi/include/c++/14.3.1/bits/stl_vector.h **** #define _GLIBCXX_ASAN_ANNOTATE_GREW(n) __grow_guard._M_grew(n)
 285:/Applications/ArmGNUToolchain/14.3.rel1/arm-none-eabi/arm-none-eabi/include/c++/14.3.1/bits/stl_vector.h **** #define _GLIBCXX_ASAN_ANNOTATE_SHRINK(n) \
 286:/Applications/ArmGNUToolchain/14.3.rel1/arm-none-eabi/arm-none-eabi/include/c++/14.3.1/bits/stl_vector.h ****   _Base::_Vector_impl::template _Asan<>::_S_shrink(this->_M_impl, n)
 287:/Applications/ArmGNUToolchain/14.3.rel1/arm-none-eabi/arm-none-eabi/include/c++/14.3.1/bits/stl_vector.h **** #define _GLIBCXX_ASAN_ANNOTATE_BEFORE_DEALLOC \
 288:/Applications/ArmGNUToolchain/14.3.rel1/arm-none-eabi/arm-none-eabi/include/c++/14.3.1/bits/stl_vector.h ****   _Base::_Vector_impl::template _Asan<>::_S_on_dealloc(this->_M_impl)
 289:/Applications/ArmGNUToolchain/14.3.rel1/arm-none-eabi/arm-none-eabi/include/c++/14.3.1/bits/stl_vector.h **** #else // ! (_GLIBCXX_SANITIZE_STD_ALLOCATOR && _GLIBCXX_SANITIZE_VECTOR)
 290:/Applications/ArmGNUToolchain/14.3.rel1/arm-none-eabi/arm-none-eabi/include/c++/14.3.1/bits/stl_vector.h **** #define _GLIBCXX_ASAN_ANNOTATE_REINIT
 291:/Applications/ArmGNUToolchain/14.3.rel1/arm-none-eabi/arm-none-eabi/include/c++/14.3.1/bits/stl_vector.h **** #define _GLIBCXX_ASAN_ANNOTATE_GROW(n)
 292:/Applications/ArmGNUToolchain/14.3.rel1/arm-none-eabi/arm-none-eabi/include/c++/14.3.1/bits/stl_vector.h **** #define _GLIBCXX_ASAN_ANNOTATE_GREW(n)
 293:/Applications/ArmGNUToolchain/14.3.rel1/arm-none-eabi/arm-none-eabi/include/c++/14.3.1/bits/stl_vector.h **** #define _GLIBCXX_ASAN_ANNOTATE_SHRINK(n)
 294:/Applications/ArmGNUToolchain/14.3.rel1/arm-none-eabi/arm-none-eabi/include/c++/14.3.1/bits/stl_vector.h **** #define _GLIBCXX_ASAN_ANNOTATE_BEFORE_DEALLOC
 295:/Applications/ArmGNUToolchain/14.3.rel1/arm-none-eabi/arm-none-eabi/include/c++/14.3.1/bits/stl_vector.h **** #endif // _GLIBCXX_SANITIZE_STD_ALLOCATOR && _GLIBCXX_SANITIZE_VECTOR
